
kretanje.elf:     file format elf32-littlearm

Sections:
Idx Name          Size      VMA       LMA       File off  Algn
  0 .isr_vector   00000194  08000000  08000000  00010000  2**0
                  CONTENTS, ALLOC, LOAD, READONLY, DATA
  1 .text         00006064  08000198  08000198  00010198  2**3
                  CONTENTS, ALLOC, LOAD, READONLY, CODE
  2 .rodata       00000278  08006200  08006200  00016200  2**3
                  CONTENTS, ALLOC, LOAD, READONLY, DATA
  3 .ARM.extab    00000000  08006478  08006478  00020080  2**0
                  CONTENTS
  4 .ARM          00000008  08006478  08006478  00016478  2**2
                  CONTENTS, ALLOC, LOAD, READONLY, DATA
  5 .preinit_array 00000000  08006480  08006480  00020080  2**0
                  CONTENTS, ALLOC, LOAD, DATA
  6 .init_array   00000004  08006480  08006480  00016480  2**2
                  CONTENTS, ALLOC, LOAD, DATA
  7 .fini_array   00000004  08006484  08006484  00016484  2**2
                  CONTENTS, ALLOC, LOAD, DATA
  8 .data         00000080  20000000  08006488  00020000  2**2
                  CONTENTS, ALLOC, LOAD, DATA
  9 .bss          00000140  20000080  08006508  00020080  2**2
                  ALLOC
 10 ._user_heap_stack 00000600  200001c0  08006508  000201c0  2**0
                  ALLOC
 11 .ARM.attributes 00000030  00000000  00000000  00020080  2**0
                  CONTENTS, READONLY
 12 .debug_info   0000945b  00000000  00000000  000200b0  2**0
                  CONTENTS, READONLY, DEBUGGING
 13 .debug_abbrev 00001d67  00000000  00000000  0002950b  2**0
                  CONTENTS, READONLY, DEBUGGING
 14 .debug_aranges 00000678  00000000  00000000  0002b278  2**3
                  CONTENTS, READONLY, DEBUGGING
 15 .debug_ranges 00000570  00000000  00000000  0002b8f0  2**3
                  CONTENTS, READONLY, DEBUGGING
 16 .debug_macro  000162d1  00000000  00000000  0002be60  2**0
                  CONTENTS, READONLY, DEBUGGING
 17 .debug_line   0000822f  00000000  00000000  00042131  2**0
                  CONTENTS, READONLY, DEBUGGING
 18 .debug_str    00082ab4  00000000  00000000  0004a360  2**0
                  CONTENTS, READONLY, DEBUGGING
 19 .comment      0000007b  00000000  00000000  000cce14  2**0
                  CONTENTS, READONLY
 20 .debug_frame  00001d94  00000000  00000000  000cce90  2**2
                  CONTENTS, READONLY, DEBUGGING

Disassembly of section .text:

08000198 <__do_global_dtors_aux>:
 8000198:	b510      	push	{r4, lr}
 800019a:	4c05      	ldr	r4, [pc, #20]	; (80001b0 <__do_global_dtors_aux+0x18>)
 800019c:	7823      	ldrb	r3, [r4, #0]
 800019e:	b933      	cbnz	r3, 80001ae <__do_global_dtors_aux+0x16>
 80001a0:	4b04      	ldr	r3, [pc, #16]	; (80001b4 <__do_global_dtors_aux+0x1c>)
 80001a2:	b113      	cbz	r3, 80001aa <__do_global_dtors_aux+0x12>
 80001a4:	4804      	ldr	r0, [pc, #16]	; (80001b8 <__do_global_dtors_aux+0x20>)
 80001a6:	f3af 8000 	nop.w
 80001aa:	2301      	movs	r3, #1
 80001ac:	7023      	strb	r3, [r4, #0]
 80001ae:	bd10      	pop	{r4, pc}
 80001b0:	20000080 	.word	0x20000080
 80001b4:	00000000 	.word	0x00000000
 80001b8:	080061e4 	.word	0x080061e4

080001bc <frame_dummy>:
 80001bc:	b508      	push	{r3, lr}
 80001be:	4b03      	ldr	r3, [pc, #12]	; (80001cc <frame_dummy+0x10>)
 80001c0:	b11b      	cbz	r3, 80001ca <frame_dummy+0xe>
 80001c2:	4903      	ldr	r1, [pc, #12]	; (80001d0 <frame_dummy+0x14>)
 80001c4:	4803      	ldr	r0, [pc, #12]	; (80001d4 <frame_dummy+0x18>)
 80001c6:	f3af 8000 	nop.w
 80001ca:	bd08      	pop	{r3, pc}
 80001cc:	00000000 	.word	0x00000000
 80001d0:	20000084 	.word	0x20000084
 80001d4:	080061e4 	.word	0x080061e4

080001d8 <__aeabi_drsub>:
 80001d8:	f081 4100 	eor.w	r1, r1, #2147483648	; 0x80000000
 80001dc:	e002      	b.n	80001e4 <__adddf3>
 80001de:	bf00      	nop

080001e0 <__aeabi_dsub>:
 80001e0:	f083 4300 	eor.w	r3, r3, #2147483648	; 0x80000000

080001e4 <__adddf3>:
 80001e4:	b530      	push	{r4, r5, lr}
 80001e6:	ea4f 0441 	mov.w	r4, r1, lsl #1
 80001ea:	ea4f 0543 	mov.w	r5, r3, lsl #1
 80001ee:	ea94 0f05 	teq	r4, r5
 80001f2:	bf08      	it	eq
 80001f4:	ea90 0f02 	teqeq	r0, r2
 80001f8:	bf1f      	itttt	ne
 80001fa:	ea54 0c00 	orrsne.w	ip, r4, r0
 80001fe:	ea55 0c02 	orrsne.w	ip, r5, r2
 8000202:	ea7f 5c64 	mvnsne.w	ip, r4, asr #21
 8000206:	ea7f 5c65 	mvnsne.w	ip, r5, asr #21
 800020a:	f000 80e2 	beq.w	80003d2 <__adddf3+0x1ee>
 800020e:	ea4f 5454 	mov.w	r4, r4, lsr #21
 8000212:	ebd4 5555 	rsbs	r5, r4, r5, lsr #21
 8000216:	bfb8      	it	lt
 8000218:	426d      	neglt	r5, r5
 800021a:	dd0c      	ble.n	8000236 <__adddf3+0x52>
 800021c:	442c      	add	r4, r5
 800021e:	ea80 0202 	eor.w	r2, r0, r2
 8000222:	ea81 0303 	eor.w	r3, r1, r3
 8000226:	ea82 0000 	eor.w	r0, r2, r0
 800022a:	ea83 0101 	eor.w	r1, r3, r1
 800022e:	ea80 0202 	eor.w	r2, r0, r2
 8000232:	ea81 0303 	eor.w	r3, r1, r3
 8000236:	2d36      	cmp	r5, #54	; 0x36
 8000238:	bf88      	it	hi
 800023a:	bd30      	pophi	{r4, r5, pc}
 800023c:	f011 4f00 	tst.w	r1, #2147483648	; 0x80000000
 8000240:	ea4f 3101 	mov.w	r1, r1, lsl #12
 8000244:	f44f 1c80 	mov.w	ip, #1048576	; 0x100000
 8000248:	ea4c 3111 	orr.w	r1, ip, r1, lsr #12
 800024c:	d002      	beq.n	8000254 <__adddf3+0x70>
 800024e:	4240      	negs	r0, r0
 8000250:	eb61 0141 	sbc.w	r1, r1, r1, lsl #1
 8000254:	f013 4f00 	tst.w	r3, #2147483648	; 0x80000000
 8000258:	ea4f 3303 	mov.w	r3, r3, lsl #12
 800025c:	ea4c 3313 	orr.w	r3, ip, r3, lsr #12
 8000260:	d002      	beq.n	8000268 <__adddf3+0x84>
 8000262:	4252      	negs	r2, r2
 8000264:	eb63 0343 	sbc.w	r3, r3, r3, lsl #1
 8000268:	ea94 0f05 	teq	r4, r5
 800026c:	f000 80a7 	beq.w	80003be <__adddf3+0x1da>
 8000270:	f1a4 0401 	sub.w	r4, r4, #1
 8000274:	f1d5 0e20 	rsbs	lr, r5, #32
 8000278:	db0d      	blt.n	8000296 <__adddf3+0xb2>
 800027a:	fa02 fc0e 	lsl.w	ip, r2, lr
 800027e:	fa22 f205 	lsr.w	r2, r2, r5
 8000282:	1880      	adds	r0, r0, r2
 8000284:	f141 0100 	adc.w	r1, r1, #0
 8000288:	fa03 f20e 	lsl.w	r2, r3, lr
 800028c:	1880      	adds	r0, r0, r2
 800028e:	fa43 f305 	asr.w	r3, r3, r5
 8000292:	4159      	adcs	r1, r3
 8000294:	e00e      	b.n	80002b4 <__adddf3+0xd0>
 8000296:	f1a5 0520 	sub.w	r5, r5, #32
 800029a:	f10e 0e20 	add.w	lr, lr, #32
 800029e:	2a01      	cmp	r2, #1
 80002a0:	fa03 fc0e 	lsl.w	ip, r3, lr
 80002a4:	bf28      	it	cs
 80002a6:	f04c 0c02 	orrcs.w	ip, ip, #2
 80002aa:	fa43 f305 	asr.w	r3, r3, r5
 80002ae:	18c0      	adds	r0, r0, r3
 80002b0:	eb51 71e3 	adcs.w	r1, r1, r3, asr #31
 80002b4:	f001 4500 	and.w	r5, r1, #2147483648	; 0x80000000
 80002b8:	d507      	bpl.n	80002ca <__adddf3+0xe6>
 80002ba:	f04f 0e00 	mov.w	lr, #0
 80002be:	f1dc 0c00 	rsbs	ip, ip, #0
 80002c2:	eb7e 0000 	sbcs.w	r0, lr, r0
 80002c6:	eb6e 0101 	sbc.w	r1, lr, r1
 80002ca:	f5b1 1f80 	cmp.w	r1, #1048576	; 0x100000
 80002ce:	d31b      	bcc.n	8000308 <__adddf3+0x124>
 80002d0:	f5b1 1f00 	cmp.w	r1, #2097152	; 0x200000
 80002d4:	d30c      	bcc.n	80002f0 <__adddf3+0x10c>
 80002d6:	0849      	lsrs	r1, r1, #1
 80002d8:	ea5f 0030 	movs.w	r0, r0, rrx
 80002dc:	ea4f 0c3c 	mov.w	ip, ip, rrx
 80002e0:	f104 0401 	add.w	r4, r4, #1
 80002e4:	ea4f 5244 	mov.w	r2, r4, lsl #21
 80002e8:	f512 0f80 	cmn.w	r2, #4194304	; 0x400000
 80002ec:	f080 809a 	bcs.w	8000424 <__adddf3+0x240>
 80002f0:	f1bc 4f00 	cmp.w	ip, #2147483648	; 0x80000000
 80002f4:	bf08      	it	eq
 80002f6:	ea5f 0c50 	movseq.w	ip, r0, lsr #1
 80002fa:	f150 0000 	adcs.w	r0, r0, #0
 80002fe:	eb41 5104 	adc.w	r1, r1, r4, lsl #20
 8000302:	ea41 0105 	orr.w	r1, r1, r5
 8000306:	bd30      	pop	{r4, r5, pc}
 8000308:	ea5f 0c4c 	movs.w	ip, ip, lsl #1
 800030c:	4140      	adcs	r0, r0
 800030e:	eb41 0101 	adc.w	r1, r1, r1
 8000312:	f411 1f80 	tst.w	r1, #1048576	; 0x100000
 8000316:	f1a4 0401 	sub.w	r4, r4, #1
 800031a:	d1e9      	bne.n	80002f0 <__adddf3+0x10c>
 800031c:	f091 0f00 	teq	r1, #0
 8000320:	bf04      	itt	eq
 8000322:	4601      	moveq	r1, r0
 8000324:	2000      	moveq	r0, #0
 8000326:	fab1 f381 	clz	r3, r1
 800032a:	bf08      	it	eq
 800032c:	3320      	addeq	r3, #32
 800032e:	f1a3 030b 	sub.w	r3, r3, #11
 8000332:	f1b3 0220 	subs.w	r2, r3, #32
 8000336:	da0c      	bge.n	8000352 <__adddf3+0x16e>
 8000338:	320c      	adds	r2, #12
 800033a:	dd08      	ble.n	800034e <__adddf3+0x16a>
 800033c:	f102 0c14 	add.w	ip, r2, #20
 8000340:	f1c2 020c 	rsb	r2, r2, #12
 8000344:	fa01 f00c 	lsl.w	r0, r1, ip
 8000348:	fa21 f102 	lsr.w	r1, r1, r2
 800034c:	e00c      	b.n	8000368 <__adddf3+0x184>
 800034e:	f102 0214 	add.w	r2, r2, #20
 8000352:	bfd8      	it	le
 8000354:	f1c2 0c20 	rsble	ip, r2, #32
 8000358:	fa01 f102 	lsl.w	r1, r1, r2
 800035c:	fa20 fc0c 	lsr.w	ip, r0, ip
 8000360:	bfdc      	itt	le
 8000362:	ea41 010c 	orrle.w	r1, r1, ip
 8000366:	4090      	lslle	r0, r2
 8000368:	1ae4      	subs	r4, r4, r3
 800036a:	bfa2      	ittt	ge
 800036c:	eb01 5104 	addge.w	r1, r1, r4, lsl #20
 8000370:	4329      	orrge	r1, r5
 8000372:	bd30      	popge	{r4, r5, pc}
 8000374:	ea6f 0404 	mvn.w	r4, r4
 8000378:	3c1f      	subs	r4, #31
 800037a:	da1c      	bge.n	80003b6 <__adddf3+0x1d2>
 800037c:	340c      	adds	r4, #12
 800037e:	dc0e      	bgt.n	800039e <__adddf3+0x1ba>
 8000380:	f104 0414 	add.w	r4, r4, #20
 8000384:	f1c4 0220 	rsb	r2, r4, #32
 8000388:	fa20 f004 	lsr.w	r0, r0, r4
 800038c:	fa01 f302 	lsl.w	r3, r1, r2
 8000390:	ea40 0003 	orr.w	r0, r0, r3
 8000394:	fa21 f304 	lsr.w	r3, r1, r4
 8000398:	ea45 0103 	orr.w	r1, r5, r3
 800039c:	bd30      	pop	{r4, r5, pc}
 800039e:	f1c4 040c 	rsb	r4, r4, #12
 80003a2:	f1c4 0220 	rsb	r2, r4, #32
 80003a6:	fa20 f002 	lsr.w	r0, r0, r2
 80003aa:	fa01 f304 	lsl.w	r3, r1, r4
 80003ae:	ea40 0003 	orr.w	r0, r0, r3
 80003b2:	4629      	mov	r1, r5
 80003b4:	bd30      	pop	{r4, r5, pc}
 80003b6:	fa21 f004 	lsr.w	r0, r1, r4
 80003ba:	4629      	mov	r1, r5
 80003bc:	bd30      	pop	{r4, r5, pc}
 80003be:	f094 0f00 	teq	r4, #0
 80003c2:	f483 1380 	eor.w	r3, r3, #1048576	; 0x100000
 80003c6:	bf06      	itte	eq
 80003c8:	f481 1180 	eoreq.w	r1, r1, #1048576	; 0x100000
 80003cc:	3401      	addeq	r4, #1
 80003ce:	3d01      	subne	r5, #1
 80003d0:	e74e      	b.n	8000270 <__adddf3+0x8c>
 80003d2:	ea7f 5c64 	mvns.w	ip, r4, asr #21
 80003d6:	bf18      	it	ne
 80003d8:	ea7f 5c65 	mvnsne.w	ip, r5, asr #21
 80003dc:	d029      	beq.n	8000432 <__adddf3+0x24e>
 80003de:	ea94 0f05 	teq	r4, r5
 80003e2:	bf08      	it	eq
 80003e4:	ea90 0f02 	teqeq	r0, r2
 80003e8:	d005      	beq.n	80003f6 <__adddf3+0x212>
 80003ea:	ea54 0c00 	orrs.w	ip, r4, r0
 80003ee:	bf04      	itt	eq
 80003f0:	4619      	moveq	r1, r3
 80003f2:	4610      	moveq	r0, r2
 80003f4:	bd30      	pop	{r4, r5, pc}
 80003f6:	ea91 0f03 	teq	r1, r3
 80003fa:	bf1e      	ittt	ne
 80003fc:	2100      	movne	r1, #0
 80003fe:	2000      	movne	r0, #0
 8000400:	bd30      	popne	{r4, r5, pc}
 8000402:	ea5f 5c54 	movs.w	ip, r4, lsr #21
 8000406:	d105      	bne.n	8000414 <__adddf3+0x230>
 8000408:	0040      	lsls	r0, r0, #1
 800040a:	4149      	adcs	r1, r1
 800040c:	bf28      	it	cs
 800040e:	f041 4100 	orrcs.w	r1, r1, #2147483648	; 0x80000000
 8000412:	bd30      	pop	{r4, r5, pc}
 8000414:	f514 0480 	adds.w	r4, r4, #4194304	; 0x400000
 8000418:	bf3c      	itt	cc
 800041a:	f501 1180 	addcc.w	r1, r1, #1048576	; 0x100000
 800041e:	bd30      	popcc	{r4, r5, pc}
 8000420:	f001 4500 	and.w	r5, r1, #2147483648	; 0x80000000
 8000424:	f045 41fe 	orr.w	r1, r5, #2130706432	; 0x7f000000
 8000428:	f441 0170 	orr.w	r1, r1, #15728640	; 0xf00000
 800042c:	f04f 0000 	mov.w	r0, #0
 8000430:	bd30      	pop	{r4, r5, pc}
 8000432:	ea7f 5c64 	mvns.w	ip, r4, asr #21
 8000436:	bf1a      	itte	ne
 8000438:	4619      	movne	r1, r3
 800043a:	4610      	movne	r0, r2
 800043c:	ea7f 5c65 	mvnseq.w	ip, r5, asr #21
 8000440:	bf1c      	itt	ne
 8000442:	460b      	movne	r3, r1
 8000444:	4602      	movne	r2, r0
 8000446:	ea50 3401 	orrs.w	r4, r0, r1, lsl #12
 800044a:	bf06      	itte	eq
 800044c:	ea52 3503 	orrseq.w	r5, r2, r3, lsl #12
 8000450:	ea91 0f03 	teqeq	r1, r3
 8000454:	f441 2100 	orrne.w	r1, r1, #524288	; 0x80000
 8000458:	bd30      	pop	{r4, r5, pc}
 800045a:	bf00      	nop

0800045c <__aeabi_ui2d>:
 800045c:	f090 0f00 	teq	r0, #0
 8000460:	bf04      	itt	eq
 8000462:	2100      	moveq	r1, #0
 8000464:	4770      	bxeq	lr
 8000466:	b530      	push	{r4, r5, lr}
 8000468:	f44f 6480 	mov.w	r4, #1024	; 0x400
 800046c:	f104 0432 	add.w	r4, r4, #50	; 0x32
 8000470:	f04f 0500 	mov.w	r5, #0
 8000474:	f04f 0100 	mov.w	r1, #0
 8000478:	e750      	b.n	800031c <__adddf3+0x138>
 800047a:	bf00      	nop

0800047c <__aeabi_i2d>:
 800047c:	f090 0f00 	teq	r0, #0
 8000480:	bf04      	itt	eq
 8000482:	2100      	moveq	r1, #0
 8000484:	4770      	bxeq	lr
 8000486:	b530      	push	{r4, r5, lr}
 8000488:	f44f 6480 	mov.w	r4, #1024	; 0x400
 800048c:	f104 0432 	add.w	r4, r4, #50	; 0x32
 8000490:	f010 4500 	ands.w	r5, r0, #2147483648	; 0x80000000
 8000494:	bf48      	it	mi
 8000496:	4240      	negmi	r0, r0
 8000498:	f04f 0100 	mov.w	r1, #0
 800049c:	e73e      	b.n	800031c <__adddf3+0x138>
 800049e:	bf00      	nop

080004a0 <__aeabi_f2d>:
 80004a0:	0042      	lsls	r2, r0, #1
 80004a2:	ea4f 01e2 	mov.w	r1, r2, asr #3
 80004a6:	ea4f 0131 	mov.w	r1, r1, rrx
 80004aa:	ea4f 7002 	mov.w	r0, r2, lsl #28
 80004ae:	bf1f      	itttt	ne
 80004b0:	f012 437f 	andsne.w	r3, r2, #4278190080	; 0xff000000
 80004b4:	f093 4f7f 	teqne	r3, #4278190080	; 0xff000000
 80004b8:	f081 5160 	eorne.w	r1, r1, #939524096	; 0x38000000
 80004bc:	4770      	bxne	lr
 80004be:	f032 427f 	bics.w	r2, r2, #4278190080	; 0xff000000
 80004c2:	bf08      	it	eq
 80004c4:	4770      	bxeq	lr
 80004c6:	f093 4f7f 	teq	r3, #4278190080	; 0xff000000
 80004ca:	bf04      	itt	eq
 80004cc:	f441 2100 	orreq.w	r1, r1, #524288	; 0x80000
 80004d0:	4770      	bxeq	lr
 80004d2:	b530      	push	{r4, r5, lr}
 80004d4:	f44f 7460 	mov.w	r4, #896	; 0x380
 80004d8:	f001 4500 	and.w	r5, r1, #2147483648	; 0x80000000
 80004dc:	f021 4100 	bic.w	r1, r1, #2147483648	; 0x80000000
 80004e0:	e71c      	b.n	800031c <__adddf3+0x138>
 80004e2:	bf00      	nop

080004e4 <__aeabi_ul2d>:
 80004e4:	ea50 0201 	orrs.w	r2, r0, r1
 80004e8:	bf08      	it	eq
 80004ea:	4770      	bxeq	lr
 80004ec:	b530      	push	{r4, r5, lr}
 80004ee:	f04f 0500 	mov.w	r5, #0
 80004f2:	e00a      	b.n	800050a <__aeabi_l2d+0x16>

080004f4 <__aeabi_l2d>:
 80004f4:	ea50 0201 	orrs.w	r2, r0, r1
 80004f8:	bf08      	it	eq
 80004fa:	4770      	bxeq	lr
 80004fc:	b530      	push	{r4, r5, lr}
 80004fe:	f011 4500 	ands.w	r5, r1, #2147483648	; 0x80000000
 8000502:	d502      	bpl.n	800050a <__aeabi_l2d+0x16>
 8000504:	4240      	negs	r0, r0
 8000506:	eb61 0141 	sbc.w	r1, r1, r1, lsl #1
 800050a:	f44f 6480 	mov.w	r4, #1024	; 0x400
 800050e:	f104 0432 	add.w	r4, r4, #50	; 0x32
 8000512:	ea5f 5c91 	movs.w	ip, r1, lsr #22
 8000516:	f43f aed8 	beq.w	80002ca <__adddf3+0xe6>
 800051a:	f04f 0203 	mov.w	r2, #3
 800051e:	ea5f 0cdc 	movs.w	ip, ip, lsr #3
 8000522:	bf18      	it	ne
 8000524:	3203      	addne	r2, #3
 8000526:	ea5f 0cdc 	movs.w	ip, ip, lsr #3
 800052a:	bf18      	it	ne
 800052c:	3203      	addne	r2, #3
 800052e:	eb02 02dc 	add.w	r2, r2, ip, lsr #3
 8000532:	f1c2 0320 	rsb	r3, r2, #32
 8000536:	fa00 fc03 	lsl.w	ip, r0, r3
 800053a:	fa20 f002 	lsr.w	r0, r0, r2
 800053e:	fa01 fe03 	lsl.w	lr, r1, r3
 8000542:	ea40 000e 	orr.w	r0, r0, lr
 8000546:	fa21 f102 	lsr.w	r1, r1, r2
 800054a:	4414      	add	r4, r2
 800054c:	e6bd      	b.n	80002ca <__adddf3+0xe6>
 800054e:	bf00      	nop

08000550 <__aeabi_dmul>:
 8000550:	b570      	push	{r4, r5, r6, lr}
 8000552:	f04f 0cff 	mov.w	ip, #255	; 0xff
 8000556:	f44c 6ce0 	orr.w	ip, ip, #1792	; 0x700
 800055a:	ea1c 5411 	ands.w	r4, ip, r1, lsr #20
 800055e:	bf1d      	ittte	ne
 8000560:	ea1c 5513 	andsne.w	r5, ip, r3, lsr #20
 8000564:	ea94 0f0c 	teqne	r4, ip
 8000568:	ea95 0f0c 	teqne	r5, ip
 800056c:	f000 f8de 	bleq	800072c <__aeabi_dmul+0x1dc>
 8000570:	442c      	add	r4, r5
 8000572:	ea81 0603 	eor.w	r6, r1, r3
 8000576:	ea21 514c 	bic.w	r1, r1, ip, lsl #21
 800057a:	ea23 534c 	bic.w	r3, r3, ip, lsl #21
 800057e:	ea50 3501 	orrs.w	r5, r0, r1, lsl #12
 8000582:	bf18      	it	ne
 8000584:	ea52 3503 	orrsne.w	r5, r2, r3, lsl #12
 8000588:	f441 1180 	orr.w	r1, r1, #1048576	; 0x100000
 800058c:	f443 1380 	orr.w	r3, r3, #1048576	; 0x100000
 8000590:	d038      	beq.n	8000604 <__aeabi_dmul+0xb4>
 8000592:	fba0 ce02 	umull	ip, lr, r0, r2
 8000596:	f04f 0500 	mov.w	r5, #0
 800059a:	fbe1 e502 	umlal	lr, r5, r1, r2
 800059e:	f006 4200 	and.w	r2, r6, #2147483648	; 0x80000000
 80005a2:	fbe0 e503 	umlal	lr, r5, r0, r3
 80005a6:	f04f 0600 	mov.w	r6, #0
 80005aa:	fbe1 5603 	umlal	r5, r6, r1, r3
 80005ae:	f09c 0f00 	teq	ip, #0
 80005b2:	bf18      	it	ne
 80005b4:	f04e 0e01 	orrne.w	lr, lr, #1
 80005b8:	f1a4 04ff 	sub.w	r4, r4, #255	; 0xff
 80005bc:	f5b6 7f00 	cmp.w	r6, #512	; 0x200
 80005c0:	f564 7440 	sbc.w	r4, r4, #768	; 0x300
 80005c4:	d204      	bcs.n	80005d0 <__aeabi_dmul+0x80>
 80005c6:	ea5f 0e4e 	movs.w	lr, lr, lsl #1
 80005ca:	416d      	adcs	r5, r5
 80005cc:	eb46 0606 	adc.w	r6, r6, r6
 80005d0:	ea42 21c6 	orr.w	r1, r2, r6, lsl #11
 80005d4:	ea41 5155 	orr.w	r1, r1, r5, lsr #21
 80005d8:	ea4f 20c5 	mov.w	r0, r5, lsl #11
 80005dc:	ea40 505e 	orr.w	r0, r0, lr, lsr #21
 80005e0:	ea4f 2ece 	mov.w	lr, lr, lsl #11
 80005e4:	f1b4 0cfd 	subs.w	ip, r4, #253	; 0xfd
 80005e8:	bf88      	it	hi
 80005ea:	f5bc 6fe0 	cmphi.w	ip, #1792	; 0x700
 80005ee:	d81e      	bhi.n	800062e <__aeabi_dmul+0xde>
 80005f0:	f1be 4f00 	cmp.w	lr, #2147483648	; 0x80000000
 80005f4:	bf08      	it	eq
 80005f6:	ea5f 0e50 	movseq.w	lr, r0, lsr #1
 80005fa:	f150 0000 	adcs.w	r0, r0, #0
 80005fe:	eb41 5104 	adc.w	r1, r1, r4, lsl #20
 8000602:	bd70      	pop	{r4, r5, r6, pc}
 8000604:	f006 4600 	and.w	r6, r6, #2147483648	; 0x80000000
 8000608:	ea46 0101 	orr.w	r1, r6, r1
 800060c:	ea40 0002 	orr.w	r0, r0, r2
 8000610:	ea81 0103 	eor.w	r1, r1, r3
 8000614:	ebb4 045c 	subs.w	r4, r4, ip, lsr #1
 8000618:	bfc2      	ittt	gt
 800061a:	ebd4 050c 	rsbsgt	r5, r4, ip
 800061e:	ea41 5104 	orrgt.w	r1, r1, r4, lsl #20
 8000622:	bd70      	popgt	{r4, r5, r6, pc}
 8000624:	f441 1180 	orr.w	r1, r1, #1048576	; 0x100000
 8000628:	f04f 0e00 	mov.w	lr, #0
 800062c:	3c01      	subs	r4, #1
 800062e:	f300 80ab 	bgt.w	8000788 <__aeabi_dmul+0x238>
 8000632:	f114 0f36 	cmn.w	r4, #54	; 0x36
 8000636:	bfde      	ittt	le
 8000638:	2000      	movle	r0, #0
 800063a:	f001 4100 	andle.w	r1, r1, #2147483648	; 0x80000000
 800063e:	bd70      	pople	{r4, r5, r6, pc}
 8000640:	f1c4 0400 	rsb	r4, r4, #0
 8000644:	3c20      	subs	r4, #32
 8000646:	da35      	bge.n	80006b4 <__aeabi_dmul+0x164>
 8000648:	340c      	adds	r4, #12
 800064a:	dc1b      	bgt.n	8000684 <__aeabi_dmul+0x134>
 800064c:	f104 0414 	add.w	r4, r4, #20
 8000650:	f1c4 0520 	rsb	r5, r4, #32
 8000654:	fa00 f305 	lsl.w	r3, r0, r5
 8000658:	fa20 f004 	lsr.w	r0, r0, r4
 800065c:	fa01 f205 	lsl.w	r2, r1, r5
 8000660:	ea40 0002 	orr.w	r0, r0, r2
 8000664:	f001 4200 	and.w	r2, r1, #2147483648	; 0x80000000
 8000668:	f021 4100 	bic.w	r1, r1, #2147483648	; 0x80000000
 800066c:	eb10 70d3 	adds.w	r0, r0, r3, lsr #31
 8000670:	fa21 f604 	lsr.w	r6, r1, r4
 8000674:	eb42 0106 	adc.w	r1, r2, r6
 8000678:	ea5e 0e43 	orrs.w	lr, lr, r3, lsl #1
 800067c:	bf08      	it	eq
 800067e:	ea20 70d3 	biceq.w	r0, r0, r3, lsr #31
 8000682:	bd70      	pop	{r4, r5, r6, pc}
 8000684:	f1c4 040c 	rsb	r4, r4, #12
 8000688:	f1c4 0520 	rsb	r5, r4, #32
 800068c:	fa00 f304 	lsl.w	r3, r0, r4
 8000690:	fa20 f005 	lsr.w	r0, r0, r5
 8000694:	fa01 f204 	lsl.w	r2, r1, r4
 8000698:	ea40 0002 	orr.w	r0, r0, r2
 800069c:	f001 4100 	and.w	r1, r1, #2147483648	; 0x80000000
 80006a0:	eb10 70d3 	adds.w	r0, r0, r3, lsr #31
 80006a4:	f141 0100 	adc.w	r1, r1, #0
 80006a8:	ea5e 0e43 	orrs.w	lr, lr, r3, lsl #1
 80006ac:	bf08      	it	eq
 80006ae:	ea20 70d3 	biceq.w	r0, r0, r3, lsr #31
 80006b2:	bd70      	pop	{r4, r5, r6, pc}
 80006b4:	f1c4 0520 	rsb	r5, r4, #32
 80006b8:	fa00 f205 	lsl.w	r2, r0, r5
 80006bc:	ea4e 0e02 	orr.w	lr, lr, r2
 80006c0:	fa20 f304 	lsr.w	r3, r0, r4
 80006c4:	fa01 f205 	lsl.w	r2, r1, r5
 80006c8:	ea43 0302 	orr.w	r3, r3, r2
 80006cc:	fa21 f004 	lsr.w	r0, r1, r4
 80006d0:	f001 4100 	and.w	r1, r1, #2147483648	; 0x80000000
 80006d4:	fa21 f204 	lsr.w	r2, r1, r4
 80006d8:	ea20 0002 	bic.w	r0, r0, r2
 80006dc:	eb00 70d3 	add.w	r0, r0, r3, lsr #31
 80006e0:	ea5e 0e43 	orrs.w	lr, lr, r3, lsl #1
 80006e4:	bf08      	it	eq
 80006e6:	ea20 70d3 	biceq.w	r0, r0, r3, lsr #31
 80006ea:	bd70      	pop	{r4, r5, r6, pc}
 80006ec:	f094 0f00 	teq	r4, #0
 80006f0:	d10f      	bne.n	8000712 <__aeabi_dmul+0x1c2>
 80006f2:	f001 4600 	and.w	r6, r1, #2147483648	; 0x80000000
 80006f6:	0040      	lsls	r0, r0, #1
 80006f8:	eb41 0101 	adc.w	r1, r1, r1
 80006fc:	f411 1f80 	tst.w	r1, #1048576	; 0x100000
 8000700:	bf08      	it	eq
 8000702:	3c01      	subeq	r4, #1
 8000704:	d0f7      	beq.n	80006f6 <__aeabi_dmul+0x1a6>
 8000706:	ea41 0106 	orr.w	r1, r1, r6
 800070a:	f095 0f00 	teq	r5, #0
 800070e:	bf18      	it	ne
 8000710:	4770      	bxne	lr
 8000712:	f003 4600 	and.w	r6, r3, #2147483648	; 0x80000000
 8000716:	0052      	lsls	r2, r2, #1
 8000718:	eb43 0303 	adc.w	r3, r3, r3
 800071c:	f413 1f80 	tst.w	r3, #1048576	; 0x100000
 8000720:	bf08      	it	eq
 8000722:	3d01      	subeq	r5, #1
 8000724:	d0f7      	beq.n	8000716 <__aeabi_dmul+0x1c6>
 8000726:	ea43 0306 	orr.w	r3, r3, r6
 800072a:	4770      	bx	lr
 800072c:	ea94 0f0c 	teq	r4, ip
 8000730:	ea0c 5513 	and.w	r5, ip, r3, lsr #20
 8000734:	bf18      	it	ne
 8000736:	ea95 0f0c 	teqne	r5, ip
 800073a:	d00c      	beq.n	8000756 <__aeabi_dmul+0x206>
 800073c:	ea50 0641 	orrs.w	r6, r0, r1, lsl #1
 8000740:	bf18      	it	ne
 8000742:	ea52 0643 	orrsne.w	r6, r2, r3, lsl #1
 8000746:	d1d1      	bne.n	80006ec <__aeabi_dmul+0x19c>
 8000748:	ea81 0103 	eor.w	r1, r1, r3
 800074c:	f001 4100 	and.w	r1, r1, #2147483648	; 0x80000000
 8000750:	f04f 0000 	mov.w	r0, #0
 8000754:	bd70      	pop	{r4, r5, r6, pc}
 8000756:	ea50 0641 	orrs.w	r6, r0, r1, lsl #1
 800075a:	bf06      	itte	eq
 800075c:	4610      	moveq	r0, r2
 800075e:	4619      	moveq	r1, r3
 8000760:	ea52 0643 	orrsne.w	r6, r2, r3, lsl #1
 8000764:	d019      	beq.n	800079a <__aeabi_dmul+0x24a>
 8000766:	ea94 0f0c 	teq	r4, ip
 800076a:	d102      	bne.n	8000772 <__aeabi_dmul+0x222>
 800076c:	ea50 3601 	orrs.w	r6, r0, r1, lsl #12
 8000770:	d113      	bne.n	800079a <__aeabi_dmul+0x24a>
 8000772:	ea95 0f0c 	teq	r5, ip
 8000776:	d105      	bne.n	8000784 <__aeabi_dmul+0x234>
 8000778:	ea52 3603 	orrs.w	r6, r2, r3, lsl #12
 800077c:	bf1c      	itt	ne
 800077e:	4610      	movne	r0, r2
 8000780:	4619      	movne	r1, r3
 8000782:	d10a      	bne.n	800079a <__aeabi_dmul+0x24a>
 8000784:	ea81 0103 	eor.w	r1, r1, r3
 8000788:	f001 4100 	and.w	r1, r1, #2147483648	; 0x80000000
 800078c:	f041 41fe 	orr.w	r1, r1, #2130706432	; 0x7f000000
 8000790:	f441 0170 	orr.w	r1, r1, #15728640	; 0xf00000
 8000794:	f04f 0000 	mov.w	r0, #0
 8000798:	bd70      	pop	{r4, r5, r6, pc}
 800079a:	f041 41fe 	orr.w	r1, r1, #2130706432	; 0x7f000000
 800079e:	f441 0178 	orr.w	r1, r1, #16252928	; 0xf80000
 80007a2:	bd70      	pop	{r4, r5, r6, pc}

080007a4 <__aeabi_ddiv>:
 80007a4:	b570      	push	{r4, r5, r6, lr}
 80007a6:	f04f 0cff 	mov.w	ip, #255	; 0xff
 80007aa:	f44c 6ce0 	orr.w	ip, ip, #1792	; 0x700
 80007ae:	ea1c 5411 	ands.w	r4, ip, r1, lsr #20
 80007b2:	bf1d      	ittte	ne
 80007b4:	ea1c 5513 	andsne.w	r5, ip, r3, lsr #20
 80007b8:	ea94 0f0c 	teqne	r4, ip
 80007bc:	ea95 0f0c 	teqne	r5, ip
 80007c0:	f000 f8a7 	bleq	8000912 <__aeabi_ddiv+0x16e>
 80007c4:	eba4 0405 	sub.w	r4, r4, r5
 80007c8:	ea81 0e03 	eor.w	lr, r1, r3
 80007cc:	ea52 3503 	orrs.w	r5, r2, r3, lsl #12
 80007d0:	ea4f 3101 	mov.w	r1, r1, lsl #12
 80007d4:	f000 8088 	beq.w	80008e8 <__aeabi_ddiv+0x144>
 80007d8:	ea4f 3303 	mov.w	r3, r3, lsl #12
 80007dc:	f04f 5580 	mov.w	r5, #268435456	; 0x10000000
 80007e0:	ea45 1313 	orr.w	r3, r5, r3, lsr #4
 80007e4:	ea43 6312 	orr.w	r3, r3, r2, lsr #24
 80007e8:	ea4f 2202 	mov.w	r2, r2, lsl #8
 80007ec:	ea45 1511 	orr.w	r5, r5, r1, lsr #4
 80007f0:	ea45 6510 	orr.w	r5, r5, r0, lsr #24
 80007f4:	ea4f 2600 	mov.w	r6, r0, lsl #8
 80007f8:	f00e 4100 	and.w	r1, lr, #2147483648	; 0x80000000
 80007fc:	429d      	cmp	r5, r3
 80007fe:	bf08      	it	eq
 8000800:	4296      	cmpeq	r6, r2
 8000802:	f144 04fd 	adc.w	r4, r4, #253	; 0xfd
 8000806:	f504 7440 	add.w	r4, r4, #768	; 0x300
 800080a:	d202      	bcs.n	8000812 <__aeabi_ddiv+0x6e>
 800080c:	085b      	lsrs	r3, r3, #1
 800080e:	ea4f 0232 	mov.w	r2, r2, rrx
 8000812:	1ab6      	subs	r6, r6, r2
 8000814:	eb65 0503 	sbc.w	r5, r5, r3
 8000818:	085b      	lsrs	r3, r3, #1
 800081a:	ea4f 0232 	mov.w	r2, r2, rrx
 800081e:	f44f 1080 	mov.w	r0, #1048576	; 0x100000
 8000822:	f44f 2c00 	mov.w	ip, #524288	; 0x80000
 8000826:	ebb6 0e02 	subs.w	lr, r6, r2
 800082a:	eb75 0e03 	sbcs.w	lr, r5, r3
 800082e:	bf22      	ittt	cs
 8000830:	1ab6      	subcs	r6, r6, r2
 8000832:	4675      	movcs	r5, lr
 8000834:	ea40 000c 	orrcs.w	r0, r0, ip
 8000838:	085b      	lsrs	r3, r3, #1
 800083a:	ea4f 0232 	mov.w	r2, r2, rrx
 800083e:	ebb6 0e02 	subs.w	lr, r6, r2
 8000842:	eb75 0e03 	sbcs.w	lr, r5, r3
 8000846:	bf22      	ittt	cs
 8000848:	1ab6      	subcs	r6, r6, r2
 800084a:	4675      	movcs	r5, lr
 800084c:	ea40 005c 	orrcs.w	r0, r0, ip, lsr #1
 8000850:	085b      	lsrs	r3, r3, #1
 8000852:	ea4f 0232 	mov.w	r2, r2, rrx
 8000856:	ebb6 0e02 	subs.w	lr, r6, r2
 800085a:	eb75 0e03 	sbcs.w	lr, r5, r3
 800085e:	bf22      	ittt	cs
 8000860:	1ab6      	subcs	r6, r6, r2
 8000862:	4675      	movcs	r5, lr
 8000864:	ea40 009c 	orrcs.w	r0, r0, ip, lsr #2
 8000868:	085b      	lsrs	r3, r3, #1
 800086a:	ea4f 0232 	mov.w	r2, r2, rrx
 800086e:	ebb6 0e02 	subs.w	lr, r6, r2
 8000872:	eb75 0e03 	sbcs.w	lr, r5, r3
 8000876:	bf22      	ittt	cs
 8000878:	1ab6      	subcs	r6, r6, r2
 800087a:	4675      	movcs	r5, lr
 800087c:	ea40 00dc 	orrcs.w	r0, r0, ip, lsr #3
 8000880:	ea55 0e06 	orrs.w	lr, r5, r6
 8000884:	d018      	beq.n	80008b8 <__aeabi_ddiv+0x114>
 8000886:	ea4f 1505 	mov.w	r5, r5, lsl #4
 800088a:	ea45 7516 	orr.w	r5, r5, r6, lsr #28
 800088e:	ea4f 1606 	mov.w	r6, r6, lsl #4
 8000892:	ea4f 03c3 	mov.w	r3, r3, lsl #3
 8000896:	ea43 7352 	orr.w	r3, r3, r2, lsr #29
 800089a:	ea4f 02c2 	mov.w	r2, r2, lsl #3
 800089e:	ea5f 1c1c 	movs.w	ip, ip, lsr #4
 80008a2:	d1c0      	bne.n	8000826 <__aeabi_ddiv+0x82>
 80008a4:	f411 1f80 	tst.w	r1, #1048576	; 0x100000
 80008a8:	d10b      	bne.n	80008c2 <__aeabi_ddiv+0x11e>
 80008aa:	ea41 0100 	orr.w	r1, r1, r0
 80008ae:	f04f 0000 	mov.w	r0, #0
 80008b2:	f04f 4c00 	mov.w	ip, #2147483648	; 0x80000000
 80008b6:	e7b6      	b.n	8000826 <__aeabi_ddiv+0x82>
 80008b8:	f411 1f80 	tst.w	r1, #1048576	; 0x100000
 80008bc:	bf04      	itt	eq
 80008be:	4301      	orreq	r1, r0
 80008c0:	2000      	moveq	r0, #0
 80008c2:	f1b4 0cfd 	subs.w	ip, r4, #253	; 0xfd
 80008c6:	bf88      	it	hi
 80008c8:	f5bc 6fe0 	cmphi.w	ip, #1792	; 0x700
 80008cc:	f63f aeaf 	bhi.w	800062e <__aeabi_dmul+0xde>
 80008d0:	ebb5 0c03 	subs.w	ip, r5, r3
 80008d4:	bf04      	itt	eq
 80008d6:	ebb6 0c02 	subseq.w	ip, r6, r2
 80008da:	ea5f 0c50 	movseq.w	ip, r0, lsr #1
 80008de:	f150 0000 	adcs.w	r0, r0, #0
 80008e2:	eb41 5104 	adc.w	r1, r1, r4, lsl #20
 80008e6:	bd70      	pop	{r4, r5, r6, pc}
 80008e8:	f00e 4e00 	and.w	lr, lr, #2147483648	; 0x80000000
 80008ec:	ea4e 3111 	orr.w	r1, lr, r1, lsr #12
 80008f0:	eb14 045c 	adds.w	r4, r4, ip, lsr #1
 80008f4:	bfc2      	ittt	gt
 80008f6:	ebd4 050c 	rsbsgt	r5, r4, ip
 80008fa:	ea41 5104 	orrgt.w	r1, r1, r4, lsl #20
 80008fe:	bd70      	popgt	{r4, r5, r6, pc}
 8000900:	f441 1180 	orr.w	r1, r1, #1048576	; 0x100000
 8000904:	f04f 0e00 	mov.w	lr, #0
 8000908:	3c01      	subs	r4, #1
 800090a:	e690      	b.n	800062e <__aeabi_dmul+0xde>
 800090c:	ea45 0e06 	orr.w	lr, r5, r6
 8000910:	e68d      	b.n	800062e <__aeabi_dmul+0xde>
 8000912:	ea0c 5513 	and.w	r5, ip, r3, lsr #20
 8000916:	ea94 0f0c 	teq	r4, ip
 800091a:	bf08      	it	eq
 800091c:	ea95 0f0c 	teqeq	r5, ip
 8000920:	f43f af3b 	beq.w	800079a <__aeabi_dmul+0x24a>
 8000924:	ea94 0f0c 	teq	r4, ip
 8000928:	d10a      	bne.n	8000940 <__aeabi_ddiv+0x19c>
 800092a:	ea50 3401 	orrs.w	r4, r0, r1, lsl #12
 800092e:	f47f af34 	bne.w	800079a <__aeabi_dmul+0x24a>
 8000932:	ea95 0f0c 	teq	r5, ip
 8000936:	f47f af25 	bne.w	8000784 <__aeabi_dmul+0x234>
 800093a:	4610      	mov	r0, r2
 800093c:	4619      	mov	r1, r3
 800093e:	e72c      	b.n	800079a <__aeabi_dmul+0x24a>
 8000940:	ea95 0f0c 	teq	r5, ip
 8000944:	d106      	bne.n	8000954 <__aeabi_ddiv+0x1b0>
 8000946:	ea52 3503 	orrs.w	r5, r2, r3, lsl #12
 800094a:	f43f aefd 	beq.w	8000748 <__aeabi_dmul+0x1f8>
 800094e:	4610      	mov	r0, r2
 8000950:	4619      	mov	r1, r3
 8000952:	e722      	b.n	800079a <__aeabi_dmul+0x24a>
 8000954:	ea50 0641 	orrs.w	r6, r0, r1, lsl #1
 8000958:	bf18      	it	ne
 800095a:	ea52 0643 	orrsne.w	r6, r2, r3, lsl #1
 800095e:	f47f aec5 	bne.w	80006ec <__aeabi_dmul+0x19c>
 8000962:	ea50 0441 	orrs.w	r4, r0, r1, lsl #1
 8000966:	f47f af0d 	bne.w	8000784 <__aeabi_dmul+0x234>
 800096a:	ea52 0543 	orrs.w	r5, r2, r3, lsl #1
 800096e:	f47f aeeb 	bne.w	8000748 <__aeabi_dmul+0x1f8>
 8000972:	e712      	b.n	800079a <__aeabi_dmul+0x24a>

08000974 <__gedf2>:
 8000974:	f04f 3cff 	mov.w	ip, #4294967295
 8000978:	e006      	b.n	8000988 <__cmpdf2+0x4>
 800097a:	bf00      	nop

0800097c <__ledf2>:
 800097c:	f04f 0c01 	mov.w	ip, #1
 8000980:	e002      	b.n	8000988 <__cmpdf2+0x4>
 8000982:	bf00      	nop

08000984 <__cmpdf2>:
 8000984:	f04f 0c01 	mov.w	ip, #1
 8000988:	f84d cd04 	str.w	ip, [sp, #-4]!
 800098c:	ea4f 0c41 	mov.w	ip, r1, lsl #1
 8000990:	ea7f 5c6c 	mvns.w	ip, ip, asr #21
 8000994:	ea4f 0c43 	mov.w	ip, r3, lsl #1
 8000998:	bf18      	it	ne
 800099a:	ea7f 5c6c 	mvnsne.w	ip, ip, asr #21
 800099e:	d01b      	beq.n	80009d8 <__cmpdf2+0x54>
 80009a0:	b001      	add	sp, #4
 80009a2:	ea50 0c41 	orrs.w	ip, r0, r1, lsl #1
 80009a6:	bf0c      	ite	eq
 80009a8:	ea52 0c43 	orrseq.w	ip, r2, r3, lsl #1
 80009ac:	ea91 0f03 	teqne	r1, r3
 80009b0:	bf02      	ittt	eq
 80009b2:	ea90 0f02 	teqeq	r0, r2
 80009b6:	2000      	moveq	r0, #0
 80009b8:	4770      	bxeq	lr
 80009ba:	f110 0f00 	cmn.w	r0, #0
 80009be:	ea91 0f03 	teq	r1, r3
 80009c2:	bf58      	it	pl
 80009c4:	4299      	cmppl	r1, r3
 80009c6:	bf08      	it	eq
 80009c8:	4290      	cmpeq	r0, r2
 80009ca:	bf2c      	ite	cs
 80009cc:	17d8      	asrcs	r0, r3, #31
 80009ce:	ea6f 70e3 	mvncc.w	r0, r3, asr #31
 80009d2:	f040 0001 	orr.w	r0, r0, #1
 80009d6:	4770      	bx	lr
 80009d8:	ea4f 0c41 	mov.w	ip, r1, lsl #1
 80009dc:	ea7f 5c6c 	mvns.w	ip, ip, asr #21
 80009e0:	d102      	bne.n	80009e8 <__cmpdf2+0x64>
 80009e2:	ea50 3c01 	orrs.w	ip, r0, r1, lsl #12
 80009e6:	d107      	bne.n	80009f8 <__cmpdf2+0x74>
 80009e8:	ea4f 0c43 	mov.w	ip, r3, lsl #1
 80009ec:	ea7f 5c6c 	mvns.w	ip, ip, asr #21
 80009f0:	d1d6      	bne.n	80009a0 <__cmpdf2+0x1c>
 80009f2:	ea52 3c03 	orrs.w	ip, r2, r3, lsl #12
 80009f6:	d0d3      	beq.n	80009a0 <__cmpdf2+0x1c>
 80009f8:	f85d 0b04 	ldr.w	r0, [sp], #4
 80009fc:	4770      	bx	lr
 80009fe:	bf00      	nop

08000a00 <__aeabi_cdrcmple>:
 8000a00:	4684      	mov	ip, r0
 8000a02:	4610      	mov	r0, r2
 8000a04:	4662      	mov	r2, ip
 8000a06:	468c      	mov	ip, r1
 8000a08:	4619      	mov	r1, r3
 8000a0a:	4663      	mov	r3, ip
 8000a0c:	e000      	b.n	8000a10 <__aeabi_cdcmpeq>
 8000a0e:	bf00      	nop

08000a10 <__aeabi_cdcmpeq>:
 8000a10:	b501      	push	{r0, lr}
 8000a12:	f7ff ffb7 	bl	8000984 <__cmpdf2>
 8000a16:	2800      	cmp	r0, #0
 8000a18:	bf48      	it	mi
 8000a1a:	f110 0f00 	cmnmi.w	r0, #0
 8000a1e:	bd01      	pop	{r0, pc}

08000a20 <__aeabi_dcmpeq>:
 8000a20:	f84d ed08 	str.w	lr, [sp, #-8]!
 8000a24:	f7ff fff4 	bl	8000a10 <__aeabi_cdcmpeq>
 8000a28:	bf0c      	ite	eq
 8000a2a:	2001      	moveq	r0, #1
 8000a2c:	2000      	movne	r0, #0
 8000a2e:	f85d fb08 	ldr.w	pc, [sp], #8
 8000a32:	bf00      	nop

08000a34 <__aeabi_dcmplt>:
 8000a34:	f84d ed08 	str.w	lr, [sp, #-8]!
 8000a38:	f7ff ffea 	bl	8000a10 <__aeabi_cdcmpeq>
 8000a3c:	bf34      	ite	cc
 8000a3e:	2001      	movcc	r0, #1
 8000a40:	2000      	movcs	r0, #0
 8000a42:	f85d fb08 	ldr.w	pc, [sp], #8
 8000a46:	bf00      	nop

08000a48 <__aeabi_dcmple>:
 8000a48:	f84d ed08 	str.w	lr, [sp, #-8]!
 8000a4c:	f7ff ffe0 	bl	8000a10 <__aeabi_cdcmpeq>
 8000a50:	bf94      	ite	ls
 8000a52:	2001      	movls	r0, #1
 8000a54:	2000      	movhi	r0, #0
 8000a56:	f85d fb08 	ldr.w	pc, [sp], #8
 8000a5a:	bf00      	nop

08000a5c <__aeabi_dcmpge>:
 8000a5c:	f84d ed08 	str.w	lr, [sp, #-8]!
 8000a60:	f7ff ffce 	bl	8000a00 <__aeabi_cdrcmple>
 8000a64:	bf94      	ite	ls
 8000a66:	2001      	movls	r0, #1
 8000a68:	2000      	movhi	r0, #0
 8000a6a:	f85d fb08 	ldr.w	pc, [sp], #8
 8000a6e:	bf00      	nop

08000a70 <__aeabi_dcmpgt>:
 8000a70:	f84d ed08 	str.w	lr, [sp, #-8]!
 8000a74:	f7ff ffc4 	bl	8000a00 <__aeabi_cdrcmple>
 8000a78:	bf34      	ite	cc
 8000a7a:	2001      	movcc	r0, #1
 8000a7c:	2000      	movcs	r0, #0
 8000a7e:	f85d fb08 	ldr.w	pc, [sp], #8
 8000a82:	bf00      	nop

08000a84 <__aeabi_dcmpun>:
 8000a84:	ea4f 0c41 	mov.w	ip, r1, lsl #1
 8000a88:	ea7f 5c6c 	mvns.w	ip, ip, asr #21
 8000a8c:	d102      	bne.n	8000a94 <__aeabi_dcmpun+0x10>
 8000a8e:	ea50 3c01 	orrs.w	ip, r0, r1, lsl #12
 8000a92:	d10a      	bne.n	8000aaa <__aeabi_dcmpun+0x26>
 8000a94:	ea4f 0c43 	mov.w	ip, r3, lsl #1
 8000a98:	ea7f 5c6c 	mvns.w	ip, ip, asr #21
 8000a9c:	d102      	bne.n	8000aa4 <__aeabi_dcmpun+0x20>
 8000a9e:	ea52 3c03 	orrs.w	ip, r2, r3, lsl #12
 8000aa2:	d102      	bne.n	8000aaa <__aeabi_dcmpun+0x26>
 8000aa4:	f04f 0000 	mov.w	r0, #0
 8000aa8:	4770      	bx	lr
 8000aaa:	f04f 0001 	mov.w	r0, #1
 8000aae:	4770      	bx	lr

08000ab0 <__aeabi_d2iz>:
 8000ab0:	ea4f 0241 	mov.w	r2, r1, lsl #1
 8000ab4:	f512 1200 	adds.w	r2, r2, #2097152	; 0x200000
 8000ab8:	d215      	bcs.n	8000ae6 <__aeabi_d2iz+0x36>
 8000aba:	d511      	bpl.n	8000ae0 <__aeabi_d2iz+0x30>
 8000abc:	f46f 7378 	mvn.w	r3, #992	; 0x3e0
 8000ac0:	ebb3 5262 	subs.w	r2, r3, r2, asr #21
 8000ac4:	d912      	bls.n	8000aec <__aeabi_d2iz+0x3c>
 8000ac6:	ea4f 23c1 	mov.w	r3, r1, lsl #11
 8000aca:	f043 4300 	orr.w	r3, r3, #2147483648	; 0x80000000
 8000ace:	ea43 5350 	orr.w	r3, r3, r0, lsr #21
 8000ad2:	f011 4f00 	tst.w	r1, #2147483648	; 0x80000000
 8000ad6:	fa23 f002 	lsr.w	r0, r3, r2
 8000ada:	bf18      	it	ne
 8000adc:	4240      	negne	r0, r0
 8000ade:	4770      	bx	lr
 8000ae0:	f04f 0000 	mov.w	r0, #0
 8000ae4:	4770      	bx	lr
 8000ae6:	ea50 3001 	orrs.w	r0, r0, r1, lsl #12
 8000aea:	d105      	bne.n	8000af8 <__aeabi_d2iz+0x48>
 8000aec:	f011 4000 	ands.w	r0, r1, #2147483648	; 0x80000000
 8000af0:	bf08      	it	eq
 8000af2:	f06f 4000 	mvneq.w	r0, #2147483648	; 0x80000000
 8000af6:	4770      	bx	lr
 8000af8:	f04f 0000 	mov.w	r0, #0
 8000afc:	4770      	bx	lr
 8000afe:	bf00      	nop

08000b00 <__aeabi_d2f>:
 8000b00:	ea4f 0241 	mov.w	r2, r1, lsl #1
 8000b04:	f1b2 43e0 	subs.w	r3, r2, #1879048192	; 0x70000000
 8000b08:	bf24      	itt	cs
 8000b0a:	f5b3 1c00 	subscs.w	ip, r3, #2097152	; 0x200000
 8000b0e:	f1dc 5cfe 	rsbscs	ip, ip, #532676608	; 0x1fc00000
 8000b12:	d90d      	bls.n	8000b30 <__aeabi_d2f+0x30>
 8000b14:	f001 4c00 	and.w	ip, r1, #2147483648	; 0x80000000
 8000b18:	ea4f 02c0 	mov.w	r2, r0, lsl #3
 8000b1c:	ea4c 7050 	orr.w	r0, ip, r0, lsr #29
 8000b20:	f1b2 4f00 	cmp.w	r2, #2147483648	; 0x80000000
 8000b24:	eb40 0083 	adc.w	r0, r0, r3, lsl #2
 8000b28:	bf08      	it	eq
 8000b2a:	f020 0001 	biceq.w	r0, r0, #1
 8000b2e:	4770      	bx	lr
 8000b30:	f011 4f80 	tst.w	r1, #1073741824	; 0x40000000
 8000b34:	d121      	bne.n	8000b7a <__aeabi_d2f+0x7a>
 8000b36:	f113 7238 	adds.w	r2, r3, #48234496	; 0x2e00000
 8000b3a:	bfbc      	itt	lt
 8000b3c:	f001 4000 	andlt.w	r0, r1, #2147483648	; 0x80000000
 8000b40:	4770      	bxlt	lr
 8000b42:	f441 1180 	orr.w	r1, r1, #1048576	; 0x100000
 8000b46:	ea4f 5252 	mov.w	r2, r2, lsr #21
 8000b4a:	f1c2 0218 	rsb	r2, r2, #24
 8000b4e:	f1c2 0c20 	rsb	ip, r2, #32
 8000b52:	fa10 f30c 	lsls.w	r3, r0, ip
 8000b56:	fa20 f002 	lsr.w	r0, r0, r2
 8000b5a:	bf18      	it	ne
 8000b5c:	f040 0001 	orrne.w	r0, r0, #1
 8000b60:	ea4f 23c1 	mov.w	r3, r1, lsl #11
 8000b64:	ea4f 23d3 	mov.w	r3, r3, lsr #11
 8000b68:	fa03 fc0c 	lsl.w	ip, r3, ip
 8000b6c:	ea40 000c 	orr.w	r0, r0, ip
 8000b70:	fa23 f302 	lsr.w	r3, r3, r2
 8000b74:	ea4f 0343 	mov.w	r3, r3, lsl #1
 8000b78:	e7cc      	b.n	8000b14 <__aeabi_d2f+0x14>
 8000b7a:	ea7f 5362 	mvns.w	r3, r2, asr #21
 8000b7e:	d107      	bne.n	8000b90 <__aeabi_d2f+0x90>
 8000b80:	ea50 3301 	orrs.w	r3, r0, r1, lsl #12
 8000b84:	bf1e      	ittt	ne
 8000b86:	f04f 40fe 	movne.w	r0, #2130706432	; 0x7f000000
 8000b8a:	f440 0040 	orrne.w	r0, r0, #12582912	; 0xc00000
 8000b8e:	4770      	bxne	lr
 8000b90:	f001 4000 	and.w	r0, r1, #2147483648	; 0x80000000
 8000b94:	f040 40fe 	orr.w	r0, r0, #2130706432	; 0x7f000000
 8000b98:	f440 0000 	orr.w	r0, r0, #8388608	; 0x800000
 8000b9c:	4770      	bx	lr
 8000b9e:	bf00      	nop

08000ba0 <__aeabi_uldivmod>:
 8000ba0:	b953      	cbnz	r3, 8000bb8 <__aeabi_uldivmod+0x18>
 8000ba2:	b94a      	cbnz	r2, 8000bb8 <__aeabi_uldivmod+0x18>
 8000ba4:	2900      	cmp	r1, #0
 8000ba6:	bf08      	it	eq
 8000ba8:	2800      	cmpeq	r0, #0
 8000baa:	bf1c      	itt	ne
 8000bac:	f04f 31ff 	movne.w	r1, #4294967295
 8000bb0:	f04f 30ff 	movne.w	r0, #4294967295
 8000bb4:	f000 b972 	b.w	8000e9c <__aeabi_idiv0>
 8000bb8:	f1ad 0c08 	sub.w	ip, sp, #8
 8000bbc:	e96d ce04 	strd	ip, lr, [sp, #-16]!
 8000bc0:	f000 f806 	bl	8000bd0 <__udivmoddi4>
 8000bc4:	f8dd e004 	ldr.w	lr, [sp, #4]
 8000bc8:	e9dd 2302 	ldrd	r2, r3, [sp, #8]
 8000bcc:	b004      	add	sp, #16
 8000bce:	4770      	bx	lr

08000bd0 <__udivmoddi4>:
 8000bd0:	e92d 47f0 	stmdb	sp!, {r4, r5, r6, r7, r8, r9, sl, lr}
 8000bd4:	9e08      	ldr	r6, [sp, #32]
 8000bd6:	4604      	mov	r4, r0
 8000bd8:	4688      	mov	r8, r1
 8000bda:	2b00      	cmp	r3, #0
 8000bdc:	d14b      	bne.n	8000c76 <__udivmoddi4+0xa6>
 8000bde:	428a      	cmp	r2, r1
 8000be0:	4615      	mov	r5, r2
 8000be2:	d967      	bls.n	8000cb4 <__udivmoddi4+0xe4>
 8000be4:	fab2 f282 	clz	r2, r2
 8000be8:	b14a      	cbz	r2, 8000bfe <__udivmoddi4+0x2e>
 8000bea:	f1c2 0720 	rsb	r7, r2, #32
 8000bee:	fa01 f302 	lsl.w	r3, r1, r2
 8000bf2:	fa20 f707 	lsr.w	r7, r0, r7
 8000bf6:	4095      	lsls	r5, r2
 8000bf8:	ea47 0803 	orr.w	r8, r7, r3
 8000bfc:	4094      	lsls	r4, r2
 8000bfe:	ea4f 4e15 	mov.w	lr, r5, lsr #16
 8000c02:	0c23      	lsrs	r3, r4, #16
 8000c04:	fbb8 f7fe 	udiv	r7, r8, lr
 8000c08:	fa1f fc85 	uxth.w	ip, r5
 8000c0c:	fb0e 8817 	mls	r8, lr, r7, r8
 8000c10:	ea43 4308 	orr.w	r3, r3, r8, lsl #16
 8000c14:	fb07 f10c 	mul.w	r1, r7, ip
 8000c18:	4299      	cmp	r1, r3
 8000c1a:	d909      	bls.n	8000c30 <__udivmoddi4+0x60>
 8000c1c:	18eb      	adds	r3, r5, r3
 8000c1e:	f107 30ff 	add.w	r0, r7, #4294967295
 8000c22:	f080 811b 	bcs.w	8000e5c <__udivmoddi4+0x28c>
 8000c26:	4299      	cmp	r1, r3
 8000c28:	f240 8118 	bls.w	8000e5c <__udivmoddi4+0x28c>
 8000c2c:	3f02      	subs	r7, #2
 8000c2e:	442b      	add	r3, r5
 8000c30:	1a5b      	subs	r3, r3, r1
 8000c32:	b2a4      	uxth	r4, r4
 8000c34:	fbb3 f0fe 	udiv	r0, r3, lr
 8000c38:	fb0e 3310 	mls	r3, lr, r0, r3
 8000c3c:	ea44 4403 	orr.w	r4, r4, r3, lsl #16
 8000c40:	fb00 fc0c 	mul.w	ip, r0, ip
 8000c44:	45a4      	cmp	ip, r4
 8000c46:	d909      	bls.n	8000c5c <__udivmoddi4+0x8c>
 8000c48:	192c      	adds	r4, r5, r4
 8000c4a:	f100 33ff 	add.w	r3, r0, #4294967295
 8000c4e:	f080 8107 	bcs.w	8000e60 <__udivmoddi4+0x290>
 8000c52:	45a4      	cmp	ip, r4
 8000c54:	f240 8104 	bls.w	8000e60 <__udivmoddi4+0x290>
 8000c58:	3802      	subs	r0, #2
 8000c5a:	442c      	add	r4, r5
 8000c5c:	ea40 4007 	orr.w	r0, r0, r7, lsl #16
 8000c60:	eba4 040c 	sub.w	r4, r4, ip
 8000c64:	2700      	movs	r7, #0
 8000c66:	b11e      	cbz	r6, 8000c70 <__udivmoddi4+0xa0>
 8000c68:	40d4      	lsrs	r4, r2
 8000c6a:	2300      	movs	r3, #0
 8000c6c:	e9c6 4300 	strd	r4, r3, [r6]
 8000c70:	4639      	mov	r1, r7
 8000c72:	e8bd 87f0 	ldmia.w	sp!, {r4, r5, r6, r7, r8, r9, sl, pc}
 8000c76:	428b      	cmp	r3, r1
 8000c78:	d909      	bls.n	8000c8e <__udivmoddi4+0xbe>
 8000c7a:	2e00      	cmp	r6, #0
 8000c7c:	f000 80eb 	beq.w	8000e56 <__udivmoddi4+0x286>
 8000c80:	2700      	movs	r7, #0
 8000c82:	e9c6 0100 	strd	r0, r1, [r6]
 8000c86:	4638      	mov	r0, r7
 8000c88:	4639      	mov	r1, r7
 8000c8a:	e8bd 87f0 	ldmia.w	sp!, {r4, r5, r6, r7, r8, r9, sl, pc}
 8000c8e:	fab3 f783 	clz	r7, r3
 8000c92:	2f00      	cmp	r7, #0
 8000c94:	d147      	bne.n	8000d26 <__udivmoddi4+0x156>
 8000c96:	428b      	cmp	r3, r1
 8000c98:	d302      	bcc.n	8000ca0 <__udivmoddi4+0xd0>
 8000c9a:	4282      	cmp	r2, r0
 8000c9c:	f200 80fa 	bhi.w	8000e94 <__udivmoddi4+0x2c4>
 8000ca0:	1a84      	subs	r4, r0, r2
 8000ca2:	eb61 0303 	sbc.w	r3, r1, r3
 8000ca6:	2001      	movs	r0, #1
 8000ca8:	4698      	mov	r8, r3
 8000caa:	2e00      	cmp	r6, #0
 8000cac:	d0e0      	beq.n	8000c70 <__udivmoddi4+0xa0>
 8000cae:	e9c6 4800 	strd	r4, r8, [r6]
 8000cb2:	e7dd      	b.n	8000c70 <__udivmoddi4+0xa0>
 8000cb4:	b902      	cbnz	r2, 8000cb8 <__udivmoddi4+0xe8>
 8000cb6:	deff      	udf	#255	; 0xff
 8000cb8:	fab2 f282 	clz	r2, r2
 8000cbc:	2a00      	cmp	r2, #0
 8000cbe:	f040 808f 	bne.w	8000de0 <__udivmoddi4+0x210>
 8000cc2:	1b49      	subs	r1, r1, r5
 8000cc4:	ea4f 4e15 	mov.w	lr, r5, lsr #16
 8000cc8:	fa1f f885 	uxth.w	r8, r5
 8000ccc:	2701      	movs	r7, #1
 8000cce:	fbb1 fcfe 	udiv	ip, r1, lr
 8000cd2:	0c23      	lsrs	r3, r4, #16
 8000cd4:	fb0e 111c 	mls	r1, lr, ip, r1
 8000cd8:	ea43 4301 	orr.w	r3, r3, r1, lsl #16
 8000cdc:	fb08 f10c 	mul.w	r1, r8, ip
 8000ce0:	4299      	cmp	r1, r3
 8000ce2:	d907      	bls.n	8000cf4 <__udivmoddi4+0x124>
 8000ce4:	18eb      	adds	r3, r5, r3
 8000ce6:	f10c 30ff 	add.w	r0, ip, #4294967295
 8000cea:	d202      	bcs.n	8000cf2 <__udivmoddi4+0x122>
 8000cec:	4299      	cmp	r1, r3
 8000cee:	f200 80cd 	bhi.w	8000e8c <__udivmoddi4+0x2bc>
 8000cf2:	4684      	mov	ip, r0
 8000cf4:	1a59      	subs	r1, r3, r1
 8000cf6:	b2a3      	uxth	r3, r4
 8000cf8:	fbb1 f0fe 	udiv	r0, r1, lr
 8000cfc:	fb0e 1410 	mls	r4, lr, r0, r1
 8000d00:	ea43 4404 	orr.w	r4, r3, r4, lsl #16
 8000d04:	fb08 f800 	mul.w	r8, r8, r0
 8000d08:	45a0      	cmp	r8, r4
 8000d0a:	d907      	bls.n	8000d1c <__udivmoddi4+0x14c>
 8000d0c:	192c      	adds	r4, r5, r4
 8000d0e:	f100 33ff 	add.w	r3, r0, #4294967295
 8000d12:	d202      	bcs.n	8000d1a <__udivmoddi4+0x14a>
 8000d14:	45a0      	cmp	r8, r4
 8000d16:	f200 80b6 	bhi.w	8000e86 <__udivmoddi4+0x2b6>
 8000d1a:	4618      	mov	r0, r3
 8000d1c:	eba4 0408 	sub.w	r4, r4, r8
 8000d20:	ea40 400c 	orr.w	r0, r0, ip, lsl #16
 8000d24:	e79f      	b.n	8000c66 <__udivmoddi4+0x96>
 8000d26:	f1c7 0c20 	rsb	ip, r7, #32
 8000d2a:	40bb      	lsls	r3, r7
 8000d2c:	fa22 fe0c 	lsr.w	lr, r2, ip
 8000d30:	ea4e 0e03 	orr.w	lr, lr, r3
 8000d34:	fa01 f407 	lsl.w	r4, r1, r7
 8000d38:	fa20 f50c 	lsr.w	r5, r0, ip
 8000d3c:	fa21 f30c 	lsr.w	r3, r1, ip
 8000d40:	ea4f 481e 	mov.w	r8, lr, lsr #16
 8000d44:	4325      	orrs	r5, r4
 8000d46:	fbb3 f9f8 	udiv	r9, r3, r8
 8000d4a:	0c2c      	lsrs	r4, r5, #16
 8000d4c:	fb08 3319 	mls	r3, r8, r9, r3
 8000d50:	fa1f fa8e 	uxth.w	sl, lr
 8000d54:	ea44 4303 	orr.w	r3, r4, r3, lsl #16
 8000d58:	fb09 f40a 	mul.w	r4, r9, sl
 8000d5c:	429c      	cmp	r4, r3
 8000d5e:	fa02 f207 	lsl.w	r2, r2, r7
 8000d62:	fa00 f107 	lsl.w	r1, r0, r7
 8000d66:	d90b      	bls.n	8000d80 <__udivmoddi4+0x1b0>
 8000d68:	eb1e 0303 	adds.w	r3, lr, r3
 8000d6c:	f109 30ff 	add.w	r0, r9, #4294967295
 8000d70:	f080 8087 	bcs.w	8000e82 <__udivmoddi4+0x2b2>
 8000d74:	429c      	cmp	r4, r3
 8000d76:	f240 8084 	bls.w	8000e82 <__udivmoddi4+0x2b2>
 8000d7a:	f1a9 0902 	sub.w	r9, r9, #2
 8000d7e:	4473      	add	r3, lr
 8000d80:	1b1b      	subs	r3, r3, r4
 8000d82:	b2ad      	uxth	r5, r5
 8000d84:	fbb3 f0f8 	udiv	r0, r3, r8
 8000d88:	fb08 3310 	mls	r3, r8, r0, r3
 8000d8c:	ea45 4403 	orr.w	r4, r5, r3, lsl #16
 8000d90:	fb00 fa0a 	mul.w	sl, r0, sl
 8000d94:	45a2      	cmp	sl, r4
 8000d96:	d908      	bls.n	8000daa <__udivmoddi4+0x1da>
 8000d98:	eb1e 0404 	adds.w	r4, lr, r4
 8000d9c:	f100 33ff 	add.w	r3, r0, #4294967295
 8000da0:	d26b      	bcs.n	8000e7a <__udivmoddi4+0x2aa>
 8000da2:	45a2      	cmp	sl, r4
 8000da4:	d969      	bls.n	8000e7a <__udivmoddi4+0x2aa>
 8000da6:	3802      	subs	r0, #2
 8000da8:	4474      	add	r4, lr
 8000daa:	ea40 4009 	orr.w	r0, r0, r9, lsl #16
 8000dae:	fba0 8902 	umull	r8, r9, r0, r2
 8000db2:	eba4 040a 	sub.w	r4, r4, sl
 8000db6:	454c      	cmp	r4, r9
 8000db8:	46c2      	mov	sl, r8
 8000dba:	464b      	mov	r3, r9
 8000dbc:	d354      	bcc.n	8000e68 <__udivmoddi4+0x298>
 8000dbe:	d051      	beq.n	8000e64 <__udivmoddi4+0x294>
 8000dc0:	2e00      	cmp	r6, #0
 8000dc2:	d069      	beq.n	8000e98 <__udivmoddi4+0x2c8>
 8000dc4:	ebb1 050a 	subs.w	r5, r1, sl
 8000dc8:	eb64 0403 	sbc.w	r4, r4, r3
 8000dcc:	fa04 fc0c 	lsl.w	ip, r4, ip
 8000dd0:	40fd      	lsrs	r5, r7
 8000dd2:	40fc      	lsrs	r4, r7
 8000dd4:	ea4c 0505 	orr.w	r5, ip, r5
 8000dd8:	e9c6 5400 	strd	r5, r4, [r6]
 8000ddc:	2700      	movs	r7, #0
 8000dde:	e747      	b.n	8000c70 <__udivmoddi4+0xa0>
 8000de0:	f1c2 0320 	rsb	r3, r2, #32
 8000de4:	fa20 f703 	lsr.w	r7, r0, r3
 8000de8:	4095      	lsls	r5, r2
 8000dea:	fa01 f002 	lsl.w	r0, r1, r2
 8000dee:	fa21 f303 	lsr.w	r3, r1, r3
 8000df2:	ea4f 4e15 	mov.w	lr, r5, lsr #16
 8000df6:	4338      	orrs	r0, r7
 8000df8:	0c01      	lsrs	r1, r0, #16
 8000dfa:	fbb3 f7fe 	udiv	r7, r3, lr
 8000dfe:	fa1f f885 	uxth.w	r8, r5
 8000e02:	fb0e 3317 	mls	r3, lr, r7, r3
 8000e06:	ea41 4103 	orr.w	r1, r1, r3, lsl #16
 8000e0a:	fb07 f308 	mul.w	r3, r7, r8
 8000e0e:	428b      	cmp	r3, r1
 8000e10:	fa04 f402 	lsl.w	r4, r4, r2
 8000e14:	d907      	bls.n	8000e26 <__udivmoddi4+0x256>
 8000e16:	1869      	adds	r1, r5, r1
 8000e18:	f107 3cff 	add.w	ip, r7, #4294967295
 8000e1c:	d22f      	bcs.n	8000e7e <__udivmoddi4+0x2ae>
 8000e1e:	428b      	cmp	r3, r1
 8000e20:	d92d      	bls.n	8000e7e <__udivmoddi4+0x2ae>
 8000e22:	3f02      	subs	r7, #2
 8000e24:	4429      	add	r1, r5
 8000e26:	1acb      	subs	r3, r1, r3
 8000e28:	b281      	uxth	r1, r0
 8000e2a:	fbb3 f0fe 	udiv	r0, r3, lr
 8000e2e:	fb0e 3310 	mls	r3, lr, r0, r3
 8000e32:	ea41 4103 	orr.w	r1, r1, r3, lsl #16
 8000e36:	fb00 f308 	mul.w	r3, r0, r8
 8000e3a:	428b      	cmp	r3, r1
 8000e3c:	d907      	bls.n	8000e4e <__udivmoddi4+0x27e>
 8000e3e:	1869      	adds	r1, r5, r1
 8000e40:	f100 3cff 	add.w	ip, r0, #4294967295
 8000e44:	d217      	bcs.n	8000e76 <__udivmoddi4+0x2a6>
 8000e46:	428b      	cmp	r3, r1
 8000e48:	d915      	bls.n	8000e76 <__udivmoddi4+0x2a6>
 8000e4a:	3802      	subs	r0, #2
 8000e4c:	4429      	add	r1, r5
 8000e4e:	1ac9      	subs	r1, r1, r3
 8000e50:	ea40 4707 	orr.w	r7, r0, r7, lsl #16
 8000e54:	e73b      	b.n	8000cce <__udivmoddi4+0xfe>
 8000e56:	4637      	mov	r7, r6
 8000e58:	4630      	mov	r0, r6
 8000e5a:	e709      	b.n	8000c70 <__udivmoddi4+0xa0>
 8000e5c:	4607      	mov	r7, r0
 8000e5e:	e6e7      	b.n	8000c30 <__udivmoddi4+0x60>
 8000e60:	4618      	mov	r0, r3
 8000e62:	e6fb      	b.n	8000c5c <__udivmoddi4+0x8c>
 8000e64:	4541      	cmp	r1, r8
 8000e66:	d2ab      	bcs.n	8000dc0 <__udivmoddi4+0x1f0>
 8000e68:	ebb8 0a02 	subs.w	sl, r8, r2
 8000e6c:	eb69 020e 	sbc.w	r2, r9, lr
 8000e70:	3801      	subs	r0, #1
 8000e72:	4613      	mov	r3, r2
 8000e74:	e7a4      	b.n	8000dc0 <__udivmoddi4+0x1f0>
 8000e76:	4660      	mov	r0, ip
 8000e78:	e7e9      	b.n	8000e4e <__udivmoddi4+0x27e>
 8000e7a:	4618      	mov	r0, r3
 8000e7c:	e795      	b.n	8000daa <__udivmoddi4+0x1da>
 8000e7e:	4667      	mov	r7, ip
 8000e80:	e7d1      	b.n	8000e26 <__udivmoddi4+0x256>
 8000e82:	4681      	mov	r9, r0
 8000e84:	e77c      	b.n	8000d80 <__udivmoddi4+0x1b0>
 8000e86:	3802      	subs	r0, #2
 8000e88:	442c      	add	r4, r5
 8000e8a:	e747      	b.n	8000d1c <__udivmoddi4+0x14c>
 8000e8c:	f1ac 0c02 	sub.w	ip, ip, #2
 8000e90:	442b      	add	r3, r5
 8000e92:	e72f      	b.n	8000cf4 <__udivmoddi4+0x124>
 8000e94:	4638      	mov	r0, r7
 8000e96:	e708      	b.n	8000caa <__udivmoddi4+0xda>
 8000e98:	4637      	mov	r7, r6
 8000e9a:	e6e9      	b.n	8000c70 <__udivmoddi4+0xa0>

08000e9c <__aeabi_idiv0>:
 8000e9c:	4770      	bx	lr
 8000e9e:	bf00      	nop

08000ea0 <napred>:
#include <stdint.h>
#include <stdbool.h>
#include "stm32f4xx.h"


void napred(float x,float y,float theta,float v_cr, float w_cr, _Bool smer ){
 8000ea0:	b580      	push	{r7, lr}
 8000ea2:	b086      	sub	sp, #24
 8000ea4:	af00      	add	r7, sp, #0
 8000ea6:	ed87 0a05 	vstr	s0, [r7, #20]
 8000eaa:	edc7 0a04 	vstr	s1, [r7, #16]
 8000eae:	ed87 1a03 	vstr	s2, [r7, #12]
 8000eb2:	edc7 1a02 	vstr	s3, [r7, #8]
 8000eb6:	ed87 2a01 	vstr	s4, [r7, #4]
 8000eba:	4603      	mov	r3, r0
 8000ebc:	70fb      	strb	r3, [r7, #3]
	pid_init();
 8000ebe:	f000 fa59 	bl	8001374 <pid_init>
	if(smer == 1){
 8000ec2:	78fb      	ldrb	r3, [r7, #3]
 8000ec4:	2b00      	cmp	r3, #0
 8000ec6:	d007      	beq.n	8000ed8 <napred+0x38>
		//set_theta_smer();
		set_dist(-1);
 8000ec8:	f04f 30ff 	mov.w	r0, #4294967295
 8000ecc:	f001 f898 	bl	8002000 <set_dist>
		set_or(1);
 8000ed0:	2001      	movs	r0, #1
 8000ed2:	f001 f8a5 	bl	8002020 <set_or>
 8000ed6:	e005      	b.n	8000ee4 <napred+0x44>

	}
	else{
		set_or(0);
 8000ed8:	2000      	movs	r0, #0
 8000eda:	f001 f8a1 	bl	8002020 <set_or>
		set_dist(1);
 8000ede:	2001      	movs	r0, #1
 8000ee0:	f001 f88e 	bl	8002000 <set_dist>
	}
	set_det(smer);
 8000ee4:	78fb      	ldrb	r3, [r7, #3]
 8000ee6:	ee07 3a90 	vmov	s15, r3
 8000eea:	eef8 7a67 	vcvt.f32.u32	s15, s15
 8000eee:	eeb0 0a67 	vmov.f32	s0, s15
 8000ef2:	f001 fc29 	bl	8002748 <set_det>

		//set_dist(1);
	while(get_faza()<3){
 8000ef6:	e013      	b.n	8000f20 <napred+0x80>
	  set_x(x);
 8000ef8:	ed97 0a05 	vldr	s0, [r7, #20]
 8000efc:	f001 fc14 	bl	8002728 <set_x>
	  set_y(y);
 8000f00:	ed97 0a04 	vldr	s0, [r7, #16]
 8000f04:	f001 fc36 	bl	8002774 <set_y>
	  set_theta(theta);
 8000f08:	ed97 0a03 	vldr	s0, [r7, #12]
 8000f0c:	f001 fc42 	bl	8002794 <set_theta>
	  set_v_cr(v_cr);
 8000f10:	ed97 0a02 	vldr	s0, [r7, #8]
 8000f14:	f001 f854 	bl	8001fc0 <set_v_cr>
	  set_w_cr(w_cr);
 8000f18:	ed97 0a01 	vldr	s0, [r7, #4]
 8000f1c:	f001 f860 	bl	8001fe0 <set_w_cr>
	while(get_faza()<3){
 8000f20:	f001 f842 	bl	8001fa8 <get_faza>
 8000f24:	4603      	mov	r3, r0
 8000f26:	2b02      	cmp	r3, #2
 8000f28:	dde6      	ble.n	8000ef8 <napred+0x58>
	}
}
 8000f2a:	bf00      	nop
 8000f2c:	3718      	adds	r7, #24
 8000f2e:	46bd      	mov	sp, r7
 8000f30:	bd80      	pop	{r7, pc}
	...

08000f34 <motor_init>:
 8000f34:	b480      	push	{r7}
 8000f36:	af00      	add	r7, sp, #0
 8000f38:	4b38      	ldr	r3, [pc, #224]	; (800101c <motor_init+0xe8>)
 8000f3a:	6b1b      	ldr	r3, [r3, #48]	; 0x30
 8000f3c:	4a37      	ldr	r2, [pc, #220]	; (800101c <motor_init+0xe8>)
 8000f3e:	f043 0301 	orr.w	r3, r3, #1
 8000f42:	6313      	str	r3, [r2, #48]	; 0x30
 8000f44:	4b35      	ldr	r3, [pc, #212]	; (800101c <motor_init+0xe8>)
 8000f46:	6b1b      	ldr	r3, [r3, #48]	; 0x30
 8000f48:	4a34      	ldr	r2, [pc, #208]	; (800101c <motor_init+0xe8>)
 8000f4a:	f043 0302 	orr.w	r3, r3, #2
 8000f4e:	6313      	str	r3, [r2, #48]	; 0x30
 8000f50:	4b33      	ldr	r3, [pc, #204]	; (8001020 <motor_init+0xec>)
 8000f52:	681b      	ldr	r3, [r3, #0]
 8000f54:	4a32      	ldr	r2, [pc, #200]	; (8001020 <motor_init+0xec>)
 8000f56:	f423 3340 	bic.w	r3, r3, #196608	; 0x30000
 8000f5a:	6013      	str	r3, [r2, #0]
 8000f5c:	4b30      	ldr	r3, [pc, #192]	; (8001020 <motor_init+0xec>)
 8000f5e:	681b      	ldr	r3, [r3, #0]
 8000f60:	4a2f      	ldr	r2, [pc, #188]	; (8001020 <motor_init+0xec>)
 8000f62:	f443 3380 	orr.w	r3, r3, #65536	; 0x10000
 8000f66:	6013      	str	r3, [r2, #0]
 8000f68:	4b2e      	ldr	r3, [pc, #184]	; (8001024 <motor_init+0xf0>)
 8000f6a:	681b      	ldr	r3, [r3, #0]
 8000f6c:	4a2d      	ldr	r2, [pc, #180]	; (8001024 <motor_init+0xf0>)
 8000f6e:	f423 1340 	bic.w	r3, r3, #3145728	; 0x300000
 8000f72:	6013      	str	r3, [r2, #0]
 8000f74:	4b2b      	ldr	r3, [pc, #172]	; (8001024 <motor_init+0xf0>)
 8000f76:	68db      	ldr	r3, [r3, #12]
 8000f78:	4a2a      	ldr	r2, [pc, #168]	; (8001024 <motor_init+0xf0>)
 8000f7a:	f423 1340 	bic.w	r3, r3, #3145728	; 0x300000
 8000f7e:	60d3      	str	r3, [r2, #12]
 8000f80:	4b28      	ldr	r3, [pc, #160]	; (8001024 <motor_init+0xf0>)
 8000f82:	68db      	ldr	r3, [r3, #12]
 8000f84:	4a27      	ldr	r2, [pc, #156]	; (8001024 <motor_init+0xf0>)
 8000f86:	f443 1380 	orr.w	r3, r3, #1048576	; 0x100000
 8000f8a:	60d3      	str	r3, [r2, #12]
 8000f8c:	4b24      	ldr	r3, [pc, #144]	; (8001020 <motor_init+0xec>)
 8000f8e:	681b      	ldr	r3, [r3, #0]
 8000f90:	4a23      	ldr	r2, [pc, #140]	; (8001020 <motor_init+0xec>)
 8000f92:	f423 1340 	bic.w	r3, r3, #3145728	; 0x300000
 8000f96:	6013      	str	r3, [r2, #0]
 8000f98:	4b21      	ldr	r3, [pc, #132]	; (8001020 <motor_init+0xec>)
 8000f9a:	681b      	ldr	r3, [r3, #0]
 8000f9c:	4a20      	ldr	r2, [pc, #128]	; (8001020 <motor_init+0xec>)
 8000f9e:	f443 1380 	orr.w	r3, r3, #1048576	; 0x100000
 8000fa2:	6013      	str	r3, [r2, #0]
 8000fa4:	4b1e      	ldr	r3, [pc, #120]	; (8001020 <motor_init+0xec>)
 8000fa6:	695b      	ldr	r3, [r3, #20]
 8000fa8:	4a1d      	ldr	r2, [pc, #116]	; (8001020 <motor_init+0xec>)
 8000faa:	f443 6380 	orr.w	r3, r3, #1024	; 0x400
 8000fae:	6153      	str	r3, [r2, #20]
 8000fb0:	4b1b      	ldr	r3, [pc, #108]	; (8001020 <motor_init+0xec>)
 8000fb2:	681b      	ldr	r3, [r3, #0]
 8000fb4:	4a1a      	ldr	r2, [pc, #104]	; (8001020 <motor_init+0xec>)
 8000fb6:	f423 2340 	bic.w	r3, r3, #786432	; 0xc0000
 8000fba:	6013      	str	r3, [r2, #0]
 8000fbc:	4b18      	ldr	r3, [pc, #96]	; (8001020 <motor_init+0xec>)
 8000fbe:	681b      	ldr	r3, [r3, #0]
 8000fc0:	4a17      	ldr	r2, [pc, #92]	; (8001020 <motor_init+0xec>)
 8000fc2:	f443 2380 	orr.w	r3, r3, #262144	; 0x40000
 8000fc6:	6013      	str	r3, [r2, #0]
 8000fc8:	4b15      	ldr	r3, [pc, #84]	; (8001020 <motor_init+0xec>)
 8000fca:	681b      	ldr	r3, [r3, #0]
 8000fcc:	4a14      	ldr	r2, [pc, #80]	; (8001020 <motor_init+0xec>)
 8000fce:	f423 5340 	bic.w	r3, r3, #12288	; 0x3000
 8000fd2:	6013      	str	r3, [r2, #0]
 8000fd4:	4b12      	ldr	r3, [pc, #72]	; (8001020 <motor_init+0xec>)
 8000fd6:	68db      	ldr	r3, [r3, #12]
 8000fd8:	4a11      	ldr	r2, [pc, #68]	; (8001020 <motor_init+0xec>)
 8000fda:	f423 5340 	bic.w	r3, r3, #12288	; 0x3000
 8000fde:	60d3      	str	r3, [r2, #12]
 8000fe0:	4b0f      	ldr	r3, [pc, #60]	; (8001020 <motor_init+0xec>)
 8000fe2:	68db      	ldr	r3, [r3, #12]
 8000fe4:	4a0e      	ldr	r2, [pc, #56]	; (8001020 <motor_init+0xec>)
 8000fe6:	f443 5380 	orr.w	r3, r3, #4096	; 0x1000
 8000fea:	60d3      	str	r3, [r2, #12]
 8000fec:	4b0d      	ldr	r3, [pc, #52]	; (8001024 <motor_init+0xf0>)
 8000fee:	681b      	ldr	r3, [r3, #0]
 8000ff0:	4a0c      	ldr	r2, [pc, #48]	; (8001024 <motor_init+0xf0>)
 8000ff2:	f423 3340 	bic.w	r3, r3, #196608	; 0x30000
 8000ff6:	6013      	str	r3, [r2, #0]
 8000ff8:	4b0a      	ldr	r3, [pc, #40]	; (8001024 <motor_init+0xf0>)
 8000ffa:	681b      	ldr	r3, [r3, #0]
 8000ffc:	4a09      	ldr	r2, [pc, #36]	; (8001024 <motor_init+0xf0>)
 8000ffe:	f443 3380 	orr.w	r3, r3, #65536	; 0x10000
 8001002:	6013      	str	r3, [r2, #0]
 8001004:	4b07      	ldr	r3, [pc, #28]	; (8001024 <motor_init+0xf0>)
 8001006:	695b      	ldr	r3, [r3, #20]
 8001008:	4a06      	ldr	r2, [pc, #24]	; (8001024 <motor_init+0xf0>)
 800100a:	f443 7380 	orr.w	r3, r3, #256	; 0x100
 800100e:	6153      	str	r3, [r2, #20]
 8001010:	bf00      	nop
 8001012:	46bd      	mov	sp, r7
 8001014:	f85d 7b04 	ldr.w	r7, [sp], #4
 8001018:	4770      	bx	lr
 800101a:	bf00      	nop
 800101c:	40023800 	.word	0x40023800
 8001020:	40020000 	.word	0x40020000
 8001024:	40020400 	.word	0x40020400

08001028 <inc_2_rad>:
 8001028:	b480      	push	{r7}
 800102a:	af00      	add	r7, sp, #0
 800102c:	4b04      	ldr	r3, [pc, #16]	; (8001040 <inc_2_rad+0x18>)
 800102e:	ee07 3a90 	vmov	s15, r3
 8001032:	eeb0 0a67 	vmov.f32	s0, s15
 8001036:	46bd      	mov	sp, r7
 8001038:	f85d 7b04 	ldr.w	r7, [sp], #4
 800103c:	4770      	bx	lr
 800103e:	bf00      	nop
 8001040:	3a490fdb 	.word	0x3a490fdb

08001044 <odometrija>:
 8001044:	e92d 43b0 	stmdb	sp!, {r4, r5, r7, r8, r9, lr}
 8001048:	ed2d 8b02 	vpush	{d8}
 800104c:	b082      	sub	sp, #8
 800104e:	af00      	add	r7, sp, #0
 8001050:	6078      	str	r0, [r7, #4]
 8001052:	6878      	ldr	r0, [r7, #4]
 8001054:	f7ff fa12 	bl	800047c <__aeabi_i2d>
 8001058:	f04f 0200 	mov.w	r2, #0
 800105c:	4b94      	ldr	r3, [pc, #592]	; (80012b0 <odometrija+0x26c>)
 800105e:	f7ff fba1 	bl	80007a4 <__aeabi_ddiv>
 8001062:	4603      	mov	r3, r0
 8001064:	460c      	mov	r4, r1
 8001066:	4618      	mov	r0, r3
 8001068:	4621      	mov	r1, r4
 800106a:	f7ff fd49 	bl	8000b00 <__aeabi_d2f>
 800106e:	4602      	mov	r2, r0
 8001070:	4b90      	ldr	r3, [pc, #576]	; (80012b4 <odometrija+0x270>)
 8001072:	601a      	str	r2, [r3, #0]
 8001074:	f001 fab8 	bl	80025e8 <enc1_GetInc>
 8001078:	4603      	mov	r3, r0
 800107a:	461a      	mov	r2, r3
 800107c:	4b8e      	ldr	r3, [pc, #568]	; (80012b8 <odometrija+0x274>)
 800107e:	601a      	str	r2, [r3, #0]
 8001080:	f001 fb3a 	bl	80026f8 <enc2_GetInc>
 8001084:	4603      	mov	r3, r0
 8001086:	461a      	mov	r2, r3
 8001088:	4b8c      	ldr	r3, [pc, #560]	; (80012bc <odometrija+0x278>)
 800108a:	601a      	str	r2, [r3, #0]
 800108c:	4b8a      	ldr	r3, [pc, #552]	; (80012b8 <odometrija+0x274>)
 800108e:	681b      	ldr	r3, [r3, #0]
 8001090:	ee07 3a90 	vmov	s15, r3
 8001094:	eeb8 8ae7 	vcvt.f32.s32	s16, s15
 8001098:	f7ff ffc6 	bl	8001028 <inc_2_rad>
 800109c:	eef0 7a40 	vmov.f32	s15, s0
 80010a0:	ee68 6a27 	vmul.f32	s13, s16, s15
 80010a4:	4b83      	ldr	r3, [pc, #524]	; (80012b4 <odometrija+0x270>)
 80010a6:	ed93 7a00 	vldr	s14, [r3]
 80010aa:	eec6 7a87 	vdiv.f32	s15, s13, s14
 80010ae:	4b84      	ldr	r3, [pc, #528]	; (80012c0 <odometrija+0x27c>)
 80010b0:	edc3 7a00 	vstr	s15, [r3]
 80010b4:	4b81      	ldr	r3, [pc, #516]	; (80012bc <odometrija+0x278>)
 80010b6:	681b      	ldr	r3, [r3, #0]
 80010b8:	ee07 3a90 	vmov	s15, r3
 80010bc:	eeb8 8ae7 	vcvt.f32.s32	s16, s15
 80010c0:	f7ff ffb2 	bl	8001028 <inc_2_rad>
 80010c4:	eef0 7a40 	vmov.f32	s15, s0
 80010c8:	ee68 6a27 	vmul.f32	s13, s16, s15
 80010cc:	4b79      	ldr	r3, [pc, #484]	; (80012b4 <odometrija+0x270>)
 80010ce:	ed93 7a00 	vldr	s14, [r3]
 80010d2:	eec6 7a87 	vdiv.f32	s15, s13, s14
 80010d6:	4b7b      	ldr	r3, [pc, #492]	; (80012c4 <odometrija+0x280>)
 80010d8:	edc3 7a00 	vstr	s15, [r3]
 80010dc:	4b78      	ldr	r3, [pc, #480]	; (80012c0 <odometrija+0x27c>)
 80010de:	edd3 7a00 	vldr	s15, [r3]
 80010e2:	eeb3 7a0c 	vmov.f32	s14, #60	; 0x41e00000  28.0
 80010e6:	ee67 7a87 	vmul.f32	s15, s15, s14
 80010ea:	4b77      	ldr	r3, [pc, #476]	; (80012c8 <odometrija+0x284>)
 80010ec:	edc3 7a00 	vstr	s15, [r3]
 80010f0:	4b74      	ldr	r3, [pc, #464]	; (80012c4 <odometrija+0x280>)
 80010f2:	edd3 7a00 	vldr	s15, [r3]
 80010f6:	eeb3 7a0c 	vmov.f32	s14, #60	; 0x41e00000  28.0
 80010fa:	ee67 7a87 	vmul.f32	s15, s15, s14
 80010fe:	4b73      	ldr	r3, [pc, #460]	; (80012cc <odometrija+0x288>)
 8001100:	edc3 7a00 	vstr	s15, [r3]
 8001104:	4b70      	ldr	r3, [pc, #448]	; (80012c8 <odometrija+0x284>)
 8001106:	ed93 7a00 	vldr	s14, [r3]
 800110a:	4b70      	ldr	r3, [pc, #448]	; (80012cc <odometrija+0x288>)
 800110c:	edd3 7a00 	vldr	s15, [r3]
 8001110:	ee37 7a27 	vadd.f32	s14, s14, s15
 8001114:	eef0 6a00 	vmov.f32	s13, #0	; 0x40000000  2.0
 8001118:	eec7 7a26 	vdiv.f32	s15, s14, s13
 800111c:	4b6c      	ldr	r3, [pc, #432]	; (80012d0 <odometrija+0x28c>)
 800111e:	edc3 7a00 	vstr	s15, [r3]
 8001122:	4b69      	ldr	r3, [pc, #420]	; (80012c8 <odometrija+0x284>)
 8001124:	ed93 7a00 	vldr	s14, [r3]
 8001128:	4b68      	ldr	r3, [pc, #416]	; (80012cc <odometrija+0x288>)
 800112a:	edd3 7a00 	vldr	s15, [r3]
 800112e:	ee37 7a67 	vsub.f32	s14, s14, s15
 8001132:	eddf 6a68 	vldr	s13, [pc, #416]	; 80012d4 <odometrija+0x290>
 8001136:	eec7 7a26 	vdiv.f32	s15, s14, s13
 800113a:	4b67      	ldr	r3, [pc, #412]	; (80012d8 <odometrija+0x294>)
 800113c:	edc3 7a00 	vstr	s15, [r3]
 8001140:	4b65      	ldr	r3, [pc, #404]	; (80012d8 <odometrija+0x294>)
 8001142:	ed93 7a00 	vldr	s14, [r3]
 8001146:	4b5b      	ldr	r3, [pc, #364]	; (80012b4 <odometrija+0x270>)
 8001148:	edd3 7a00 	vldr	s15, [r3]
 800114c:	ee27 7a27 	vmul.f32	s14, s14, s15
 8001150:	4b62      	ldr	r3, [pc, #392]	; (80012dc <odometrija+0x298>)
 8001152:	edd3 7a00 	vldr	s15, [r3]
 8001156:	ee77 7a27 	vadd.f32	s15, s14, s15
 800115a:	eeb0 0a67 	vmov.f32	s0, s15
 800115e:	f000 f957 	bl	8001410 <normalize_angle>
 8001162:	eef0 7a40 	vmov.f32	s15, s0
 8001166:	4b5d      	ldr	r3, [pc, #372]	; (80012dc <odometrija+0x298>)
 8001168:	edc3 7a00 	vstr	s15, [r3]
 800116c:	4b5c      	ldr	r3, [pc, #368]	; (80012e0 <odometrija+0x29c>)
 800116e:	681b      	ldr	r3, [r3, #0]
 8001170:	4618      	mov	r0, r3
 8001172:	f7ff f995 	bl	80004a0 <__aeabi_f2d>
 8001176:	4604      	mov	r4, r0
 8001178:	460d      	mov	r5, r1
 800117a:	4b55      	ldr	r3, [pc, #340]	; (80012d0 <odometrija+0x28c>)
 800117c:	681b      	ldr	r3, [r3, #0]
 800117e:	4618      	mov	r0, r3
 8001180:	f7ff f98e 	bl	80004a0 <__aeabi_f2d>
 8001184:	4680      	mov	r8, r0
 8001186:	4689      	mov	r9, r1
 8001188:	4b53      	ldr	r3, [pc, #332]	; (80012d8 <odometrija+0x294>)
 800118a:	ed93 7a00 	vldr	s14, [r3]
 800118e:	4b49      	ldr	r3, [pc, #292]	; (80012b4 <odometrija+0x270>)
 8001190:	edd3 7a00 	vldr	s15, [r3]
 8001194:	ee67 7a27 	vmul.f32	s15, s14, s15
 8001198:	eef0 6a00 	vmov.f32	s13, #0	; 0x40000000  2.0
 800119c:	ee87 7aa6 	vdiv.f32	s14, s15, s13
 80011a0:	4b4e      	ldr	r3, [pc, #312]	; (80012dc <odometrija+0x298>)
 80011a2:	edd3 7a00 	vldr	s15, [r3]
 80011a6:	ee77 7a27 	vadd.f32	s15, s14, s15
 80011aa:	ee17 0a90 	vmov	r0, s15
 80011ae:	f7ff f977 	bl	80004a0 <__aeabi_f2d>
 80011b2:	4602      	mov	r2, r0
 80011b4:	460b      	mov	r3, r1
 80011b6:	ec43 2b10 	vmov	d0, r2, r3
 80011ba:	f002 fd15 	bl	8003be8 <cos>
 80011be:	ec53 2b10 	vmov	r2, r3, d0
 80011c2:	4640      	mov	r0, r8
 80011c4:	4649      	mov	r1, r9
 80011c6:	f7ff f9c3 	bl	8000550 <__aeabi_dmul>
 80011ca:	4602      	mov	r2, r0
 80011cc:	460b      	mov	r3, r1
 80011ce:	4690      	mov	r8, r2
 80011d0:	4699      	mov	r9, r3
 80011d2:	4b38      	ldr	r3, [pc, #224]	; (80012b4 <odometrija+0x270>)
 80011d4:	681b      	ldr	r3, [r3, #0]
 80011d6:	4618      	mov	r0, r3
 80011d8:	f7ff f962 	bl	80004a0 <__aeabi_f2d>
 80011dc:	4602      	mov	r2, r0
 80011de:	460b      	mov	r3, r1
 80011e0:	4640      	mov	r0, r8
 80011e2:	4649      	mov	r1, r9
 80011e4:	f7ff f9b4 	bl	8000550 <__aeabi_dmul>
 80011e8:	4602      	mov	r2, r0
 80011ea:	460b      	mov	r3, r1
 80011ec:	4620      	mov	r0, r4
 80011ee:	4629      	mov	r1, r5
 80011f0:	f7fe fff8 	bl	80001e4 <__adddf3>
 80011f4:	4603      	mov	r3, r0
 80011f6:	460c      	mov	r4, r1
 80011f8:	4618      	mov	r0, r3
 80011fa:	4621      	mov	r1, r4
 80011fc:	f7ff fc80 	bl	8000b00 <__aeabi_d2f>
 8001200:	4602      	mov	r2, r0
 8001202:	4b37      	ldr	r3, [pc, #220]	; (80012e0 <odometrija+0x29c>)
 8001204:	601a      	str	r2, [r3, #0]
 8001206:	4b37      	ldr	r3, [pc, #220]	; (80012e4 <odometrija+0x2a0>)
 8001208:	681b      	ldr	r3, [r3, #0]
 800120a:	4618      	mov	r0, r3
 800120c:	f7ff f948 	bl	80004a0 <__aeabi_f2d>
 8001210:	4604      	mov	r4, r0
 8001212:	460d      	mov	r5, r1
 8001214:	4b2e      	ldr	r3, [pc, #184]	; (80012d0 <odometrija+0x28c>)
 8001216:	681b      	ldr	r3, [r3, #0]
 8001218:	4618      	mov	r0, r3
 800121a:	f7ff f941 	bl	80004a0 <__aeabi_f2d>
 800121e:	4680      	mov	r8, r0
 8001220:	4689      	mov	r9, r1
 8001222:	4b2d      	ldr	r3, [pc, #180]	; (80012d8 <odometrija+0x294>)
 8001224:	ed93 7a00 	vldr	s14, [r3]
 8001228:	4b22      	ldr	r3, [pc, #136]	; (80012b4 <odometrija+0x270>)
 800122a:	edd3 7a00 	vldr	s15, [r3]
 800122e:	ee67 7a27 	vmul.f32	s15, s14, s15
 8001232:	eef0 6a00 	vmov.f32	s13, #0	; 0x40000000  2.0
 8001236:	ee87 7aa6 	vdiv.f32	s14, s15, s13
 800123a:	4b28      	ldr	r3, [pc, #160]	; (80012dc <odometrija+0x298>)
 800123c:	edd3 7a00 	vldr	s15, [r3]
 8001240:	ee77 7a27 	vadd.f32	s15, s14, s15
 8001244:	ee17 0a90 	vmov	r0, s15
 8001248:	f7ff f92a 	bl	80004a0 <__aeabi_f2d>
 800124c:	4602      	mov	r2, r0
 800124e:	460b      	mov	r3, r1
 8001250:	ec43 2b10 	vmov	d0, r2, r3
 8001254:	f002 fd0c 	bl	8003c70 <sin>
 8001258:	ec53 2b10 	vmov	r2, r3, d0
 800125c:	4640      	mov	r0, r8
 800125e:	4649      	mov	r1, r9
 8001260:	f7ff f976 	bl	8000550 <__aeabi_dmul>
 8001264:	4602      	mov	r2, r0
 8001266:	460b      	mov	r3, r1
 8001268:	4690      	mov	r8, r2
 800126a:	4699      	mov	r9, r3
 800126c:	4b11      	ldr	r3, [pc, #68]	; (80012b4 <odometrija+0x270>)
 800126e:	681b      	ldr	r3, [r3, #0]
 8001270:	4618      	mov	r0, r3
 8001272:	f7ff f915 	bl	80004a0 <__aeabi_f2d>
 8001276:	4602      	mov	r2, r0
 8001278:	460b      	mov	r3, r1
 800127a:	4640      	mov	r0, r8
 800127c:	4649      	mov	r1, r9
 800127e:	f7ff f967 	bl	8000550 <__aeabi_dmul>
 8001282:	4602      	mov	r2, r0
 8001284:	460b      	mov	r3, r1
 8001286:	4620      	mov	r0, r4
 8001288:	4629      	mov	r1, r5
 800128a:	f7fe ffab 	bl	80001e4 <__adddf3>
 800128e:	4603      	mov	r3, r0
 8001290:	460c      	mov	r4, r1
 8001292:	4618      	mov	r0, r3
 8001294:	4621      	mov	r1, r4
 8001296:	f7ff fc33 	bl	8000b00 <__aeabi_d2f>
 800129a:	4602      	mov	r2, r0
 800129c:	4b11      	ldr	r3, [pc, #68]	; (80012e4 <odometrija+0x2a0>)
 800129e:	601a      	str	r2, [r3, #0]
 80012a0:	bf00      	nop
 80012a2:	3708      	adds	r7, #8
 80012a4:	46bd      	mov	sp, r7
 80012a6:	ecbd 8b02 	vpop	{d8}
 80012aa:	e8bd 83b0 	ldmia.w	sp!, {r4, r5, r7, r8, r9, pc}
 80012ae:	bf00      	nop
 80012b0:	408f4000 	.word	0x408f4000
 80012b4:	200000ac 	.word	0x200000ac
 80012b8:	200000a8 	.word	0x200000a8
 80012bc:	200000a4 	.word	0x200000a4
 80012c0:	200000a0 	.word	0x200000a0
 80012c4:	2000009c 	.word	0x2000009c
 80012c8:	200001a8 	.word	0x200001a8
 80012cc:	200001a0 	.word	0x200001a0
 80012d0:	200000bc 	.word	0x200000bc
 80012d4:	43960000 	.word	0x43960000
 80012d8:	200000c0 	.word	0x200000c0
 80012dc:	200000b8 	.word	0x200000b8
 80012e0:	200000b0 	.word	0x200000b0
 80012e4:	200000b4 	.word	0x200000b4

080012e8 <get_x>:
 80012e8:	b480      	push	{r7}
 80012ea:	af00      	add	r7, sp, #0
 80012ec:	4b04      	ldr	r3, [pc, #16]	; (8001300 <get_x+0x18>)
 80012ee:	681b      	ldr	r3, [r3, #0]
 80012f0:	ee07 3a90 	vmov	s15, r3
 80012f4:	eeb0 0a67 	vmov.f32	s0, s15
 80012f8:	46bd      	mov	sp, r7
 80012fa:	f85d 7b04 	ldr.w	r7, [sp], #4
 80012fe:	4770      	bx	lr
 8001300:	200000b0 	.word	0x200000b0

08001304 <get_y>:
 8001304:	b480      	push	{r7}
 8001306:	af00      	add	r7, sp, #0
 8001308:	4b04      	ldr	r3, [pc, #16]	; (800131c <get_y+0x18>)
 800130a:	681b      	ldr	r3, [r3, #0]
 800130c:	ee07 3a90 	vmov	s15, r3
 8001310:	eeb0 0a67 	vmov.f32	s0, s15
 8001314:	46bd      	mov	sp, r7
 8001316:	f85d 7b04 	ldr.w	r7, [sp], #4
 800131a:	4770      	bx	lr
 800131c:	200000b4 	.word	0x200000b4

08001320 <get_theta>:
 8001320:	b480      	push	{r7}
 8001322:	af00      	add	r7, sp, #0
 8001324:	4b04      	ldr	r3, [pc, #16]	; (8001338 <get_theta+0x18>)
 8001326:	681b      	ldr	r3, [r3, #0]
 8001328:	ee07 3a90 	vmov	s15, r3
 800132c:	eeb0 0a67 	vmov.f32	s0, s15
 8001330:	46bd      	mov	sp, r7
 8001332:	f85d 7b04 	ldr.w	r7, [sp], #4
 8001336:	4770      	bx	lr
 8001338:	200000b8 	.word	0x200000b8

0800133c <get_w>:
 800133c:	b480      	push	{r7}
 800133e:	af00      	add	r7, sp, #0
 8001340:	4b04      	ldr	r3, [pc, #16]	; (8001354 <get_w+0x18>)
 8001342:	681b      	ldr	r3, [r3, #0]
 8001344:	ee07 3a90 	vmov	s15, r3
 8001348:	eeb0 0a67 	vmov.f32	s0, s15
 800134c:	46bd      	mov	sp, r7
 800134e:	f85d 7b04 	ldr.w	r7, [sp], #4
 8001352:	4770      	bx	lr
 8001354:	200000c0 	.word	0x200000c0

08001358 <get_v>:
 8001358:	b480      	push	{r7}
 800135a:	af00      	add	r7, sp, #0
 800135c:	4b04      	ldr	r3, [pc, #16]	; (8001370 <get_v+0x18>)
 800135e:	681b      	ldr	r3, [r3, #0]
 8001360:	ee07 3a90 	vmov	s15, r3
 8001364:	eeb0 0a67 	vmov.f32	s0, s15
 8001368:	46bd      	mov	sp, r7
 800136a:	f85d 7b04 	ldr.w	r7, [sp], #4
 800136e:	4770      	bx	lr
 8001370:	200000bc 	.word	0x200000bc

08001374 <pid_init>:
static float const w_min = -6;
static float const vel_max = 2100;
static float const vel_min = -2100;

void pid_init ()
{
 8001374:	b480      	push	{r7}
 8001376:	af00      	add	r7, sp, #0
	e=0;
 8001378:	4b18      	ldr	r3, [pc, #96]	; (80013dc <pid_init+0x68>)
 800137a:	f04f 0200 	mov.w	r2, #0
 800137e:	601a      	str	r2, [r3, #0]
	ei=0;
 8001380:	4b17      	ldr	r3, [pc, #92]	; (80013e0 <pid_init+0x6c>)
 8001382:	f04f 0200 	mov.w	r2, #0
 8001386:	601a      	str	r2, [r3, #0]
	ed=0;
 8001388:	4b16      	ldr	r3, [pc, #88]	; (80013e4 <pid_init+0x70>)
 800138a:	f04f 0200 	mov.w	r2, #0
 800138e:	601a      	str	r2, [r3, #0]
	e_pre=0;
 8001390:	4b15      	ldr	r3, [pc, #84]	; (80013e8 <pid_init+0x74>)
 8001392:	f04f 0200 	mov.w	r2, #0
 8001396:	601a      	str	r2, [r3, #0]
	u=0;
 8001398:	4b14      	ldr	r3, [pc, #80]	; (80013ec <pid_init+0x78>)
 800139a:	f04f 0200 	mov.w	r2, #0
 800139e:	601a      	str	r2, [r3, #0]
	faza=0;
 80013a0:	4b13      	ldr	r3, [pc, #76]	; (80013f0 <pid_init+0x7c>)
 80013a2:	2200      	movs	r2, #0
 80013a4:	601a      	str	r2, [r3, #0]
	v_dref=0;
 80013a6:	4b13      	ldr	r3, [pc, #76]	; (80013f4 <pid_init+0x80>)
 80013a8:	f04f 0200 	mov.w	r2, #0
 80013ac:	601a      	str	r2, [r3, #0]
	v_lref=0;
 80013ae:	4b12      	ldr	r3, [pc, #72]	; (80013f8 <pid_init+0x84>)
 80013b0:	f04f 0200 	mov.w	r2, #0
 80013b4:	601a      	str	r2, [r3, #0]
	w_cr=0;
 80013b6:	4b11      	ldr	r3, [pc, #68]	; (80013fc <pid_init+0x88>)
 80013b8:	f04f 0200 	mov.w	r2, #0
 80013bc:	601a      	str	r2, [r3, #0]
	v_cr=0;
 80013be:	4b10      	ldr	r3, [pc, #64]	; (8001400 <pid_init+0x8c>)
 80013c0:	f04f 0200 	mov.w	r2, #0
 80013c4:	601a      	str	r2, [r3, #0]
	brojac=0;
 80013c6:	4b0f      	ldr	r3, [pc, #60]	; (8001404 <pid_init+0x90>)
 80013c8:	2200      	movs	r2, #0
 80013ca:	601a      	str	r2, [r3, #0]
	izlazak=0;
 80013cc:	4b0e      	ldr	r3, [pc, #56]	; (8001408 <pid_init+0x94>)
 80013ce:	2200      	movs	r2, #0
 80013d0:	601a      	str	r2, [r3, #0]

}
 80013d2:	bf00      	nop
 80013d4:	46bd      	mov	sp, r7
 80013d6:	f85d 7b04 	ldr.w	r7, [sp], #4
 80013da:	4770      	bx	lr
 80013dc:	200000c4 	.word	0x200000c4
 80013e0:	200000c8 	.word	0x200000c8
 80013e4:	200000cc 	.word	0x200000cc
 80013e8:	200000d0 	.word	0x200000d0
 80013ec:	200000e4 	.word	0x200000e4
 80013f0:	200000f0 	.word	0x200000f0
 80013f4:	200001b4 	.word	0x200001b4
 80013f8:	200001ac 	.word	0x200001ac
 80013fc:	200001b0 	.word	0x200001b0
 8001400:	200001b8 	.word	0x200001b8
 8001404:	200000dc 	.word	0x200000dc
 8001408:	200000e8 	.word	0x200000e8
 800140c:	00000000 	.word	0x00000000

08001410 <normalize_angle>:

float  normalize_angle(float angle){
 8001410:	b590      	push	{r4, r7, lr}
 8001412:	b083      	sub	sp, #12
 8001414:	af00      	add	r7, sp, #0
 8001416:	ed87 0a01 	vstr	s0, [r7, #4]
	if (angle > M_PI){
 800141a:	6878      	ldr	r0, [r7, #4]
 800141c:	f7ff f840 	bl	80004a0 <__aeabi_f2d>
 8001420:	a31d      	add	r3, pc, #116	; (adr r3, 8001498 <normalize_angle+0x88>)
 8001422:	e9d3 2300 	ldrd	r2, r3, [r3]
 8001426:	f7ff fb23 	bl	8000a70 <__aeabi_dcmpgt>
 800142a:	4603      	mov	r3, r0
 800142c:	2b00      	cmp	r3, #0
 800142e:	d010      	beq.n	8001452 <normalize_angle+0x42>
        angle = angle - M_PI*2;
 8001430:	6878      	ldr	r0, [r7, #4]
 8001432:	f7ff f835 	bl	80004a0 <__aeabi_f2d>
 8001436:	a31a      	add	r3, pc, #104	; (adr r3, 80014a0 <normalize_angle+0x90>)
 8001438:	e9d3 2300 	ldrd	r2, r3, [r3]
 800143c:	f7fe fed0 	bl	80001e0 <__aeabi_dsub>
 8001440:	4603      	mov	r3, r0
 8001442:	460c      	mov	r4, r1
 8001444:	4618      	mov	r0, r3
 8001446:	4621      	mov	r1, r4
 8001448:	f7ff fb5a 	bl	8000b00 <__aeabi_d2f>
 800144c:	4603      	mov	r3, r0
 800144e:	607b      	str	r3, [r7, #4]
 8001450:	e01a      	b.n	8001488 <normalize_angle+0x78>
    }
	else if (angle < - M_PI){
 8001452:	6878      	ldr	r0, [r7, #4]
 8001454:	f7ff f824 	bl	80004a0 <__aeabi_f2d>
 8001458:	a313      	add	r3, pc, #76	; (adr r3, 80014a8 <normalize_angle+0x98>)
 800145a:	e9d3 2300 	ldrd	r2, r3, [r3]
 800145e:	f7ff fae9 	bl	8000a34 <__aeabi_dcmplt>
 8001462:	4603      	mov	r3, r0
 8001464:	2b00      	cmp	r3, #0
 8001466:	d00f      	beq.n	8001488 <normalize_angle+0x78>
        angle +=M_PI*2 ;
 8001468:	6878      	ldr	r0, [r7, #4]
 800146a:	f7ff f819 	bl	80004a0 <__aeabi_f2d>
 800146e:	a30c      	add	r3, pc, #48	; (adr r3, 80014a0 <normalize_angle+0x90>)
 8001470:	e9d3 2300 	ldrd	r2, r3, [r3]
 8001474:	f7fe feb6 	bl	80001e4 <__adddf3>
 8001478:	4603      	mov	r3, r0
 800147a:	460c      	mov	r4, r1
 800147c:	4618      	mov	r0, r3
 800147e:	4621      	mov	r1, r4
 8001480:	f7ff fb3e 	bl	8000b00 <__aeabi_d2f>
 8001484:	4603      	mov	r3, r0
 8001486:	607b      	str	r3, [r7, #4]
    }

    return angle;
 8001488:	687b      	ldr	r3, [r7, #4]
 800148a:	ee07 3a90 	vmov	s15, r3
}
 800148e:	eeb0 0a67 	vmov.f32	s0, s15
 8001492:	370c      	adds	r7, #12
 8001494:	46bd      	mov	sp, r7
 8001496:	bd90      	pop	{r4, r7, pc}
 8001498:	54442d18 	.word	0x54442d18
 800149c:	400921fb 	.word	0x400921fb
 80014a0:	54442d18 	.word	0x54442d18
 80014a4:	401921fb 	.word	0x401921fb
 80014a8:	54442d18 	.word	0x54442d18
 80014ac:	c00921fb 	.word	0xc00921fb

080014b0 <pid_brzina>:
    return angle;
}


float pid_brzina (float Kp,float Ki, float Kd,float ref_v,float mes_v)
{
 80014b0:	b480      	push	{r7}
 80014b2:	b087      	sub	sp, #28
 80014b4:	af00      	add	r7, sp, #0
 80014b6:	ed87 0a05 	vstr	s0, [r7, #20]
 80014ba:	edc7 0a04 	vstr	s1, [r7, #16]
 80014be:	ed87 1a03 	vstr	s2, [r7, #12]
 80014c2:	edc7 1a02 	vstr	s3, [r7, #8]
 80014c6:	ed87 2a01 	vstr	s4, [r7, #4]


	e=  ref_v - mes_v;
 80014ca:	ed97 7a02 	vldr	s14, [r7, #8]
 80014ce:	edd7 7a01 	vldr	s15, [r7, #4]
 80014d2:	ee77 7a67 	vsub.f32	s15, s14, s15
 80014d6:	4b3b      	ldr	r3, [pc, #236]	; (80015c4 <pid_brzina+0x114>)
 80014d8:	edc3 7a00 	vstr	s15, [r3]
	ei += e;
 80014dc:	4b3a      	ldr	r3, [pc, #232]	; (80015c8 <pid_brzina+0x118>)
 80014de:	ed93 7a00 	vldr	s14, [r3]
 80014e2:	4b38      	ldr	r3, [pc, #224]	; (80015c4 <pid_brzina+0x114>)
 80014e4:	edd3 7a00 	vldr	s15, [r3]
 80014e8:	ee77 7a27 	vadd.f32	s15, s14, s15
 80014ec:	4b36      	ldr	r3, [pc, #216]	; (80015c8 <pid_brzina+0x118>)
 80014ee:	edc3 7a00 	vstr	s15, [r3]
	ed = e - e_pre;
 80014f2:	4b34      	ldr	r3, [pc, #208]	; (80015c4 <pid_brzina+0x114>)
 80014f4:	ed93 7a00 	vldr	s14, [r3]
 80014f8:	4b34      	ldr	r3, [pc, #208]	; (80015cc <pid_brzina+0x11c>)
 80014fa:	edd3 7a00 	vldr	s15, [r3]
 80014fe:	ee77 7a67 	vsub.f32	s15, s14, s15
 8001502:	4b33      	ldr	r3, [pc, #204]	; (80015d0 <pid_brzina+0x120>)
 8001504:	edc3 7a00 	vstr	s15, [r3]

	 if (ei > EI_MAX)
 8001508:	4b2f      	ldr	r3, [pc, #188]	; (80015c8 <pid_brzina+0x118>)
 800150a:	edd3 7a00 	vldr	s15, [r3]
 800150e:	ed9f 7a31 	vldr	s14, [pc, #196]	; 80015d4 <pid_brzina+0x124>
 8001512:	eef4 7ac7 	vcmpe.f32	s15, s14
 8001516:	eef1 fa10 	vmrs	APSR_nzcv, fpscr
 800151a:	dd03      	ble.n	8001524 <pid_brzina+0x74>
	    {
	      ei = EI_MAX;
 800151c:	4a2e      	ldr	r2, [pc, #184]	; (80015d8 <pid_brzina+0x128>)
 800151e:	4b2a      	ldr	r3, [pc, #168]	; (80015c8 <pid_brzina+0x118>)
 8001520:	601a      	str	r2, [r3, #0]
 8001522:	e00c      	b.n	800153e <pid_brzina+0x8e>
	    }
	  else if (ei < EI_MIN)
 8001524:	4b28      	ldr	r3, [pc, #160]	; (80015c8 <pid_brzina+0x118>)
 8001526:	edd3 7a00 	vldr	s15, [r3]
 800152a:	ed9f 7a2c 	vldr	s14, [pc, #176]	; 80015dc <pid_brzina+0x12c>
 800152e:	eef4 7ac7 	vcmpe.f32	s15, s14
 8001532:	eef1 fa10 	vmrs	APSR_nzcv, fpscr
 8001536:	d502      	bpl.n	800153e <pid_brzina+0x8e>
	    {
	      ei = EI_MIN;
 8001538:	4a29      	ldr	r2, [pc, #164]	; (80015e0 <pid_brzina+0x130>)
 800153a:	4b23      	ldr	r3, [pc, #140]	; (80015c8 <pid_brzina+0x118>)
 800153c:	601a      	str	r2, [r3, #0]
	    }

	  u = Kp * e + Ki * ei + Kd * ed;
 800153e:	4b21      	ldr	r3, [pc, #132]	; (80015c4 <pid_brzina+0x114>)
 8001540:	ed93 7a00 	vldr	s14, [r3]
 8001544:	edd7 7a05 	vldr	s15, [r7, #20]
 8001548:	ee27 7a27 	vmul.f32	s14, s14, s15
 800154c:	4b1e      	ldr	r3, [pc, #120]	; (80015c8 <pid_brzina+0x118>)
 800154e:	edd3 6a00 	vldr	s13, [r3]
 8001552:	edd7 7a04 	vldr	s15, [r7, #16]
 8001556:	ee66 7aa7 	vmul.f32	s15, s13, s15
 800155a:	ee37 7a27 	vadd.f32	s14, s14, s15
 800155e:	4b1c      	ldr	r3, [pc, #112]	; (80015d0 <pid_brzina+0x120>)
 8001560:	edd3 6a00 	vldr	s13, [r3]
 8001564:	edd7 7a03 	vldr	s15, [r7, #12]
 8001568:	ee66 7aa7 	vmul.f32	s15, s13, s15
 800156c:	ee77 7a27 	vadd.f32	s15, s14, s15
 8001570:	4b1c      	ldr	r3, [pc, #112]	; (80015e4 <pid_brzina+0x134>)
 8001572:	edc3 7a00 	vstr	s15, [r3]

	  //smer
	   if (u > U_MAX)
 8001576:	4b1b      	ldr	r3, [pc, #108]	; (80015e4 <pid_brzina+0x134>)
 8001578:	edd3 7a00 	vldr	s15, [r3]
 800157c:	ed9f 7a1a 	vldr	s14, [pc, #104]	; 80015e8 <pid_brzina+0x138>
 8001580:	eef4 7ac7 	vcmpe.f32	s15, s14
 8001584:	eef1 fa10 	vmrs	APSR_nzcv, fpscr
 8001588:	dd03      	ble.n	8001592 <pid_brzina+0xe2>
	   {
	       u = U_MAX;
 800158a:	4a18      	ldr	r2, [pc, #96]	; (80015ec <pid_brzina+0x13c>)
 800158c:	4b15      	ldr	r3, [pc, #84]	; (80015e4 <pid_brzina+0x134>)
 800158e:	601a      	str	r2, [r3, #0]
 8001590:	e00c      	b.n	80015ac <pid_brzina+0xfc>
	   }
	   else if (u < U_MIN)
 8001592:	4b14      	ldr	r3, [pc, #80]	; (80015e4 <pid_brzina+0x134>)
 8001594:	edd3 7a00 	vldr	s15, [r3]
 8001598:	ed9f 7a15 	vldr	s14, [pc, #84]	; 80015f0 <pid_brzina+0x140>
 800159c:	eef4 7ac7 	vcmpe.f32	s15, s14
 80015a0:	eef1 fa10 	vmrs	APSR_nzcv, fpscr
 80015a4:	d502      	bpl.n	80015ac <pid_brzina+0xfc>
	   {
	  	   u = U_MIN;
 80015a6:	4a13      	ldr	r2, [pc, #76]	; (80015f4 <pid_brzina+0x144>)
 80015a8:	4b0e      	ldr	r3, [pc, #56]	; (80015e4 <pid_brzina+0x134>)
 80015aa:	601a      	str	r2, [r3, #0]
	   }


			 return u;
 80015ac:	4b0d      	ldr	r3, [pc, #52]	; (80015e4 <pid_brzina+0x134>)
 80015ae:	681b      	ldr	r3, [r3, #0]
 80015b0:	ee07 3a90 	vmov	s15, r3
	   e_pre = e;

}
 80015b4:	eeb0 0a67 	vmov.f32	s0, s15
 80015b8:	371c      	adds	r7, #28
 80015ba:	46bd      	mov	sp, r7
 80015bc:	f85d 7b04 	ldr.w	r7, [sp], #4
 80015c0:	4770      	bx	lr
 80015c2:	bf00      	nop
 80015c4:	200000c4 	.word	0x200000c4
 80015c8:	200000c8 	.word	0x200000c8
 80015cc:	200000d0 	.word	0x200000d0
 80015d0:	200000cc 	.word	0x200000cc
 80015d4:	447a0000 	.word	0x447a0000
 80015d8:	447a0000 	.word	0x447a0000
 80015dc:	c47a0000 	.word	0xc47a0000
 80015e0:	c47a0000 	.word	0xc47a0000
 80015e4:	200000e4 	.word	0x200000e4
 80015e8:	45034000 	.word	0x45034000
 80015ec:	45034000 	.word	0x45034000
 80015f0:	c5034000 	.word	0xc5034000
 80015f4:	c5034000 	.word	0xc5034000

080015f8 <racunanje_brzine>:

void racunanje_brzine(float v, float w){
 80015f8:	b480      	push	{r7}
 80015fa:	b083      	sub	sp, #12
 80015fc:	af00      	add	r7, sp, #0
 80015fe:	ed87 0a01 	vstr	s0, [r7, #4]
 8001602:	edc7 0a00 	vstr	s1, [r7]
	  if (v > v_max){
 8001606:	ed9f 7a27 	vldr	s14, [pc, #156]	; 80016a4 <racunanje_brzine+0xac>
 800160a:	edd7 7a01 	vldr	s15, [r7, #4]
 800160e:	eef4 7ac7 	vcmpe.f32	s15, s14
 8001612:	eef1 fa10 	vmrs	APSR_nzcv, fpscr
 8001616:	dd02      	ble.n	800161e <racunanje_brzine+0x26>
		       v = v_max;
 8001618:	4b23      	ldr	r3, [pc, #140]	; (80016a8 <racunanje_brzine+0xb0>)
 800161a:	607b      	str	r3, [r7, #4]
 800161c:	e00a      	b.n	8001634 <racunanje_brzine+0x3c>
		   }
	  else if (v < v_min){
 800161e:	ed9f 7a23 	vldr	s14, [pc, #140]	; 80016ac <racunanje_brzine+0xb4>
 8001622:	edd7 7a01 	vldr	s15, [r7, #4]
 8001626:	eef4 7ac7 	vcmpe.f32	s15, s14
 800162a:	eef1 fa10 	vmrs	APSR_nzcv, fpscr
 800162e:	d501      	bpl.n	8001634 <racunanje_brzine+0x3c>
		  	   v = v_min;
 8001630:	4b1f      	ldr	r3, [pc, #124]	; (80016b0 <racunanje_brzine+0xb8>)
 8001632:	607b      	str	r3, [r7, #4]
		   }
	  if (w > w_max){
 8001634:	eeb1 7a08 	vmov.f32	s14, #24	; 0x40c00000  6.0
 8001638:	edd7 7a00 	vldr	s15, [r7]
 800163c:	eef4 7ac7 	vcmpe.f32	s15, s14
 8001640:	eef1 fa10 	vmrs	APSR_nzcv, fpscr
 8001644:	dd02      	ble.n	800164c <racunanje_brzine+0x54>
		       w = w_max;
 8001646:	4b1b      	ldr	r3, [pc, #108]	; (80016b4 <racunanje_brzine+0xbc>)
 8001648:	603b      	str	r3, [r7, #0]
 800164a:	e00a      	b.n	8001662 <racunanje_brzine+0x6a>
		   }
	  else if (w < w_min){
 800164c:	eeb9 7a08 	vmov.f32	s14, #152	; 0xc0c00000 -6.0
 8001650:	edd7 7a00 	vldr	s15, [r7]
 8001654:	eef4 7ac7 	vcmpe.f32	s15, s14
 8001658:	eef1 fa10 	vmrs	APSR_nzcv, fpscr
 800165c:	d501      	bpl.n	8001662 <racunanje_brzine+0x6a>
		  	   w = w_min;
 800165e:	4b16      	ldr	r3, [pc, #88]	; (80016b8 <racunanje_brzine+0xc0>)
 8001660:	603b      	str	r3, [r7, #0]
		   }

	  vel_d= v + w*(razmak_tockova/2);
 8001662:	edd7 7a00 	vldr	s15, [r7]
 8001666:	ed9f 7a15 	vldr	s14, [pc, #84]	; 80016bc <racunanje_brzine+0xc4>
 800166a:	ee27 7a87 	vmul.f32	s14, s15, s14
 800166e:	edd7 7a01 	vldr	s15, [r7, #4]
 8001672:	ee77 7a27 	vadd.f32	s15, s14, s15
 8001676:	4b12      	ldr	r3, [pc, #72]	; (80016c0 <racunanje_brzine+0xc8>)
 8001678:	edc3 7a00 	vstr	s15, [r3]
	  vel_l= v - w*(razmak_tockova/2);}
 800167c:	edd7 7a00 	vldr	s15, [r7]
 8001680:	ed9f 7a0e 	vldr	s14, [pc, #56]	; 80016bc <racunanje_brzine+0xc4>
 8001684:	ee67 7a87 	vmul.f32	s15, s15, s14
 8001688:	ed97 7a01 	vldr	s14, [r7, #4]
 800168c:	ee77 7a67 	vsub.f32	s15, s14, s15
 8001690:	4b0c      	ldr	r3, [pc, #48]	; (80016c4 <racunanje_brzine+0xcc>)
 8001692:	edc3 7a00 	vstr	s15, [r3]
 8001696:	bf00      	nop
 8001698:	370c      	adds	r7, #12
 800169a:	46bd      	mov	sp, r7
 800169c:	f85d 7b04 	ldr.w	r7, [sp], #4
 80016a0:	4770      	bx	lr
 80016a2:	bf00      	nop
 80016a4:	45034000 	.word	0x45034000
 80016a8:	45034000 	.word	0x45034000
 80016ac:	c5034000 	.word	0xc5034000
 80016b0:	c5034000 	.word	0xc5034000
 80016b4:	40c00000 	.word	0x40c00000
 80016b8:	c0c00000 	.word	0xc0c00000
 80016bc:	43160000 	.word	0x43160000
 80016c0:	200001a4 	.word	0x200001a4
 80016c4:	2000019c 	.word	0x2000019c

080016c8 <regulacija_pozicije>:
	 motor2_set_PWM(vel_l1);*/




void regulacija_pozicije(float x_ref, float y_ref, float theta_ref, float x, float y, float theta){
 80016c8:	e92d 43b0 	stmdb	sp!, {r4, r5, r7, r8, r9, lr}
 80016cc:	b086      	sub	sp, #24
 80016ce:	af00      	add	r7, sp, #0
 80016d0:	ed87 0a05 	vstr	s0, [r7, #20]
 80016d4:	edc7 0a04 	vstr	s1, [r7, #16]
 80016d8:	ed87 1a03 	vstr	s2, [r7, #12]
 80016dc:	edc7 1a02 	vstr	s3, [r7, #8]
 80016e0:	ed87 2a01 	vstr	s4, [r7, #4]
 80016e4:	edc7 2a00 	vstr	s5, [r7]
//dodati mozda i regulator zbog prepucavanja ugla pri brzoj rotaciji

		v_pid=0;
 80016e8:	4ba9      	ldr	r3, [pc, #676]	; (8001990 <regulacija_pozicije+0x2c8>)
 80016ea:	f04f 0200 	mov.w	r2, #0
 80016ee:	601a      	str	r2, [r3, #0]
		w_pid=0;
 80016f0:	4ba8      	ldr	r3, [pc, #672]	; (8001994 <regulacija_pozicije+0x2cc>)
 80016f2:	f04f 0200 	mov.w	r2, #0
 80016f6:	601a      	str	r2, [r3, #0]
		theta=theta+(M_PI*or);
 80016f8:	6838      	ldr	r0, [r7, #0]
 80016fa:	f7fe fed1 	bl	80004a0 <__aeabi_f2d>
 80016fe:	4604      	mov	r4, r0
 8001700:	460d      	mov	r5, r1
 8001702:	4ba5      	ldr	r3, [pc, #660]	; (8001998 <regulacija_pozicije+0x2d0>)
 8001704:	681b      	ldr	r3, [r3, #0]
 8001706:	4618      	mov	r0, r3
 8001708:	f7fe feb8 	bl	800047c <__aeabi_i2d>
 800170c:	a39c      	add	r3, pc, #624	; (adr r3, 8001980 <regulacija_pozicije+0x2b8>)
 800170e:	e9d3 2300 	ldrd	r2, r3, [r3]
 8001712:	f7fe ff1d 	bl	8000550 <__aeabi_dmul>
 8001716:	4602      	mov	r2, r0
 8001718:	460b      	mov	r3, r1
 800171a:	4620      	mov	r0, r4
 800171c:	4629      	mov	r1, r5
 800171e:	f7fe fd61 	bl	80001e4 <__adddf3>
 8001722:	4603      	mov	r3, r0
 8001724:	460c      	mov	r4, r1
 8001726:	4618      	mov	r0, r3
 8001728:	4621      	mov	r1, r4
 800172a:	f7ff f9e9 	bl	8000b00 <__aeabi_d2f>
 800172e:	4603      	mov	r3, r0
 8001730:	603b      	str	r3, [r7, #0]
		dist =smer* sqrt(pow((x_ref-x),2)+pow((y_ref-y),2));
 8001732:	4b9a      	ldr	r3, [pc, #616]	; (800199c <regulacija_pozicije+0x2d4>)
 8001734:	681b      	ldr	r3, [r3, #0]
 8001736:	4618      	mov	r0, r3
 8001738:	f7fe fea0 	bl	800047c <__aeabi_i2d>
 800173c:	4604      	mov	r4, r0
 800173e:	460d      	mov	r5, r1
 8001740:	ed97 7a05 	vldr	s14, [r7, #20]
 8001744:	edd7 7a02 	vldr	s15, [r7, #8]
 8001748:	ee77 7a67 	vsub.f32	s15, s14, s15
 800174c:	ee17 0a90 	vmov	r0, s15
 8001750:	f7fe fea6 	bl	80004a0 <__aeabi_f2d>
 8001754:	4602      	mov	r2, r0
 8001756:	460b      	mov	r3, r1
 8001758:	ed9f 1b8b 	vldr	d1, [pc, #556]	; 8001988 <regulacija_pozicije+0x2c0>
 800175c:	ec43 2b10 	vmov	d0, r2, r3
 8001760:	f002 fad0 	bl	8003d04 <pow>
 8001764:	ec59 8b10 	vmov	r8, r9, d0
 8001768:	ed97 7a04 	vldr	s14, [r7, #16]
 800176c:	edd7 7a01 	vldr	s15, [r7, #4]
 8001770:	ee77 7a67 	vsub.f32	s15, s14, s15
 8001774:	ee17 0a90 	vmov	r0, s15
 8001778:	f7fe fe92 	bl	80004a0 <__aeabi_f2d>
 800177c:	4602      	mov	r2, r0
 800177e:	460b      	mov	r3, r1
 8001780:	ed9f 1b81 	vldr	d1, [pc, #516]	; 8001988 <regulacija_pozicije+0x2c0>
 8001784:	ec43 2b10 	vmov	d0, r2, r3
 8001788:	f002 fabc 	bl	8003d04 <pow>
 800178c:	ec53 2b10 	vmov	r2, r3, d0
 8001790:	4640      	mov	r0, r8
 8001792:	4649      	mov	r1, r9
 8001794:	f7fe fd26 	bl	80001e4 <__adddf3>
 8001798:	4602      	mov	r2, r0
 800179a:	460b      	mov	r3, r1
 800179c:	ec43 2b17 	vmov	d7, r2, r3
 80017a0:	eeb0 0a47 	vmov.f32	s0, s14
 80017a4:	eef0 0a67 	vmov.f32	s1, s15
 80017a8:	f002 fc1c 	bl	8003fe4 <sqrt>
 80017ac:	ec53 2b10 	vmov	r2, r3, d0
 80017b0:	4620      	mov	r0, r4
 80017b2:	4629      	mov	r1, r5
 80017b4:	f7fe fecc 	bl	8000550 <__aeabi_dmul>
 80017b8:	4603      	mov	r3, r0
 80017ba:	460c      	mov	r4, r1
 80017bc:	4618      	mov	r0, r3
 80017be:	4621      	mov	r1, r4
 80017c0:	f7ff f99e 	bl	8000b00 <__aeabi_d2f>
 80017c4:	4602      	mov	r2, r0
 80017c6:	4b76      	ldr	r3, [pc, #472]	; (80019a0 <regulacija_pozicije+0x2d8>)
 80017c8:	601a      	str	r2, [r3, #0]
		//distx = sqrt(pow(x_ref-x,2));
		//disty = sqrt(pow(y_ref-y,2));<
		phi = atan2(y_ref - y, x_ref - x);
 80017ca:	ed97 7a04 	vldr	s14, [r7, #16]
 80017ce:	edd7 7a01 	vldr	s15, [r7, #4]
 80017d2:	ee77 7a67 	vsub.f32	s15, s14, s15
 80017d6:	ee17 0a90 	vmov	r0, s15
 80017da:	f7fe fe61 	bl	80004a0 <__aeabi_f2d>
 80017de:	4604      	mov	r4, r0
 80017e0:	460d      	mov	r5, r1
 80017e2:	ed97 7a05 	vldr	s14, [r7, #20]
 80017e6:	edd7 7a02 	vldr	s15, [r7, #8]
 80017ea:	ee77 7a67 	vsub.f32	s15, s14, s15
 80017ee:	ee17 0a90 	vmov	r0, s15
 80017f2:	f7fe fe55 	bl	80004a0 <__aeabi_f2d>
 80017f6:	4602      	mov	r2, r0
 80017f8:	460b      	mov	r3, r1
 80017fa:	ec43 2b11 	vmov	d1, r2, r3
 80017fe:	ec45 4b10 	vmov	d0, r4, r5
 8001802:	f002 fa7d 	bl	8003d00 <atan2>
 8001806:	ec54 3b10 	vmov	r3, r4, d0
 800180a:	4618      	mov	r0, r3
 800180c:	4621      	mov	r1, r4
 800180e:	f7ff f977 	bl	8000b00 <__aeabi_d2f>
 8001812:	4602      	mov	r2, r0
 8001814:	4b63      	ldr	r3, [pc, #396]	; (80019a4 <regulacija_pozicije+0x2dc>)
 8001816:	601a      	str	r2, [r3, #0]
		phi_error = normalize_angle(phi - theta ); //promjeni ovo
 8001818:	4b62      	ldr	r3, [pc, #392]	; (80019a4 <regulacija_pozicije+0x2dc>)
 800181a:	ed93 7a00 	vldr	s14, [r3]
 800181e:	edd7 7a00 	vldr	s15, [r7]
 8001822:	ee77 7a67 	vsub.f32	s15, s14, s15
 8001826:	eeb0 0a67 	vmov.f32	s0, s15
 800182a:	f7ff fdf1 	bl	8001410 <normalize_angle>
 800182e:	eef0 7a40 	vmov.f32	s15, s0
 8001832:	4b5d      	ldr	r3, [pc, #372]	; (80019a8 <regulacija_pozicije+0x2e0>)
 8001834:	edc3 7a00 	vstr	s15, [r3]
		phi_prim_error = normalize_angle(  theta_ref - theta );
 8001838:	ed97 7a03 	vldr	s14, [r7, #12]
 800183c:	edd7 7a00 	vldr	s15, [r7]
 8001840:	ee77 7a67 	vsub.f32	s15, s14, s15
 8001844:	eeb0 0a67 	vmov.f32	s0, s15
 8001848:	f7ff fde2 	bl	8001410 <normalize_angle>
 800184c:	eef0 7a40 	vmov.f32	s15, s0
 8001850:	4b56      	ldr	r3, [pc, #344]	; (80019ac <regulacija_pozicije+0x2e4>)
 8001852:	edc3 7a00 	vstr	s15, [r3]

	eps_dist = 6;
 8001856:	4b56      	ldr	r3, [pc, #344]	; (80019b0 <regulacija_pozicije+0x2e8>)
 8001858:	4a56      	ldr	r2, [pc, #344]	; (80019b4 <regulacija_pozicije+0x2ec>)
 800185a:	601a      	str	r2, [r3, #0]
	eps_theta = (4*M_PI)/180;
 800185c:	4b56      	ldr	r3, [pc, #344]	; (80019b8 <regulacija_pozicije+0x2f0>)
 800185e:	4a57      	ldr	r2, [pc, #348]	; (80019bc <regulacija_pozicije+0x2f4>)
 8001860:	601a      	str	r2, [r3, #0]


	Kp_w =9; //6 bilo 3.5 bilo
 8001862:	4b57      	ldr	r3, [pc, #348]	; (80019c0 <regulacija_pozicije+0x2f8>)
 8001864:	4a57      	ldr	r2, [pc, #348]	; (80019c4 <regulacija_pozicije+0x2fc>)
 8001866:	601a      	str	r2, [r3, #0]
	Kp_d = 2.8;
 8001868:	4b57      	ldr	r3, [pc, #348]	; (80019c8 <regulacija_pozicije+0x300>)
 800186a:	4a58      	ldr	r2, [pc, #352]	; (80019cc <regulacija_pozicije+0x304>)
 800186c:	601a      	str	r2, [r3, #0]
		brojac++;
	}
	else
		dist=fabs(dist);
*/
	greska=(phi_prim_error*180/M_PI);
 800186e:	4b4f      	ldr	r3, [pc, #316]	; (80019ac <regulacija_pozicije+0x2e4>)
 8001870:	edd3 7a00 	vldr	s15, [r3]
 8001874:	ed9f 7a56 	vldr	s14, [pc, #344]	; 80019d0 <regulacija_pozicije+0x308>
 8001878:	ee67 7a87 	vmul.f32	s15, s15, s14
 800187c:	ee17 0a90 	vmov	r0, s15
 8001880:	f7fe fe0e 	bl	80004a0 <__aeabi_f2d>
 8001884:	a33e      	add	r3, pc, #248	; (adr r3, 8001980 <regulacija_pozicije+0x2b8>)
 8001886:	e9d3 2300 	ldrd	r2, r3, [r3]
 800188a:	f7fe ff8b 	bl	80007a4 <__aeabi_ddiv>
 800188e:	4603      	mov	r3, r0
 8001890:	460c      	mov	r4, r1
 8001892:	4618      	mov	r0, r3
 8001894:	4621      	mov	r1, r4
 8001896:	f7ff f933 	bl	8000b00 <__aeabi_d2f>
 800189a:	4602      	mov	r2, r0
 800189c:	4b4d      	ldr	r3, [pc, #308]	; (80019d4 <regulacija_pozicije+0x30c>)
 800189e:	601a      	str	r2, [r3, #0]

	if(faza == 0){
 80018a0:	4b4d      	ldr	r3, [pc, #308]	; (80019d8 <regulacija_pozicije+0x310>)
 80018a2:	681b      	ldr	r3, [r3, #0]
 80018a4:	2b00      	cmp	r3, #0
 80018a6:	f040 80a3 	bne.w	80019f0 <regulacija_pozicije+0x328>
test1=1;
 80018aa:	4b4c      	ldr	r3, [pc, #304]	; (80019dc <regulacija_pozicije+0x314>)
 80018ac:	2201      	movs	r2, #1
 80018ae:	601a      	str	r2, [r3, #0]
		v_pid=0;
 80018b0:	4b37      	ldr	r3, [pc, #220]	; (8001990 <regulacija_pozicije+0x2c8>)
 80018b2:	f04f 0200 	mov.w	r2, #0
 80018b6:	601a      	str	r2, [r3, #0]
		if(w_cr<=2)
 80018b8:	4b49      	ldr	r3, [pc, #292]	; (80019e0 <regulacija_pozicije+0x318>)
 80018ba:	edd3 7a00 	vldr	s15, [r3]
 80018be:	eeb0 7a00 	vmov.f32	s14, #0	; 0x40000000  2.0
 80018c2:	eef4 7ac7 	vcmpe.f32	s15, s14
 80018c6:	eef1 fa10 	vmrs	APSR_nzcv, fpscr
 80018ca:	d802      	bhi.n	80018d2 <regulacija_pozicije+0x20a>
			Kp_w=14;
 80018cc:	4b3c      	ldr	r3, [pc, #240]	; (80019c0 <regulacija_pozicije+0x2f8>)
 80018ce:	4a45      	ldr	r2, [pc, #276]	; (80019e4 <regulacija_pozicije+0x31c>)
 80018d0:	601a      	str	r2, [r3, #0]
		w_pid=Kp_w * phi_error;
 80018d2:	4b3b      	ldr	r3, [pc, #236]	; (80019c0 <regulacija_pozicije+0x2f8>)
 80018d4:	ed93 7a00 	vldr	s14, [r3]
 80018d8:	4b33      	ldr	r3, [pc, #204]	; (80019a8 <regulacija_pozicije+0x2e0>)
 80018da:	edd3 7a00 	vldr	s15, [r3]
 80018de:	ee67 7a27 	vmul.f32	s15, s14, s15
 80018e2:	4b2c      	ldr	r3, [pc, #176]	; (8001994 <regulacija_pozicije+0x2cc>)
 80018e4:	edc3 7a00 	vstr	s15, [r3]

		greska1=(phi_error*180/M_PI);
 80018e8:	4b2f      	ldr	r3, [pc, #188]	; (80019a8 <regulacija_pozicije+0x2e0>)
 80018ea:	edd3 7a00 	vldr	s15, [r3]
 80018ee:	ed9f 7a38 	vldr	s14, [pc, #224]	; 80019d0 <regulacija_pozicije+0x308>
 80018f2:	ee67 7a87 	vmul.f32	s15, s15, s14
 80018f6:	ee17 0a90 	vmov	r0, s15
 80018fa:	f7fe fdd1 	bl	80004a0 <__aeabi_f2d>
 80018fe:	a320      	add	r3, pc, #128	; (adr r3, 8001980 <regulacija_pozicije+0x2b8>)
 8001900:	e9d3 2300 	ldrd	r2, r3, [r3]
 8001904:	f7fe ff4e 	bl	80007a4 <__aeabi_ddiv>
 8001908:	4603      	mov	r3, r0
 800190a:	460c      	mov	r4, r1
 800190c:	4618      	mov	r0, r3
 800190e:	4621      	mov	r1, r4
 8001910:	f7ff f8f6 	bl	8000b00 <__aeabi_d2f>
 8001914:	4602      	mov	r2, r0
 8001916:	4b34      	ldr	r3, [pc, #208]	; (80019e8 <regulacija_pozicije+0x320>)
 8001918:	601a      	str	r2, [r3, #0]
		uslov = get_w ();
 800191a:	f7ff fd0f 	bl	800133c <get_w>
 800191e:	eef0 7a40 	vmov.f32	s15, s0
 8001922:	4b32      	ldr	r3, [pc, #200]	; (80019ec <regulacija_pozicije+0x324>)
 8001924:	edc3 7a00 	vstr	s15, [r3]
		//if((fabs(phi_prim_error) <= eps_theta))
		//	faza=1;
		if((fabs(phi_error) <= eps_theta) & (fabs(uslov) <= 1)){
 8001928:	4b1f      	ldr	r3, [pc, #124]	; (80019a8 <regulacija_pozicije+0x2e0>)
 800192a:	edd3 7a00 	vldr	s15, [r3]
 800192e:	eeb0 7ae7 	vabs.f32	s14, s15
 8001932:	4b21      	ldr	r3, [pc, #132]	; (80019b8 <regulacija_pozicije+0x2f0>)
 8001934:	edd3 7a00 	vldr	s15, [r3]
 8001938:	eeb4 7ae7 	vcmpe.f32	s14, s15
 800193c:	eef1 fa10 	vmrs	APSR_nzcv, fpscr
 8001940:	bf94      	ite	ls
 8001942:	2301      	movls	r3, #1
 8001944:	2300      	movhi	r3, #0
 8001946:	b2da      	uxtb	r2, r3
 8001948:	4b28      	ldr	r3, [pc, #160]	; (80019ec <regulacija_pozicije+0x324>)
 800194a:	edd3 7a00 	vldr	s15, [r3]
 800194e:	eef0 7ae7 	vabs.f32	s15, s15
 8001952:	eeb7 7a00 	vmov.f32	s14, #112	; 0x3f800000  1.0
 8001956:	eef4 7ac7 	vcmpe.f32	s15, s14
 800195a:	eef1 fa10 	vmrs	APSR_nzcv, fpscr
 800195e:	bf94      	ite	ls
 8001960:	2301      	movls	r3, #1
 8001962:	2300      	movhi	r3, #0
 8001964:	b2db      	uxtb	r3, r3
 8001966:	4013      	ands	r3, r2
 8001968:	b2db      	uxtb	r3, r3
 800196a:	2b00      	cmp	r3, #0
 800196c:	f000 810f 	beq.w	8001b8e <regulacija_pozicije+0x4c6>
			//0.001 greska bila
			faza=1;
 8001970:	4b19      	ldr	r3, [pc, #100]	; (80019d8 <regulacija_pozicije+0x310>)
 8001972:	2201      	movs	r2, #1
 8001974:	601a      	str	r2, [r3, #0]
			test1=2;
 8001976:	4b19      	ldr	r3, [pc, #100]	; (80019dc <regulacija_pozicije+0x314>)
 8001978:	2202      	movs	r2, #2
 800197a:	601a      	str	r2, [r3, #0]
 800197c:	e107      	b.n	8001b8e <regulacija_pozicije+0x4c6>
 800197e:	bf00      	nop
 8001980:	54442d18 	.word	0x54442d18
 8001984:	400921fb 	.word	0x400921fb
 8001988:	00000000 	.word	0x00000000
 800198c:	40000000 	.word	0x40000000
 8001990:	200000fc 	.word	0x200000fc
 8001994:	20000100 	.word	0x20000100
 8001998:	200000e0 	.word	0x200000e0
 800199c:	20000000 	.word	0x20000000
 80019a0:	20000104 	.word	0x20000104
 80019a4:	20000108 	.word	0x20000108
 80019a8:	2000010c 	.word	0x2000010c
 80019ac:	20000110 	.word	0x20000110
 80019b0:	20000114 	.word	0x20000114
 80019b4:	40c00000 	.word	0x40c00000
 80019b8:	20000118 	.word	0x20000118
 80019bc:	3d8efa35 	.word	0x3d8efa35
 80019c0:	2000011c 	.word	0x2000011c
 80019c4:	41100000 	.word	0x41100000
 80019c8:	20000120 	.word	0x20000120
 80019cc:	40333333 	.word	0x40333333
 80019d0:	43340000 	.word	0x43340000
 80019d4:	200000d4 	.word	0x200000d4
 80019d8:	200000f0 	.word	0x200000f0
 80019dc:	200000ec 	.word	0x200000ec
 80019e0:	200001b0 	.word	0x200001b0
 80019e4:	41600000 	.word	0x41600000
 80019e8:	200000d8 	.word	0x200000d8
 80019ec:	20000124 	.word	0x20000124

		}
	}
	else if (faza ==1){
 80019f0:	4bab      	ldr	r3, [pc, #684]	; (8001ca0 <regulacija_pozicije+0x5d8>)
 80019f2:	681b      	ldr	r3, [r3, #0]
 80019f4:	2b01      	cmp	r3, #1
 80019f6:	d17d      	bne.n	8001af4 <regulacija_pozicije+0x42c>
	if(v_cr > 400){
 80019f8:	4baa      	ldr	r3, [pc, #680]	; (8001ca4 <regulacija_pozicije+0x5dc>)
 80019fa:	edd3 7a00 	vldr	s15, [r3]
 80019fe:	ed9f 7aaa 	vldr	s14, [pc, #680]	; 8001ca8 <regulacija_pozicije+0x5e0>
 8001a02:	eef4 7ac7 	vcmpe.f32	s15, s14
 8001a06:	eef1 fa10 	vmrs	APSR_nzcv, fpscr
 8001a0a:	dd02      	ble.n	8001a12 <regulacija_pozicije+0x34a>
			Kp_d=2.3;
 8001a0c:	4ba7      	ldr	r3, [pc, #668]	; (8001cac <regulacija_pozicije+0x5e4>)
 8001a0e:	4aa8      	ldr	r2, [pc, #672]	; (8001cb0 <regulacija_pozicije+0x5e8>)
 8001a10:	601a      	str	r2, [r3, #0]
		}
	if(v_cr > 800){
 8001a12:	4ba4      	ldr	r3, [pc, #656]	; (8001ca4 <regulacija_pozicije+0x5dc>)
 8001a14:	edd3 7a00 	vldr	s15, [r3]
 8001a18:	ed9f 7aa6 	vldr	s14, [pc, #664]	; 8001cb4 <regulacija_pozicije+0x5ec>
 8001a1c:	eef4 7ac7 	vcmpe.f32	s15, s14
 8001a20:	eef1 fa10 	vmrs	APSR_nzcv, fpscr
 8001a24:	dd02      	ble.n	8001a2c <regulacija_pozicije+0x364>
				Kp_d=1.7;
 8001a26:	4ba1      	ldr	r3, [pc, #644]	; (8001cac <regulacija_pozicije+0x5e4>)
 8001a28:	4aa3      	ldr	r2, [pc, #652]	; (8001cb8 <regulacija_pozicije+0x5f0>)
 8001a2a:	601a      	str	r2, [r3, #0]
			}
	if(v_cr > 1190){
 8001a2c:	4b9d      	ldr	r3, [pc, #628]	; (8001ca4 <regulacija_pozicije+0x5dc>)
 8001a2e:	edd3 7a00 	vldr	s15, [r3]
 8001a32:	ed9f 7aa2 	vldr	s14, [pc, #648]	; 8001cbc <regulacija_pozicije+0x5f4>
 8001a36:	eef4 7ac7 	vcmpe.f32	s15, s14
 8001a3a:	eef1 fa10 	vmrs	APSR_nzcv, fpscr
 8001a3e:	dd02      	ble.n	8001a46 <regulacija_pozicije+0x37e>
					Kp_d=1.69;
 8001a40:	4b9a      	ldr	r3, [pc, #616]	; (8001cac <regulacija_pozicije+0x5e4>)
 8001a42:	4a9f      	ldr	r2, [pc, #636]	; (8001cc0 <regulacija_pozicije+0x5f8>)
 8001a44:	601a      	str	r2, [r3, #0]
				}
		w_pid = Kp_w * phi_error;
 8001a46:	4b9f      	ldr	r3, [pc, #636]	; (8001cc4 <regulacija_pozicije+0x5fc>)
 8001a48:	ed93 7a00 	vldr	s14, [r3]
 8001a4c:	4b9e      	ldr	r3, [pc, #632]	; (8001cc8 <regulacija_pozicije+0x600>)
 8001a4e:	edd3 7a00 	vldr	s15, [r3]
 8001a52:	ee67 7a27 	vmul.f32	s15, s14, s15
 8001a56:	4b9d      	ldr	r3, [pc, #628]	; (8001ccc <regulacija_pozicije+0x604>)
 8001a58:	edc3 7a00 	vstr	s15, [r3]
		v_pid = Kp_d * dist;
 8001a5c:	4b93      	ldr	r3, [pc, #588]	; (8001cac <regulacija_pozicije+0x5e4>)
 8001a5e:	ed93 7a00 	vldr	s14, [r3]
 8001a62:	4b9b      	ldr	r3, [pc, #620]	; (8001cd0 <regulacija_pozicije+0x608>)
 8001a64:	edd3 7a00 	vldr	s15, [r3]
 8001a68:	ee67 7a27 	vmul.f32	s15, s14, s15
 8001a6c:	4b99      	ldr	r3, [pc, #612]	; (8001cd4 <regulacija_pozicije+0x60c>)
 8001a6e:	edc3 7a00 	vstr	s15, [r3]
			}
		}
		*/


		greska1=(phi_error*180/M_PI);
 8001a72:	4b95      	ldr	r3, [pc, #596]	; (8001cc8 <regulacija_pozicije+0x600>)
 8001a74:	edd3 7a00 	vldr	s15, [r3]
 8001a78:	ed9f 7a97 	vldr	s14, [pc, #604]	; 8001cd8 <regulacija_pozicije+0x610>
 8001a7c:	ee67 7a87 	vmul.f32	s15, s15, s14
 8001a80:	ee17 0a90 	vmov	r0, s15
 8001a84:	f7fe fd0c 	bl	80004a0 <__aeabi_f2d>
 8001a88:	a383      	add	r3, pc, #524	; (adr r3, 8001c98 <regulacija_pozicije+0x5d0>)
 8001a8a:	e9d3 2300 	ldrd	r2, r3, [r3]
 8001a8e:	f7fe fe89 	bl	80007a4 <__aeabi_ddiv>
 8001a92:	4603      	mov	r3, r0
 8001a94:	460c      	mov	r4, r1
 8001a96:	4618      	mov	r0, r3
 8001a98:	4621      	mov	r1, r4
 8001a9a:	f7ff f831 	bl	8000b00 <__aeabi_d2f>
 8001a9e:	4602      	mov	r2, r0
 8001aa0:	4b8e      	ldr	r3, [pc, #568]	; (8001cdc <regulacija_pozicije+0x614>)
 8001aa2:	601a      	str	r2, [r3, #0]
		if ((fabs(dist) <= eps_dist) & (fabs(get_v()) <= 10))
 8001aa4:	4b8a      	ldr	r3, [pc, #552]	; (8001cd0 <regulacija_pozicije+0x608>)
 8001aa6:	edd3 7a00 	vldr	s15, [r3]
 8001aaa:	eeb0 7ae7 	vabs.f32	s14, s15
 8001aae:	4b8c      	ldr	r3, [pc, #560]	; (8001ce0 <regulacija_pozicije+0x618>)
 8001ab0:	edd3 7a00 	vldr	s15, [r3]
 8001ab4:	eeb4 7ae7 	vcmpe.f32	s14, s15
 8001ab8:	eef1 fa10 	vmrs	APSR_nzcv, fpscr
 8001abc:	bf94      	ite	ls
 8001abe:	2301      	movls	r3, #1
 8001ac0:	2300      	movhi	r3, #0
 8001ac2:	b2dc      	uxtb	r4, r3
 8001ac4:	f7ff fc48 	bl	8001358 <get_v>
 8001ac8:	eef0 7a40 	vmov.f32	s15, s0
 8001acc:	eef0 7ae7 	vabs.f32	s15, s15
 8001ad0:	eeb2 7a04 	vmov.f32	s14, #36	; 0x41200000  10.0
 8001ad4:	eef4 7ac7 	vcmpe.f32	s15, s14
 8001ad8:	eef1 fa10 	vmrs	APSR_nzcv, fpscr
 8001adc:	bf94      	ite	ls
 8001ade:	2301      	movls	r3, #1
 8001ae0:	2300      	movhi	r3, #0
 8001ae2:	b2db      	uxtb	r3, r3
 8001ae4:	4023      	ands	r3, r4
 8001ae6:	b2db      	uxtb	r3, r3
 8001ae8:	2b00      	cmp	r3, #0
 8001aea:	d050      	beq.n	8001b8e <regulacija_pozicije+0x4c6>
			faza =2;
 8001aec:	4b6c      	ldr	r3, [pc, #432]	; (8001ca0 <regulacija_pozicije+0x5d8>)
 8001aee:	2202      	movs	r2, #2
 8001af0:	601a      	str	r2, [r3, #0]
 8001af2:	e04c      	b.n	8001b8e <regulacija_pozicije+0x4c6>
			//faza= 2;
		//else if( (fabs(disty) <= eps_disty) & (fabs(get_v()) <= 10))
				//	faza= 2;

	}
	else if (faza ==2){
 8001af4:	4b6a      	ldr	r3, [pc, #424]	; (8001ca0 <regulacija_pozicije+0x5d8>)
 8001af6:	681b      	ldr	r3, [r3, #0]
 8001af8:	2b02      	cmp	r3, #2
 8001afa:	d148      	bne.n	8001b8e <regulacija_pozicije+0x4c6>
		v_pid=0;
 8001afc:	4b75      	ldr	r3, [pc, #468]	; (8001cd4 <regulacija_pozicije+0x60c>)
 8001afe:	f04f 0200 	mov.w	r2, #0
 8001b02:	601a      	str	r2, [r3, #0]
		if(w_cr<=2)
 8001b04:	4b77      	ldr	r3, [pc, #476]	; (8001ce4 <regulacija_pozicije+0x61c>)
 8001b06:	edd3 7a00 	vldr	s15, [r3]
 8001b0a:	eeb0 7a00 	vmov.f32	s14, #0	; 0x40000000  2.0
 8001b0e:	eef4 7ac7 	vcmpe.f32	s15, s14
 8001b12:	eef1 fa10 	vmrs	APSR_nzcv, fpscr
 8001b16:	d802      	bhi.n	8001b1e <regulacija_pozicije+0x456>
					Kp_w=11;
 8001b18:	4b6a      	ldr	r3, [pc, #424]	; (8001cc4 <regulacija_pozicije+0x5fc>)
 8001b1a:	4a73      	ldr	r2, [pc, #460]	; (8001ce8 <regulacija_pozicije+0x620>)
 8001b1c:	601a      	str	r2, [r3, #0]
		w_pid=Kp_w * phi_prim_error;
 8001b1e:	4b69      	ldr	r3, [pc, #420]	; (8001cc4 <regulacija_pozicije+0x5fc>)
 8001b20:	ed93 7a00 	vldr	s14, [r3]
 8001b24:	4b71      	ldr	r3, [pc, #452]	; (8001cec <regulacija_pozicije+0x624>)
 8001b26:	edd3 7a00 	vldr	s15, [r3]
 8001b2a:	ee67 7a27 	vmul.f32	s15, s14, s15
 8001b2e:	4b67      	ldr	r3, [pc, #412]	; (8001ccc <regulacija_pozicije+0x604>)
 8001b30:	edc3 7a00 	vstr	s15, [r3]


		uslov = get_w ();
 8001b34:	f7ff fc02 	bl	800133c <get_w>
 8001b38:	eef0 7a40 	vmov.f32	s15, s0
 8001b3c:	4b6c      	ldr	r3, [pc, #432]	; (8001cf0 <regulacija_pozicije+0x628>)
 8001b3e:	edc3 7a00 	vstr	s15, [r3]
		if((fabs(phi_prim_error) <= eps_theta) & (fabs(uslov) <= 1)){
 8001b42:	4b6a      	ldr	r3, [pc, #424]	; (8001cec <regulacija_pozicije+0x624>)
 8001b44:	edd3 7a00 	vldr	s15, [r3]
 8001b48:	eeb0 7ae7 	vabs.f32	s14, s15
 8001b4c:	4b69      	ldr	r3, [pc, #420]	; (8001cf4 <regulacija_pozicije+0x62c>)
 8001b4e:	edd3 7a00 	vldr	s15, [r3]
 8001b52:	eeb4 7ae7 	vcmpe.f32	s14, s15
 8001b56:	eef1 fa10 	vmrs	APSR_nzcv, fpscr
 8001b5a:	bf94      	ite	ls
 8001b5c:	2301      	movls	r3, #1
 8001b5e:	2300      	movhi	r3, #0
 8001b60:	b2da      	uxtb	r2, r3
 8001b62:	4b63      	ldr	r3, [pc, #396]	; (8001cf0 <regulacija_pozicije+0x628>)
 8001b64:	edd3 7a00 	vldr	s15, [r3]
 8001b68:	eef0 7ae7 	vabs.f32	s15, s15
 8001b6c:	eeb7 7a00 	vmov.f32	s14, #112	; 0x3f800000  1.0
 8001b70:	eef4 7ac7 	vcmpe.f32	s15, s14
 8001b74:	eef1 fa10 	vmrs	APSR_nzcv, fpscr
 8001b78:	bf94      	ite	ls
 8001b7a:	2301      	movls	r3, #1
 8001b7c:	2300      	movhi	r3, #0
 8001b7e:	b2db      	uxtb	r3, r3
 8001b80:	4013      	ands	r3, r2
 8001b82:	b2db      	uxtb	r3, r3
 8001b84:	2b00      	cmp	r3, #0
 8001b86:	d002      	beq.n	8001b8e <regulacija_pozicije+0x4c6>
			faza=3;
 8001b88:	4b45      	ldr	r3, [pc, #276]	; (8001ca0 <regulacija_pozicije+0x5d8>)
 8001b8a:	2203      	movs	r2, #3
 8001b8c:	601a      	str	r2, [r3, #0]
		}
	}



	if( (v_pid < v_cr) & (v_pid > -v_cr))
 8001b8e:	4b51      	ldr	r3, [pc, #324]	; (8001cd4 <regulacija_pozicije+0x60c>)
 8001b90:	ed93 7a00 	vldr	s14, [r3]
 8001b94:	4b43      	ldr	r3, [pc, #268]	; (8001ca4 <regulacija_pozicije+0x5dc>)
 8001b96:	edd3 7a00 	vldr	s15, [r3]
 8001b9a:	eeb4 7ae7 	vcmpe.f32	s14, s15
 8001b9e:	eef1 fa10 	vmrs	APSR_nzcv, fpscr
 8001ba2:	bf4c      	ite	mi
 8001ba4:	2301      	movmi	r3, #1
 8001ba6:	2300      	movpl	r3, #0
 8001ba8:	b2da      	uxtb	r2, r3
 8001baa:	4b3e      	ldr	r3, [pc, #248]	; (8001ca4 <regulacija_pozicije+0x5dc>)
 8001bac:	edd3 7a00 	vldr	s15, [r3]
 8001bb0:	eeb1 7a67 	vneg.f32	s14, s15
 8001bb4:	4b47      	ldr	r3, [pc, #284]	; (8001cd4 <regulacija_pozicije+0x60c>)
 8001bb6:	edd3 7a00 	vldr	s15, [r3]
 8001bba:	eeb4 7ae7 	vcmpe.f32	s14, s15
 8001bbe:	eef1 fa10 	vmrs	APSR_nzcv, fpscr
 8001bc2:	bf4c      	ite	mi
 8001bc4:	2301      	movmi	r3, #1
 8001bc6:	2300      	movpl	r3, #0
 8001bc8:	b2db      	uxtb	r3, r3
 8001bca:	4013      	ands	r3, r2
 8001bcc:	b2db      	uxtb	r3, r3
 8001bce:	2b00      	cmp	r3, #0
 8001bd0:	d004      	beq.n	8001bdc <regulacija_pozicije+0x514>
		v = v_pid;
 8001bd2:	4b40      	ldr	r3, [pc, #256]	; (8001cd4 <regulacija_pozicije+0x60c>)
 8001bd4:	681b      	ldr	r3, [r3, #0]
 8001bd6:	4a48      	ldr	r2, [pc, #288]	; (8001cf8 <regulacija_pozicije+0x630>)
 8001bd8:	6013      	str	r3, [r2, #0]
 8001bda:	e024      	b.n	8001c26 <regulacija_pozicije+0x55e>
	else if (v_pid>v_cr)
 8001bdc:	4b3d      	ldr	r3, [pc, #244]	; (8001cd4 <regulacija_pozicije+0x60c>)
 8001bde:	ed93 7a00 	vldr	s14, [r3]
 8001be2:	4b30      	ldr	r3, [pc, #192]	; (8001ca4 <regulacija_pozicije+0x5dc>)
 8001be4:	edd3 7a00 	vldr	s15, [r3]
 8001be8:	eeb4 7ae7 	vcmpe.f32	s14, s15
 8001bec:	eef1 fa10 	vmrs	APSR_nzcv, fpscr
 8001bf0:	dd04      	ble.n	8001bfc <regulacija_pozicije+0x534>
		v=v_cr;
 8001bf2:	4b2c      	ldr	r3, [pc, #176]	; (8001ca4 <regulacija_pozicije+0x5dc>)
 8001bf4:	681b      	ldr	r3, [r3, #0]
 8001bf6:	4a40      	ldr	r2, [pc, #256]	; (8001cf8 <regulacija_pozicije+0x630>)
 8001bf8:	6013      	str	r3, [r2, #0]
 8001bfa:	e014      	b.n	8001c26 <regulacija_pozicije+0x55e>
	else if(v_pid<-v_cr)
 8001bfc:	4b29      	ldr	r3, [pc, #164]	; (8001ca4 <regulacija_pozicije+0x5dc>)
 8001bfe:	edd3 7a00 	vldr	s15, [r3]
 8001c02:	eeb1 7a67 	vneg.f32	s14, s15
 8001c06:	4b33      	ldr	r3, [pc, #204]	; (8001cd4 <regulacija_pozicije+0x60c>)
 8001c08:	edd3 7a00 	vldr	s15, [r3]
 8001c0c:	eeb4 7ae7 	vcmpe.f32	s14, s15
 8001c10:	eef1 fa10 	vmrs	APSR_nzcv, fpscr
 8001c14:	dd07      	ble.n	8001c26 <regulacija_pozicije+0x55e>
		v = -v_cr;
 8001c16:	4b23      	ldr	r3, [pc, #140]	; (8001ca4 <regulacija_pozicije+0x5dc>)
 8001c18:	edd3 7a00 	vldr	s15, [r3]
 8001c1c:	eef1 7a67 	vneg.f32	s15, s15
 8001c20:	4b35      	ldr	r3, [pc, #212]	; (8001cf8 <regulacija_pozicije+0x630>)
 8001c22:	edc3 7a00 	vstr	s15, [r3]



	if( (w_pid < w_cr) & (w_pid > -w_cr))
 8001c26:	4b29      	ldr	r3, [pc, #164]	; (8001ccc <regulacija_pozicije+0x604>)
 8001c28:	ed93 7a00 	vldr	s14, [r3]
 8001c2c:	4b2d      	ldr	r3, [pc, #180]	; (8001ce4 <regulacija_pozicije+0x61c>)
 8001c2e:	edd3 7a00 	vldr	s15, [r3]
 8001c32:	eeb4 7ae7 	vcmpe.f32	s14, s15
 8001c36:	eef1 fa10 	vmrs	APSR_nzcv, fpscr
 8001c3a:	bf4c      	ite	mi
 8001c3c:	2301      	movmi	r3, #1
 8001c3e:	2300      	movpl	r3, #0
 8001c40:	b2da      	uxtb	r2, r3
 8001c42:	4b28      	ldr	r3, [pc, #160]	; (8001ce4 <regulacija_pozicije+0x61c>)
 8001c44:	edd3 7a00 	vldr	s15, [r3]
 8001c48:	eeb1 7a67 	vneg.f32	s14, s15
 8001c4c:	4b1f      	ldr	r3, [pc, #124]	; (8001ccc <regulacija_pozicije+0x604>)
 8001c4e:	edd3 7a00 	vldr	s15, [r3]
 8001c52:	eeb4 7ae7 	vcmpe.f32	s14, s15
 8001c56:	eef1 fa10 	vmrs	APSR_nzcv, fpscr
 8001c5a:	bf4c      	ite	mi
 8001c5c:	2301      	movmi	r3, #1
 8001c5e:	2300      	movpl	r3, #0
 8001c60:	b2db      	uxtb	r3, r3
 8001c62:	4013      	ands	r3, r2
 8001c64:	b2db      	uxtb	r3, r3
 8001c66:	2b00      	cmp	r3, #0
 8001c68:	d004      	beq.n	8001c74 <regulacija_pozicije+0x5ac>
		w = w_pid;
 8001c6a:	4b18      	ldr	r3, [pc, #96]	; (8001ccc <regulacija_pozicije+0x604>)
 8001c6c:	681b      	ldr	r3, [r3, #0]
 8001c6e:	4a23      	ldr	r2, [pc, #140]	; (8001cfc <regulacija_pozicije+0x634>)
 8001c70:	6013      	str	r3, [r2, #0]
 8001c72:	e05a      	b.n	8001d2a <regulacija_pozicije+0x662>
	else if (w_pid>w_cr)
 8001c74:	4b15      	ldr	r3, [pc, #84]	; (8001ccc <regulacija_pozicije+0x604>)
 8001c76:	ed93 7a00 	vldr	s14, [r3]
 8001c7a:	4b1a      	ldr	r3, [pc, #104]	; (8001ce4 <regulacija_pozicije+0x61c>)
 8001c7c:	edd3 7a00 	vldr	s15, [r3]
 8001c80:	eeb4 7ae7 	vcmpe.f32	s14, s15
 8001c84:	eef1 fa10 	vmrs	APSR_nzcv, fpscr
 8001c88:	dd3a      	ble.n	8001d00 <regulacija_pozicije+0x638>
		w=w_cr;
 8001c8a:	4b16      	ldr	r3, [pc, #88]	; (8001ce4 <regulacija_pozicije+0x61c>)
 8001c8c:	681b      	ldr	r3, [r3, #0]
 8001c8e:	4a1b      	ldr	r2, [pc, #108]	; (8001cfc <regulacija_pozicije+0x634>)
 8001c90:	6013      	str	r3, [r2, #0]
 8001c92:	e04a      	b.n	8001d2a <regulacija_pozicije+0x662>
 8001c94:	f3af 8000 	nop.w
 8001c98:	54442d18 	.word	0x54442d18
 8001c9c:	400921fb 	.word	0x400921fb
 8001ca0:	200000f0 	.word	0x200000f0
 8001ca4:	200001b8 	.word	0x200001b8
 8001ca8:	43c80000 	.word	0x43c80000
 8001cac:	20000120 	.word	0x20000120
 8001cb0:	40133333 	.word	0x40133333
 8001cb4:	44480000 	.word	0x44480000
 8001cb8:	3fd9999a 	.word	0x3fd9999a
 8001cbc:	4494c000 	.word	0x4494c000
 8001cc0:	3fd851ec 	.word	0x3fd851ec
 8001cc4:	2000011c 	.word	0x2000011c
 8001cc8:	2000010c 	.word	0x2000010c
 8001ccc:	20000100 	.word	0x20000100
 8001cd0:	20000104 	.word	0x20000104
 8001cd4:	200000fc 	.word	0x200000fc
 8001cd8:	43340000 	.word	0x43340000
 8001cdc:	200000d8 	.word	0x200000d8
 8001ce0:	20000114 	.word	0x20000114
 8001ce4:	200001b0 	.word	0x200001b0
 8001ce8:	41300000 	.word	0x41300000
 8001cec:	20000110 	.word	0x20000110
 8001cf0:	20000124 	.word	0x20000124
 8001cf4:	20000118 	.word	0x20000118
 8001cf8:	200000f8 	.word	0x200000f8
 8001cfc:	200000f4 	.word	0x200000f4
	else if(w_pid<-w_cr)
 8001d00:	4b12      	ldr	r3, [pc, #72]	; (8001d4c <regulacija_pozicije+0x684>)
 8001d02:	edd3 7a00 	vldr	s15, [r3]
 8001d06:	eeb1 7a67 	vneg.f32	s14, s15
 8001d0a:	4b11      	ldr	r3, [pc, #68]	; (8001d50 <regulacija_pozicije+0x688>)
 8001d0c:	edd3 7a00 	vldr	s15, [r3]
 8001d10:	eeb4 7ae7 	vcmpe.f32	s14, s15
 8001d14:	eef1 fa10 	vmrs	APSR_nzcv, fpscr
 8001d18:	dd07      	ble.n	8001d2a <regulacija_pozicije+0x662>
		w = -w_cr;
 8001d1a:	4b0c      	ldr	r3, [pc, #48]	; (8001d4c <regulacija_pozicije+0x684>)
 8001d1c:	edd3 7a00 	vldr	s15, [r3]
 8001d20:	eef1 7a67 	vneg.f32	s15, s15
 8001d24:	4b0b      	ldr	r3, [pc, #44]	; (8001d54 <regulacija_pozicije+0x68c>)
 8001d26:	edc3 7a00 	vstr	s15, [r3]

	racunanje_brzine(v,w);
 8001d2a:	4b0b      	ldr	r3, [pc, #44]	; (8001d58 <regulacija_pozicije+0x690>)
 8001d2c:	edd3 7a00 	vldr	s15, [r3]
 8001d30:	4b08      	ldr	r3, [pc, #32]	; (8001d54 <regulacija_pozicije+0x68c>)
 8001d32:	ed93 7a00 	vldr	s14, [r3]
 8001d36:	eef0 0a47 	vmov.f32	s1, s14
 8001d3a:	eeb0 0a67 	vmov.f32	s0, s15
 8001d3e:	f7ff fc5b 	bl	80015f8 <racunanje_brzine>

}
 8001d42:	bf00      	nop
 8001d44:	3718      	adds	r7, #24
 8001d46:	46bd      	mov	sp, r7
 8001d48:	e8bd 83b0 	ldmia.w	sp!, {r4, r5, r7, r8, r9, pc}
 8001d4c:	200001b0 	.word	0x200001b0
 8001d50:	20000100 	.word	0x20000100
 8001d54:	200000f4 	.word	0x200000f4
 8001d58:	200000f8 	.word	0x200000f8
 8001d5c:	00000000 	.word	0x00000000

08001d60 <regulacija_brzine>:



void regulacija_brzine(){
 8001d60:	b598      	push	{r3, r4, r7, lr}
 8001d62:	af00      	add	r7, sp, #0


//saturacija trazene
	 if (vel_d > vel_max){
 8001d64:	4b82      	ldr	r3, [pc, #520]	; (8001f70 <regulacija_brzine+0x210>)
 8001d66:	edd3 7a00 	vldr	s15, [r3]
 8001d6a:	ed9f 7a82 	vldr	s14, [pc, #520]	; 8001f74 <regulacija_brzine+0x214>
 8001d6e:	eef4 7ac7 	vcmpe.f32	s15, s14
 8001d72:	eef1 fa10 	vmrs	APSR_nzcv, fpscr
 8001d76:	dd03      	ble.n	8001d80 <regulacija_brzine+0x20>
		 vel_d = vel_max;
 8001d78:	4a7f      	ldr	r2, [pc, #508]	; (8001f78 <regulacija_brzine+0x218>)
 8001d7a:	4b7d      	ldr	r3, [pc, #500]	; (8001f70 <regulacija_brzine+0x210>)
 8001d7c:	601a      	str	r2, [r3, #0]
 8001d7e:	e00c      	b.n	8001d9a <regulacija_brzine+0x3a>
	 }
     else if (vel_d < vel_min){
 8001d80:	4b7b      	ldr	r3, [pc, #492]	; (8001f70 <regulacija_brzine+0x210>)
 8001d82:	edd3 7a00 	vldr	s15, [r3]
 8001d86:	ed9f 7a7d 	vldr	s14, [pc, #500]	; 8001f7c <regulacija_brzine+0x21c>
 8001d8a:	eef4 7ac7 	vcmpe.f32	s15, s14
 8001d8e:	eef1 fa10 	vmrs	APSR_nzcv, fpscr
 8001d92:	d502      	bpl.n	8001d9a <regulacija_brzine+0x3a>
    	 vel_d = vel_min;
 8001d94:	4a7a      	ldr	r2, [pc, #488]	; (8001f80 <regulacija_brzine+0x220>)
 8001d96:	4b76      	ldr	r3, [pc, #472]	; (8001f70 <regulacija_brzine+0x210>)
 8001d98:	601a      	str	r2, [r3, #0]
     }

	 if (vel_l > vel_max){
 8001d9a:	4b7a      	ldr	r3, [pc, #488]	; (8001f84 <regulacija_brzine+0x224>)
 8001d9c:	edd3 7a00 	vldr	s15, [r3]
 8001da0:	ed9f 7a74 	vldr	s14, [pc, #464]	; 8001f74 <regulacija_brzine+0x214>
 8001da4:	eef4 7ac7 	vcmpe.f32	s15, s14
 8001da8:	eef1 fa10 	vmrs	APSR_nzcv, fpscr
 8001dac:	dd03      	ble.n	8001db6 <regulacija_brzine+0x56>
			 vel_l = vel_max;
 8001dae:	4a72      	ldr	r2, [pc, #456]	; (8001f78 <regulacija_brzine+0x218>)
 8001db0:	4b74      	ldr	r3, [pc, #464]	; (8001f84 <regulacija_brzine+0x224>)
 8001db2:	601a      	str	r2, [r3, #0]
 8001db4:	e00c      	b.n	8001dd0 <regulacija_brzine+0x70>
		 }
	 else if (vel_l < vel_min){
 8001db6:	4b73      	ldr	r3, [pc, #460]	; (8001f84 <regulacija_brzine+0x224>)
 8001db8:	edd3 7a00 	vldr	s15, [r3]
 8001dbc:	ed9f 7a6f 	vldr	s14, [pc, #444]	; 8001f7c <regulacija_brzine+0x21c>
 8001dc0:	eef4 7ac7 	vcmpe.f32	s15, s14
 8001dc4:	eef1 fa10 	vmrs	APSR_nzcv, fpscr
 8001dc8:	d502      	bpl.n	8001dd0 <regulacija_brzine+0x70>
	    	 vel_l = vel_min;
 8001dca:	4a6d      	ldr	r2, [pc, #436]	; (8001f80 <regulacija_brzine+0x220>)
 8001dcc:	4b6d      	ldr	r3, [pc, #436]	; (8001f84 <regulacija_brzine+0x224>)
 8001dce:	601a      	str	r2, [r3, #0]
	     }

// ubrzanje
	//

	 if(v_dref < vel_d)
 8001dd0:	4b6d      	ldr	r3, [pc, #436]	; (8001f88 <regulacija_brzine+0x228>)
 8001dd2:	ed93 7a00 	vldr	s14, [r3]
 8001dd6:	4b66      	ldr	r3, [pc, #408]	; (8001f70 <regulacija_brzine+0x210>)
 8001dd8:	edd3 7a00 	vldr	s15, [r3]
 8001ddc:	eeb4 7ae7 	vcmpe.f32	s14, s15
 8001de0:	eef1 fa10 	vmrs	APSR_nzcv, fpscr
 8001de4:	d513      	bpl.n	8001e0e <regulacija_brzine+0xae>
		 v_dref +=0.7;
 8001de6:	4b68      	ldr	r3, [pc, #416]	; (8001f88 <regulacija_brzine+0x228>)
 8001de8:	681b      	ldr	r3, [r3, #0]
 8001dea:	4618      	mov	r0, r3
 8001dec:	f7fe fb58 	bl	80004a0 <__aeabi_f2d>
 8001df0:	a35d      	add	r3, pc, #372	; (adr r3, 8001f68 <regulacija_brzine+0x208>)
 8001df2:	e9d3 2300 	ldrd	r2, r3, [r3]
 8001df6:	f7fe f9f5 	bl	80001e4 <__adddf3>
 8001dfa:	4603      	mov	r3, r0
 8001dfc:	460c      	mov	r4, r1
 8001dfe:	4618      	mov	r0, r3
 8001e00:	4621      	mov	r1, r4
 8001e02:	f7fe fe7d 	bl	8000b00 <__aeabi_d2f>
 8001e06:	4602      	mov	r2, r0
 8001e08:	4b5f      	ldr	r3, [pc, #380]	; (8001f88 <regulacija_brzine+0x228>)
 8001e0a:	601a      	str	r2, [r3, #0]
 8001e0c:	e022      	b.n	8001e54 <regulacija_brzine+0xf4>
	 else if(v_dref > vel_d)
 8001e0e:	4b5e      	ldr	r3, [pc, #376]	; (8001f88 <regulacija_brzine+0x228>)
 8001e10:	ed93 7a00 	vldr	s14, [r3]
 8001e14:	4b56      	ldr	r3, [pc, #344]	; (8001f70 <regulacija_brzine+0x210>)
 8001e16:	edd3 7a00 	vldr	s15, [r3]
 8001e1a:	eeb4 7ae7 	vcmpe.f32	s14, s15
 8001e1e:	eef1 fa10 	vmrs	APSR_nzcv, fpscr
 8001e22:	dd13      	ble.n	8001e4c <regulacija_brzine+0xec>
		//v_dref = vel_d - 0.6;
		 v_dref -= 0.7;
 8001e24:	4b58      	ldr	r3, [pc, #352]	; (8001f88 <regulacija_brzine+0x228>)
 8001e26:	681b      	ldr	r3, [r3, #0]
 8001e28:	4618      	mov	r0, r3
 8001e2a:	f7fe fb39 	bl	80004a0 <__aeabi_f2d>
 8001e2e:	a34e      	add	r3, pc, #312	; (adr r3, 8001f68 <regulacija_brzine+0x208>)
 8001e30:	e9d3 2300 	ldrd	r2, r3, [r3]
 8001e34:	f7fe f9d4 	bl	80001e0 <__aeabi_dsub>
 8001e38:	4603      	mov	r3, r0
 8001e3a:	460c      	mov	r4, r1
 8001e3c:	4618      	mov	r0, r3
 8001e3e:	4621      	mov	r1, r4
 8001e40:	f7fe fe5e 	bl	8000b00 <__aeabi_d2f>
 8001e44:	4602      	mov	r2, r0
 8001e46:	4b50      	ldr	r3, [pc, #320]	; (8001f88 <regulacija_brzine+0x228>)
 8001e48:	601a      	str	r2, [r3, #0]
 8001e4a:	e003      	b.n	8001e54 <regulacija_brzine+0xf4>
	else
		 v_dref=vel_d;
 8001e4c:	4b48      	ldr	r3, [pc, #288]	; (8001f70 <regulacija_brzine+0x210>)
 8001e4e:	681b      	ldr	r3, [r3, #0]
 8001e50:	4a4d      	ldr	r2, [pc, #308]	; (8001f88 <regulacija_brzine+0x228>)
 8001e52:	6013      	str	r3, [r2, #0]

	 if(v_lref < vel_l)
 8001e54:	4b4d      	ldr	r3, [pc, #308]	; (8001f8c <regulacija_brzine+0x22c>)
 8001e56:	ed93 7a00 	vldr	s14, [r3]
 8001e5a:	4b4a      	ldr	r3, [pc, #296]	; (8001f84 <regulacija_brzine+0x224>)
 8001e5c:	edd3 7a00 	vldr	s15, [r3]
 8001e60:	eeb4 7ae7 	vcmpe.f32	s14, s15
 8001e64:	eef1 fa10 	vmrs	APSR_nzcv, fpscr
 8001e68:	d513      	bpl.n	8001e92 <regulacija_brzine+0x132>
		v_lref += 0.7;
 8001e6a:	4b48      	ldr	r3, [pc, #288]	; (8001f8c <regulacija_brzine+0x22c>)
 8001e6c:	681b      	ldr	r3, [r3, #0]
 8001e6e:	4618      	mov	r0, r3
 8001e70:	f7fe fb16 	bl	80004a0 <__aeabi_f2d>
 8001e74:	a33c      	add	r3, pc, #240	; (adr r3, 8001f68 <regulacija_brzine+0x208>)
 8001e76:	e9d3 2300 	ldrd	r2, r3, [r3]
 8001e7a:	f7fe f9b3 	bl	80001e4 <__adddf3>
 8001e7e:	4603      	mov	r3, r0
 8001e80:	460c      	mov	r4, r1
 8001e82:	4618      	mov	r0, r3
 8001e84:	4621      	mov	r1, r4
 8001e86:	f7fe fe3b 	bl	8000b00 <__aeabi_d2f>
 8001e8a:	4602      	mov	r2, r0
 8001e8c:	4b3f      	ldr	r3, [pc, #252]	; (8001f8c <regulacija_brzine+0x22c>)
 8001e8e:	601a      	str	r2, [r3, #0]
 8001e90:	e022      	b.n	8001ed8 <regulacija_brzine+0x178>
	 else if(v_lref > vel_l)
 8001e92:	4b3e      	ldr	r3, [pc, #248]	; (8001f8c <regulacija_brzine+0x22c>)
 8001e94:	ed93 7a00 	vldr	s14, [r3]
 8001e98:	4b3a      	ldr	r3, [pc, #232]	; (8001f84 <regulacija_brzine+0x224>)
 8001e9a:	edd3 7a00 	vldr	s15, [r3]
 8001e9e:	eeb4 7ae7 	vcmpe.f32	s14, s15
 8001ea2:	eef1 fa10 	vmrs	APSR_nzcv, fpscr
 8001ea6:	dd13      	ble.n	8001ed0 <regulacija_brzine+0x170>
		// v_lref=vel_l - 0.6;
		 v_lref -= 0.7;
 8001ea8:	4b38      	ldr	r3, [pc, #224]	; (8001f8c <regulacija_brzine+0x22c>)
 8001eaa:	681b      	ldr	r3, [r3, #0]
 8001eac:	4618      	mov	r0, r3
 8001eae:	f7fe faf7 	bl	80004a0 <__aeabi_f2d>
 8001eb2:	a32d      	add	r3, pc, #180	; (adr r3, 8001f68 <regulacija_brzine+0x208>)
 8001eb4:	e9d3 2300 	ldrd	r2, r3, [r3]
 8001eb8:	f7fe f992 	bl	80001e0 <__aeabi_dsub>
 8001ebc:	4603      	mov	r3, r0
 8001ebe:	460c      	mov	r4, r1
 8001ec0:	4618      	mov	r0, r3
 8001ec2:	4621      	mov	r1, r4
 8001ec4:	f7fe fe1c 	bl	8000b00 <__aeabi_d2f>
 8001ec8:	4602      	mov	r2, r0
 8001eca:	4b30      	ldr	r3, [pc, #192]	; (8001f8c <regulacija_brzine+0x22c>)
 8001ecc:	601a      	str	r2, [r3, #0]
 8001ece:	e003      	b.n	8001ed8 <regulacija_brzine+0x178>
	 else
		 v_lref=vel_l;
 8001ed0:	4b2c      	ldr	r3, [pc, #176]	; (8001f84 <regulacija_brzine+0x224>)
 8001ed2:	681b      	ldr	r3, [r3, #0]
 8001ed4:	4a2d      	ldr	r2, [pc, #180]	; (8001f8c <regulacija_brzine+0x22c>)
 8001ed6:	6013      	str	r3, [r2, #0]




	 u_l=pid_brzina(4, 0.105, 0, v_lref, v_l); //kp 4.3 bilo
 8001ed8:	4b2c      	ldr	r3, [pc, #176]	; (8001f8c <regulacija_brzine+0x22c>)
 8001eda:	edd3 7a00 	vldr	s15, [r3]
 8001ede:	4b2c      	ldr	r3, [pc, #176]	; (8001f90 <regulacija_brzine+0x230>)
 8001ee0:	ed93 7a00 	vldr	s14, [r3]
 8001ee4:	eeb0 2a47 	vmov.f32	s4, s14
 8001ee8:	eef0 1a67 	vmov.f32	s3, s15
 8001eec:	ed9f 1a29 	vldr	s2, [pc, #164]	; 8001f94 <regulacija_brzine+0x234>
 8001ef0:	eddf 0a29 	vldr	s1, [pc, #164]	; 8001f98 <regulacija_brzine+0x238>
 8001ef4:	eeb1 0a00 	vmov.f32	s0, #16	; 0x40800000  4.0
 8001ef8:	f7ff fada 	bl	80014b0 <pid_brzina>
 8001efc:	eef0 7a40 	vmov.f32	s15, s0
 8001f00:	4b26      	ldr	r3, [pc, #152]	; (8001f9c <regulacija_brzine+0x23c>)
 8001f02:	edc3 7a00 	vstr	s15, [r3]
	 u_d=pid_brzina(4, 0.105, 0, v_dref, v_r);
 8001f06:	4b20      	ldr	r3, [pc, #128]	; (8001f88 <regulacija_brzine+0x228>)
 8001f08:	edd3 7a00 	vldr	s15, [r3]
 8001f0c:	4b24      	ldr	r3, [pc, #144]	; (8001fa0 <regulacija_brzine+0x240>)
 8001f0e:	ed93 7a00 	vldr	s14, [r3]
 8001f12:	eeb0 2a47 	vmov.f32	s4, s14
 8001f16:	eef0 1a67 	vmov.f32	s3, s15
 8001f1a:	ed9f 1a1e 	vldr	s2, [pc, #120]	; 8001f94 <regulacija_brzine+0x234>
 8001f1e:	eddf 0a1e 	vldr	s1, [pc, #120]	; 8001f98 <regulacija_brzine+0x238>
 8001f22:	eeb1 0a00 	vmov.f32	s0, #16	; 0x40800000  4.0
 8001f26:	f7ff fac3 	bl	80014b0 <pid_brzina>
 8001f2a:	eef0 7a40 	vmov.f32	s15, s0
 8001f2e:	4b1d      	ldr	r3, [pc, #116]	; (8001fa4 <regulacija_brzine+0x244>)
 8001f30:	edc3 7a00 	vstr	s15, [r3]

	 motor1_set_PWM((int16_t)u_d); //probaj ovde da dodas mnozenje sa -or ili tako nes
 8001f34:	4b1b      	ldr	r3, [pc, #108]	; (8001fa4 <regulacija_brzine+0x244>)
 8001f36:	edd3 7a00 	vldr	s15, [r3]
 8001f3a:	eefd 7ae7 	vcvt.s32.f32	s15, s15
 8001f3e:	ee17 3a90 	vmov	r3, s15
 8001f42:	b21b      	sxth	r3, r3
 8001f44:	4618      	mov	r0, r3
 8001f46:	f000 f943 	bl	80021d0 <motor1_set_PWM>
	 motor2_set_PWM((int16_t)u_l);
 8001f4a:	4b14      	ldr	r3, [pc, #80]	; (8001f9c <regulacija_brzine+0x23c>)
 8001f4c:	edd3 7a00 	vldr	s15, [r3]
 8001f50:	eefd 7ae7 	vcvt.s32.f32	s15, s15
 8001f54:	ee17 3a90 	vmov	r3, s15
 8001f58:	b21b      	sxth	r3, r3
 8001f5a:	4618      	mov	r0, r3
 8001f5c:	f000 f97e 	bl	800225c <motor2_set_PWM>
}
 8001f60:	bf00      	nop
 8001f62:	bd98      	pop	{r3, r4, r7, pc}
 8001f64:	f3af 8000 	nop.w
 8001f68:	66666666 	.word	0x66666666
 8001f6c:	3fe66666 	.word	0x3fe66666
 8001f70:	200001a4 	.word	0x200001a4
 8001f74:	45034000 	.word	0x45034000
 8001f78:	45034000 	.word	0x45034000
 8001f7c:	c5034000 	.word	0xc5034000
 8001f80:	c5034000 	.word	0xc5034000
 8001f84:	2000019c 	.word	0x2000019c
 8001f88:	200001b4 	.word	0x200001b4
 8001f8c:	200001ac 	.word	0x200001ac
 8001f90:	200001a0 	.word	0x200001a0
 8001f94:	00000000 	.word	0x00000000
 8001f98:	3dd70a3d 	.word	0x3dd70a3d
 8001f9c:	2000012c 	.word	0x2000012c
 8001fa0:	200001a8 	.word	0x200001a8
 8001fa4:	20000128 	.word	0x20000128

08001fa8 <get_faza>:


int get_faza(){
 8001fa8:	b480      	push	{r7}
 8001faa:	af00      	add	r7, sp, #0
	return faza;
 8001fac:	4b03      	ldr	r3, [pc, #12]	; (8001fbc <get_faza+0x14>)
 8001fae:	681b      	ldr	r3, [r3, #0]
}
 8001fb0:	4618      	mov	r0, r3
 8001fb2:	46bd      	mov	sp, r7
 8001fb4:	f85d 7b04 	ldr.w	r7, [sp], #4
 8001fb8:	4770      	bx	lr
 8001fba:	bf00      	nop
 8001fbc:	200000f0 	.word	0x200000f0

08001fc0 <set_v_cr>:

void set_faza(){
	faza=0;
}

void set_v_cr(float novo){
 8001fc0:	b480      	push	{r7}
 8001fc2:	b083      	sub	sp, #12
 8001fc4:	af00      	add	r7, sp, #0
 8001fc6:	ed87 0a01 	vstr	s0, [r7, #4]
	v_cr=novo;
 8001fca:	4a04      	ldr	r2, [pc, #16]	; (8001fdc <set_v_cr+0x1c>)
 8001fcc:	687b      	ldr	r3, [r7, #4]
 8001fce:	6013      	str	r3, [r2, #0]
}
 8001fd0:	bf00      	nop
 8001fd2:	370c      	adds	r7, #12
 8001fd4:	46bd      	mov	sp, r7
 8001fd6:	f85d 7b04 	ldr.w	r7, [sp], #4
 8001fda:	4770      	bx	lr
 8001fdc:	200001b8 	.word	0x200001b8

08001fe0 <set_w_cr>:
void set_w_cr(float novo){
 8001fe0:	b480      	push	{r7}
 8001fe2:	b083      	sub	sp, #12
 8001fe4:	af00      	add	r7, sp, #0
 8001fe6:	ed87 0a01 	vstr	s0, [r7, #4]
	w_cr=novo;
 8001fea:	4a04      	ldr	r2, [pc, #16]	; (8001ffc <set_w_cr+0x1c>)
 8001fec:	687b      	ldr	r3, [r7, #4]
 8001fee:	6013      	str	r3, [r2, #0]
}
 8001ff0:	bf00      	nop
 8001ff2:	370c      	adds	r7, #12
 8001ff4:	46bd      	mov	sp, r7
 8001ff6:	f85d 7b04 	ldr.w	r7, [sp], #4
 8001ffa:	4770      	bx	lr
 8001ffc:	200001b0 	.word	0x200001b0

08002000 <set_dist>:

void set_dist(int a){
 8002000:	b480      	push	{r7}
 8002002:	b083      	sub	sp, #12
 8002004:	af00      	add	r7, sp, #0
 8002006:	6078      	str	r0, [r7, #4]
	smer=a;
 8002008:	4a04      	ldr	r2, [pc, #16]	; (800201c <set_dist+0x1c>)
 800200a:	687b      	ldr	r3, [r7, #4]
 800200c:	6013      	str	r3, [r2, #0]
}
 800200e:	bf00      	nop
 8002010:	370c      	adds	r7, #12
 8002012:	46bd      	mov	sp, r7
 8002014:	f85d 7b04 	ldr.w	r7, [sp], #4
 8002018:	4770      	bx	lr
 800201a:	bf00      	nop
 800201c:	20000000 	.word	0x20000000

08002020 <set_or>:
void set_or(novo){
 8002020:	b480      	push	{r7}
 8002022:	b083      	sub	sp, #12
 8002024:	af00      	add	r7, sp, #0
 8002026:	6078      	str	r0, [r7, #4]
	or=novo;
 8002028:	4a04      	ldr	r2, [pc, #16]	; (800203c <set_or+0x1c>)
 800202a:	687b      	ldr	r3, [r7, #4]
 800202c:	6013      	str	r3, [r2, #0]
}
 800202e:	bf00      	nop
 8002030:	370c      	adds	r7, #12
 8002032:	46bd      	mov	sp, r7
 8002034:	f85d 7b04 	ldr.w	r7, [sp], #4
 8002038:	4770      	bx	lr
 800203a:	bf00      	nop
 800203c:	200000e0 	.word	0x200000e0

08002040 <init_PWM>:
 8002040:	b480      	push	{r7}
 8002042:	af00      	add	r7, sp, #0
 8002044:	4b5d      	ldr	r3, [pc, #372]	; (80021bc <init_PWM+0x17c>)
 8002046:	6b1b      	ldr	r3, [r3, #48]	; 0x30
 8002048:	4a5c      	ldr	r2, [pc, #368]	; (80021bc <init_PWM+0x17c>)
 800204a:	f043 0302 	orr.w	r3, r3, #2
 800204e:	6313      	str	r3, [r2, #48]	; 0x30
 8002050:	4b5a      	ldr	r3, [pc, #360]	; (80021bc <init_PWM+0x17c>)
 8002052:	6b1b      	ldr	r3, [r3, #48]	; 0x30
 8002054:	4a59      	ldr	r2, [pc, #356]	; (80021bc <init_PWM+0x17c>)
 8002056:	f043 0304 	orr.w	r3, r3, #4
 800205a:	6313      	str	r3, [r2, #48]	; 0x30
 800205c:	4b58      	ldr	r3, [pc, #352]	; (80021c0 <init_PWM+0x180>)
 800205e:	681b      	ldr	r3, [r3, #0]
 8002060:	4a57      	ldr	r2, [pc, #348]	; (80021c0 <init_PWM+0x180>)
 8002062:	f423 5340 	bic.w	r3, r3, #12288	; 0x3000
 8002066:	6013      	str	r3, [r2, #0]
 8002068:	4b55      	ldr	r3, [pc, #340]	; (80021c0 <init_PWM+0x180>)
 800206a:	681b      	ldr	r3, [r3, #0]
 800206c:	4a54      	ldr	r2, [pc, #336]	; (80021c0 <init_PWM+0x180>)
 800206e:	f443 5300 	orr.w	r3, r3, #8192	; 0x2000
 8002072:	6013      	str	r3, [r2, #0]
 8002074:	4b52      	ldr	r3, [pc, #328]	; (80021c0 <init_PWM+0x180>)
 8002076:	6a1b      	ldr	r3, [r3, #32]
 8002078:	4a51      	ldr	r2, [pc, #324]	; (80021c0 <init_PWM+0x180>)
 800207a:	f023 6370 	bic.w	r3, r3, #251658240	; 0xf000000
 800207e:	6213      	str	r3, [r2, #32]
 8002080:	4b4f      	ldr	r3, [pc, #316]	; (80021c0 <init_PWM+0x180>)
 8002082:	6a1b      	ldr	r3, [r3, #32]
 8002084:	4a4e      	ldr	r2, [pc, #312]	; (80021c0 <init_PWM+0x180>)
 8002086:	f043 7300 	orr.w	r3, r3, #33554432	; 0x2000000
 800208a:	6213      	str	r3, [r2, #32]
 800208c:	4b4d      	ldr	r3, [pc, #308]	; (80021c4 <init_PWM+0x184>)
 800208e:	681b      	ldr	r3, [r3, #0]
 8002090:	4a4c      	ldr	r2, [pc, #304]	; (80021c4 <init_PWM+0x184>)
 8002092:	f423 4340 	bic.w	r3, r3, #49152	; 0xc000
 8002096:	6013      	str	r3, [r2, #0]
 8002098:	4b4a      	ldr	r3, [pc, #296]	; (80021c4 <init_PWM+0x184>)
 800209a:	681b      	ldr	r3, [r3, #0]
 800209c:	4a49      	ldr	r2, [pc, #292]	; (80021c4 <init_PWM+0x184>)
 800209e:	f443 4300 	orr.w	r3, r3, #32768	; 0x8000
 80020a2:	6013      	str	r3, [r2, #0]
 80020a4:	4b47      	ldr	r3, [pc, #284]	; (80021c4 <init_PWM+0x184>)
 80020a6:	6a1b      	ldr	r3, [r3, #32]
 80020a8:	4a46      	ldr	r2, [pc, #280]	; (80021c4 <init_PWM+0x184>)
 80020aa:	f023 4370 	bic.w	r3, r3, #4026531840	; 0xf0000000
 80020ae:	6213      	str	r3, [r2, #32]
 80020b0:	4b44      	ldr	r3, [pc, #272]	; (80021c4 <init_PWM+0x184>)
 80020b2:	6a1b      	ldr	r3, [r3, #32]
 80020b4:	4a43      	ldr	r2, [pc, #268]	; (80021c4 <init_PWM+0x184>)
 80020b6:	f043 5300 	orr.w	r3, r3, #536870912	; 0x20000000
 80020ba:	6213      	str	r3, [r2, #32]
 80020bc:	4b3f      	ldr	r3, [pc, #252]	; (80021bc <init_PWM+0x17c>)
 80020be:	6c1b      	ldr	r3, [r3, #64]	; 0x40
 80020c0:	4a3e      	ldr	r2, [pc, #248]	; (80021bc <init_PWM+0x17c>)
 80020c2:	f043 0302 	orr.w	r3, r3, #2
 80020c6:	6413      	str	r3, [r2, #64]	; 0x40
 80020c8:	4b3f      	ldr	r3, [pc, #252]	; (80021c8 <init_PWM+0x188>)
 80020ca:	2200      	movs	r2, #0
 80020cc:	629a      	str	r2, [r3, #40]	; 0x28
 80020ce:	4b3e      	ldr	r3, [pc, #248]	; (80021c8 <init_PWM+0x188>)
 80020d0:	f640 0233 	movw	r2, #2099	; 0x833
 80020d4:	62da      	str	r2, [r3, #44]	; 0x2c
 80020d6:	4b3c      	ldr	r3, [pc, #240]	; (80021c8 <init_PWM+0x188>)
 80020d8:	2200      	movs	r2, #0
 80020da:	639a      	str	r2, [r3, #56]	; 0x38
 80020dc:	4b3a      	ldr	r3, [pc, #232]	; (80021c8 <init_PWM+0x188>)
 80020de:	699b      	ldr	r3, [r3, #24]
 80020e0:	4a39      	ldr	r2, [pc, #228]	; (80021c8 <init_PWM+0x188>)
 80020e2:	f423 43e0 	bic.w	r3, r3, #28672	; 0x7000
 80020e6:	6193      	str	r3, [r2, #24]
 80020e8:	4b37      	ldr	r3, [pc, #220]	; (80021c8 <init_PWM+0x188>)
 80020ea:	699b      	ldr	r3, [r3, #24]
 80020ec:	4a36      	ldr	r2, [pc, #216]	; (80021c8 <init_PWM+0x188>)
 80020ee:	f443 43c0 	orr.w	r3, r3, #24576	; 0x6000
 80020f2:	6193      	str	r3, [r2, #24]
 80020f4:	4b34      	ldr	r3, [pc, #208]	; (80021c8 <init_PWM+0x188>)
 80020f6:	699b      	ldr	r3, [r3, #24]
 80020f8:	4a33      	ldr	r2, [pc, #204]	; (80021c8 <init_PWM+0x188>)
 80020fa:	f443 6300 	orr.w	r3, r3, #2048	; 0x800
 80020fe:	6193      	str	r3, [r2, #24]
 8002100:	4b31      	ldr	r3, [pc, #196]	; (80021c8 <init_PWM+0x188>)
 8002102:	2200      	movs	r2, #0
 8002104:	639a      	str	r2, [r3, #56]	; 0x38
 8002106:	4b30      	ldr	r3, [pc, #192]	; (80021c8 <init_PWM+0x188>)
 8002108:	695b      	ldr	r3, [r3, #20]
 800210a:	4a2f      	ldr	r2, [pc, #188]	; (80021c8 <init_PWM+0x188>)
 800210c:	f043 0301 	orr.w	r3, r3, #1
 8002110:	6153      	str	r3, [r2, #20]
 8002112:	4b2d      	ldr	r3, [pc, #180]	; (80021c8 <init_PWM+0x188>)
 8002114:	6a1b      	ldr	r3, [r3, #32]
 8002116:	4a2c      	ldr	r2, [pc, #176]	; (80021c8 <init_PWM+0x188>)
 8002118:	f043 0310 	orr.w	r3, r3, #16
 800211c:	6213      	str	r3, [r2, #32]
 800211e:	4b2a      	ldr	r3, [pc, #168]	; (80021c8 <init_PWM+0x188>)
 8002120:	681b      	ldr	r3, [r3, #0]
 8002122:	4a29      	ldr	r2, [pc, #164]	; (80021c8 <init_PWM+0x188>)
 8002124:	f043 0380 	orr.w	r3, r3, #128	; 0x80
 8002128:	6013      	str	r3, [r2, #0]
 800212a:	4b27      	ldr	r3, [pc, #156]	; (80021c8 <init_PWM+0x188>)
 800212c:	681b      	ldr	r3, [r3, #0]
 800212e:	4a26      	ldr	r2, [pc, #152]	; (80021c8 <init_PWM+0x188>)
 8002130:	f043 0301 	orr.w	r3, r3, #1
 8002134:	6013      	str	r3, [r2, #0]
 8002136:	4b21      	ldr	r3, [pc, #132]	; (80021bc <init_PWM+0x17c>)
 8002138:	6c1b      	ldr	r3, [r3, #64]	; 0x40
 800213a:	4a20      	ldr	r2, [pc, #128]	; (80021bc <init_PWM+0x17c>)
 800213c:	f043 0304 	orr.w	r3, r3, #4
 8002140:	6413      	str	r3, [r2, #64]	; 0x40
 8002142:	4b22      	ldr	r3, [pc, #136]	; (80021cc <init_PWM+0x18c>)
 8002144:	2200      	movs	r2, #0
 8002146:	629a      	str	r2, [r3, #40]	; 0x28
 8002148:	4b20      	ldr	r3, [pc, #128]	; (80021cc <init_PWM+0x18c>)
 800214a:	f640 0233 	movw	r2, #2099	; 0x833
 800214e:	62da      	str	r2, [r3, #44]	; 0x2c
 8002150:	4b1e      	ldr	r3, [pc, #120]	; (80021cc <init_PWM+0x18c>)
 8002152:	2200      	movs	r2, #0
 8002154:	635a      	str	r2, [r3, #52]	; 0x34
 8002156:	4b1d      	ldr	r3, [pc, #116]	; (80021cc <init_PWM+0x18c>)
 8002158:	699b      	ldr	r3, [r3, #24]
 800215a:	4a1c      	ldr	r2, [pc, #112]	; (80021cc <init_PWM+0x18c>)
 800215c:	f023 0370 	bic.w	r3, r3, #112	; 0x70
 8002160:	6193      	str	r3, [r2, #24]
 8002162:	4b1a      	ldr	r3, [pc, #104]	; (80021cc <init_PWM+0x18c>)
 8002164:	699b      	ldr	r3, [r3, #24]
 8002166:	4a19      	ldr	r2, [pc, #100]	; (80021cc <init_PWM+0x18c>)
 8002168:	f043 0360 	orr.w	r3, r3, #96	; 0x60
 800216c:	6193      	str	r3, [r2, #24]
 800216e:	4b17      	ldr	r3, [pc, #92]	; (80021cc <init_PWM+0x18c>)
 8002170:	699b      	ldr	r3, [r3, #24]
 8002172:	4a16      	ldr	r2, [pc, #88]	; (80021cc <init_PWM+0x18c>)
 8002174:	f043 0308 	orr.w	r3, r3, #8
 8002178:	6193      	str	r3, [r2, #24]
 800217a:	4b14      	ldr	r3, [pc, #80]	; (80021cc <init_PWM+0x18c>)
 800217c:	2200      	movs	r2, #0
 800217e:	635a      	str	r2, [r3, #52]	; 0x34
 8002180:	4b12      	ldr	r3, [pc, #72]	; (80021cc <init_PWM+0x18c>)
 8002182:	695b      	ldr	r3, [r3, #20]
 8002184:	4a11      	ldr	r2, [pc, #68]	; (80021cc <init_PWM+0x18c>)
 8002186:	f043 0301 	orr.w	r3, r3, #1
 800218a:	6153      	str	r3, [r2, #20]
 800218c:	4b0f      	ldr	r3, [pc, #60]	; (80021cc <init_PWM+0x18c>)
 800218e:	6a1b      	ldr	r3, [r3, #32]
 8002190:	4a0e      	ldr	r2, [pc, #56]	; (80021cc <init_PWM+0x18c>)
 8002192:	f043 0301 	orr.w	r3, r3, #1
 8002196:	6213      	str	r3, [r2, #32]
 8002198:	4b0c      	ldr	r3, [pc, #48]	; (80021cc <init_PWM+0x18c>)
 800219a:	681b      	ldr	r3, [r3, #0]
 800219c:	4a0b      	ldr	r2, [pc, #44]	; (80021cc <init_PWM+0x18c>)
 800219e:	f043 0380 	orr.w	r3, r3, #128	; 0x80
 80021a2:	6013      	str	r3, [r2, #0]
 80021a4:	4b09      	ldr	r3, [pc, #36]	; (80021cc <init_PWM+0x18c>)
 80021a6:	681b      	ldr	r3, [r3, #0]
 80021a8:	4a08      	ldr	r2, [pc, #32]	; (80021cc <init_PWM+0x18c>)
 80021aa:	f043 0301 	orr.w	r3, r3, #1
 80021ae:	6013      	str	r3, [r2, #0]
 80021b0:	bf00      	nop
 80021b2:	46bd      	mov	sp, r7
 80021b4:	f85d 7b04 	ldr.w	r7, [sp], #4
 80021b8:	4770      	bx	lr
 80021ba:	bf00      	nop
 80021bc:	40023800 	.word	0x40023800
 80021c0:	40020400 	.word	0x40020400
 80021c4:	40020800 	.word	0x40020800
 80021c8:	40000400 	.word	0x40000400
 80021cc:	40000800 	.word	0x40000800

080021d0 <motor1_set_PWM>:
 80021d0:	b5b0      	push	{r4, r5, r7, lr}
 80021d2:	b082      	sub	sp, #8
 80021d4:	af00      	add	r7, sp, #0
 80021d6:	4603      	mov	r3, r0
 80021d8:	80fb      	strh	r3, [r7, #6]
 80021da:	f9b7 3006 	ldrsh.w	r3, [r7, #6]
 80021de:	2b00      	cmp	r3, #0
 80021e0:	da06      	bge.n	80021f0 <motor1_set_PWM+0x20>
 80021e2:	4b1b      	ldr	r3, [pc, #108]	; (8002250 <motor1_set_PWM+0x80>)
 80021e4:	695b      	ldr	r3, [r3, #20]
 80021e6:	4a1a      	ldr	r2, [pc, #104]	; (8002250 <motor1_set_PWM+0x80>)
 80021e8:	f423 7380 	bic.w	r3, r3, #256	; 0x100
 80021ec:	6153      	str	r3, [r2, #20]
 80021ee:	e009      	b.n	8002204 <motor1_set_PWM+0x34>
 80021f0:	f9b7 3006 	ldrsh.w	r3, [r7, #6]
 80021f4:	2b00      	cmp	r3, #0
 80021f6:	db05      	blt.n	8002204 <motor1_set_PWM+0x34>
 80021f8:	4b15      	ldr	r3, [pc, #84]	; (8002250 <motor1_set_PWM+0x80>)
 80021fa:	695b      	ldr	r3, [r3, #20]
 80021fc:	4a14      	ldr	r2, [pc, #80]	; (8002250 <motor1_set_PWM+0x80>)
 80021fe:	f443 7380 	orr.w	r3, r3, #256	; 0x100
 8002202:	6153      	str	r3, [r2, #20]
 8002204:	f9b7 3006 	ldrsh.w	r3, [r7, #6]
 8002208:	4618      	mov	r0, r3
 800220a:	f7fe f937 	bl	800047c <__aeabi_i2d>
 800220e:	4602      	mov	r2, r0
 8002210:	460b      	mov	r3, r1
 8002212:	4614      	mov	r4, r2
 8002214:	f023 4500 	bic.w	r5, r3, #2147483648	; 0x80000000
 8002218:	4620      	mov	r0, r4
 800221a:	4629      	mov	r1, r5
 800221c:	f7fe fc48 	bl	8000ab0 <__aeabi_d2iz>
 8002220:	4603      	mov	r3, r0
 8002222:	80fb      	strh	r3, [r7, #6]
 8002224:	f9b7 3006 	ldrsh.w	r3, [r7, #6]
 8002228:	f640 0233 	movw	r2, #2099	; 0x833
 800222c:	4293      	cmp	r3, r2
 800222e:	dd02      	ble.n	8002236 <motor1_set_PWM+0x66>
 8002230:	f640 0333 	movw	r3, #2099	; 0x833
 8002234:	80fb      	strh	r3, [r7, #6]
 8002236:	4a07      	ldr	r2, [pc, #28]	; (8002254 <motor1_set_PWM+0x84>)
 8002238:	f9b7 3006 	ldrsh.w	r3, [r7, #6]
 800223c:	6393      	str	r3, [r2, #56]	; 0x38
 800223e:	4b05      	ldr	r3, [pc, #20]	; (8002254 <motor1_set_PWM+0x84>)
 8002240:	6b9b      	ldr	r3, [r3, #56]	; 0x38
 8002242:	4a05      	ldr	r2, [pc, #20]	; (8002258 <motor1_set_PWM+0x88>)
 8002244:	6013      	str	r3, [r2, #0]
 8002246:	bf00      	nop
 8002248:	3708      	adds	r7, #8
 800224a:	46bd      	mov	sp, r7
 800224c:	bdb0      	pop	{r4, r5, r7, pc}
 800224e:	bf00      	nop
 8002250:	40020000 	.word	0x40020000
 8002254:	40000400 	.word	0x40000400
 8002258:	20000130 	.word	0x20000130

0800225c <motor2_set_PWM>:
 800225c:	b5b0      	push	{r4, r5, r7, lr}
 800225e:	b082      	sub	sp, #8
 8002260:	af00      	add	r7, sp, #0
 8002262:	4603      	mov	r3, r0
 8002264:	80fb      	strh	r3, [r7, #6]
 8002266:	f9b7 3006 	ldrsh.w	r3, [r7, #6]
 800226a:	2b00      	cmp	r3, #0
 800226c:	da06      	bge.n	800227c <motor2_set_PWM+0x20>
 800226e:	4b1b      	ldr	r3, [pc, #108]	; (80022dc <motor2_set_PWM+0x80>)
 8002270:	695b      	ldr	r3, [r3, #20]
 8002272:	4a1a      	ldr	r2, [pc, #104]	; (80022dc <motor2_set_PWM+0x80>)
 8002274:	f423 7300 	bic.w	r3, r3, #512	; 0x200
 8002278:	6153      	str	r3, [r2, #20]
 800227a:	e009      	b.n	8002290 <motor2_set_PWM+0x34>
 800227c:	f9b7 3006 	ldrsh.w	r3, [r7, #6]
 8002280:	2b00      	cmp	r3, #0
 8002282:	db05      	blt.n	8002290 <motor2_set_PWM+0x34>
 8002284:	4b15      	ldr	r3, [pc, #84]	; (80022dc <motor2_set_PWM+0x80>)
 8002286:	695b      	ldr	r3, [r3, #20]
 8002288:	4a14      	ldr	r2, [pc, #80]	; (80022dc <motor2_set_PWM+0x80>)
 800228a:	f443 7300 	orr.w	r3, r3, #512	; 0x200
 800228e:	6153      	str	r3, [r2, #20]
 8002290:	f9b7 3006 	ldrsh.w	r3, [r7, #6]
 8002294:	4618      	mov	r0, r3
 8002296:	f7fe f8f1 	bl	800047c <__aeabi_i2d>
 800229a:	4602      	mov	r2, r0
 800229c:	460b      	mov	r3, r1
 800229e:	4614      	mov	r4, r2
 80022a0:	f023 4500 	bic.w	r5, r3, #2147483648	; 0x80000000
 80022a4:	4620      	mov	r0, r4
 80022a6:	4629      	mov	r1, r5
 80022a8:	f7fe fc02 	bl	8000ab0 <__aeabi_d2iz>
 80022ac:	4603      	mov	r3, r0
 80022ae:	80fb      	strh	r3, [r7, #6]
 80022b0:	f9b7 3006 	ldrsh.w	r3, [r7, #6]
 80022b4:	f640 0233 	movw	r2, #2099	; 0x833
 80022b8:	4293      	cmp	r3, r2
 80022ba:	dd02      	ble.n	80022c2 <motor2_set_PWM+0x66>
 80022bc:	f640 0333 	movw	r3, #2099	; 0x833
 80022c0:	80fb      	strh	r3, [r7, #6]
 80022c2:	4a07      	ldr	r2, [pc, #28]	; (80022e0 <motor2_set_PWM+0x84>)
 80022c4:	f9b7 3006 	ldrsh.w	r3, [r7, #6]
 80022c8:	6353      	str	r3, [r2, #52]	; 0x34
 80022ca:	4b05      	ldr	r3, [pc, #20]	; (80022e0 <motor2_set_PWM+0x84>)
 80022cc:	6b5b      	ldr	r3, [r3, #52]	; 0x34
 80022ce:	4a05      	ldr	r2, [pc, #20]	; (80022e4 <motor2_set_PWM+0x88>)
 80022d0:	6013      	str	r3, [r2, #0]
 80022d2:	bf00      	nop
 80022d4:	3708      	adds	r7, #8
 80022d6:	46bd      	mov	sp, r7
 80022d8:	bdb0      	pop	{r4, r5, r7, pc}
 80022da:	bf00      	nop
 80022dc:	40020000 	.word	0x40020000
 80022e0:	40000800 	.word	0x40000800
 80022e4:	20000134 	.word	0x20000134

080022e8 <init_senzor>:
 80022e8:	b480      	push	{r7}
 80022ea:	af00      	add	r7, sp, #0
 80022ec:	4b4a      	ldr	r3, [pc, #296]	; (8002418 <init_senzor+0x130>)
 80022ee:	6b1b      	ldr	r3, [r3, #48]	; 0x30
 80022f0:	4a49      	ldr	r2, [pc, #292]	; (8002418 <init_senzor+0x130>)
 80022f2:	f043 0304 	orr.w	r3, r3, #4
 80022f6:	6313      	str	r3, [r2, #48]	; 0x30
 80022f8:	4b47      	ldr	r3, [pc, #284]	; (8002418 <init_senzor+0x130>)
 80022fa:	6b1b      	ldr	r3, [r3, #48]	; 0x30
 80022fc:	4a46      	ldr	r2, [pc, #280]	; (8002418 <init_senzor+0x130>)
 80022fe:	f043 0301 	orr.w	r3, r3, #1
 8002302:	6313      	str	r3, [r2, #48]	; 0x30
 8002304:	4b45      	ldr	r3, [pc, #276]	; (800241c <init_senzor+0x134>)
 8002306:	681b      	ldr	r3, [r3, #0]
 8002308:	4a44      	ldr	r2, [pc, #272]	; (800241c <init_senzor+0x134>)
 800230a:	f023 7340 	bic.w	r3, r3, #50331648	; 0x3000000
 800230e:	6013      	str	r3, [r2, #0]
 8002310:	4b42      	ldr	r3, [pc, #264]	; (800241c <init_senzor+0x134>)
 8002312:	4a42      	ldr	r2, [pc, #264]	; (800241c <init_senzor+0x134>)
 8002314:	681b      	ldr	r3, [r3, #0]
 8002316:	6013      	str	r3, [r2, #0]
 8002318:	4b40      	ldr	r3, [pc, #256]	; (800241c <init_senzor+0x134>)
 800231a:	68db      	ldr	r3, [r3, #12]
 800231c:	4a3f      	ldr	r2, [pc, #252]	; (800241c <init_senzor+0x134>)
 800231e:	f023 7340 	bic.w	r3, r3, #50331648	; 0x3000000
 8002322:	60d3      	str	r3, [r2, #12]
 8002324:	4b3d      	ldr	r3, [pc, #244]	; (800241c <init_senzor+0x134>)
 8002326:	68db      	ldr	r3, [r3, #12]
 8002328:	4a3c      	ldr	r2, [pc, #240]	; (800241c <init_senzor+0x134>)
 800232a:	f043 7300 	orr.w	r3, r3, #33554432	; 0x2000000
 800232e:	60d3      	str	r3, [r2, #12]
 8002330:	4b3a      	ldr	r3, [pc, #232]	; (800241c <init_senzor+0x134>)
 8002332:	681b      	ldr	r3, [r3, #0]
 8002334:	4a39      	ldr	r2, [pc, #228]	; (800241c <init_senzor+0x134>)
 8002336:	f023 03c0 	bic.w	r3, r3, #192	; 0xc0
 800233a:	6013      	str	r3, [r2, #0]
 800233c:	4b37      	ldr	r3, [pc, #220]	; (800241c <init_senzor+0x134>)
 800233e:	4a37      	ldr	r2, [pc, #220]	; (800241c <init_senzor+0x134>)
 8002340:	681b      	ldr	r3, [r3, #0]
 8002342:	6013      	str	r3, [r2, #0]
 8002344:	4b35      	ldr	r3, [pc, #212]	; (800241c <init_senzor+0x134>)
 8002346:	68db      	ldr	r3, [r3, #12]
 8002348:	4a34      	ldr	r2, [pc, #208]	; (800241c <init_senzor+0x134>)
 800234a:	f023 03c0 	bic.w	r3, r3, #192	; 0xc0
 800234e:	60d3      	str	r3, [r2, #12]
 8002350:	4b32      	ldr	r3, [pc, #200]	; (800241c <init_senzor+0x134>)
 8002352:	68db      	ldr	r3, [r3, #12]
 8002354:	4a31      	ldr	r2, [pc, #196]	; (800241c <init_senzor+0x134>)
 8002356:	f043 0380 	orr.w	r3, r3, #128	; 0x80
 800235a:	60d3      	str	r3, [r2, #12]
 800235c:	4b30      	ldr	r3, [pc, #192]	; (8002420 <init_senzor+0x138>)
 800235e:	681b      	ldr	r3, [r3, #0]
 8002360:	4a2f      	ldr	r2, [pc, #188]	; (8002420 <init_senzor+0x138>)
 8002362:	f023 4340 	bic.w	r3, r3, #3221225472	; 0xc0000000
 8002366:	6013      	str	r3, [r2, #0]
 8002368:	4b2d      	ldr	r3, [pc, #180]	; (8002420 <init_senzor+0x138>)
 800236a:	4a2d      	ldr	r2, [pc, #180]	; (8002420 <init_senzor+0x138>)
 800236c:	681b      	ldr	r3, [r3, #0]
 800236e:	6013      	str	r3, [r2, #0]
 8002370:	4b2b      	ldr	r3, [pc, #172]	; (8002420 <init_senzor+0x138>)
 8002372:	68db      	ldr	r3, [r3, #12]
 8002374:	4a2a      	ldr	r2, [pc, #168]	; (8002420 <init_senzor+0x138>)
 8002376:	f023 4340 	bic.w	r3, r3, #3221225472	; 0xc0000000
 800237a:	60d3      	str	r3, [r2, #12]
 800237c:	4b28      	ldr	r3, [pc, #160]	; (8002420 <init_senzor+0x138>)
 800237e:	68db      	ldr	r3, [r3, #12]
 8002380:	4a27      	ldr	r2, [pc, #156]	; (8002420 <init_senzor+0x138>)
 8002382:	f043 4300 	orr.w	r3, r3, #2147483648	; 0x80000000
 8002386:	60d3      	str	r3, [r2, #12]
 8002388:	4b24      	ldr	r3, [pc, #144]	; (800241c <init_senzor+0x134>)
 800238a:	681b      	ldr	r3, [r3, #0]
 800238c:	4a23      	ldr	r2, [pc, #140]	; (800241c <init_senzor+0x134>)
 800238e:	f023 6340 	bic.w	r3, r3, #201326592	; 0xc000000
 8002392:	6013      	str	r3, [r2, #0]
 8002394:	4b21      	ldr	r3, [pc, #132]	; (800241c <init_senzor+0x134>)
 8002396:	4a21      	ldr	r2, [pc, #132]	; (800241c <init_senzor+0x134>)
 8002398:	681b      	ldr	r3, [r3, #0]
 800239a:	6013      	str	r3, [r2, #0]
 800239c:	4b1f      	ldr	r3, [pc, #124]	; (800241c <init_senzor+0x134>)
 800239e:	68db      	ldr	r3, [r3, #12]
 80023a0:	4a1e      	ldr	r2, [pc, #120]	; (800241c <init_senzor+0x134>)
 80023a2:	f023 6340 	bic.w	r3, r3, #201326592	; 0xc000000
 80023a6:	60d3      	str	r3, [r2, #12]
 80023a8:	4b1c      	ldr	r3, [pc, #112]	; (800241c <init_senzor+0x134>)
 80023aa:	68db      	ldr	r3, [r3, #12]
 80023ac:	4a1b      	ldr	r2, [pc, #108]	; (800241c <init_senzor+0x134>)
 80023ae:	f043 6300 	orr.w	r3, r3, #134217728	; 0x8000000
 80023b2:	60d3      	str	r3, [r2, #12]
 80023b4:	4b19      	ldr	r3, [pc, #100]	; (800241c <init_senzor+0x134>)
 80023b6:	681b      	ldr	r3, [r3, #0]
 80023b8:	4a18      	ldr	r2, [pc, #96]	; (800241c <init_senzor+0x134>)
 80023ba:	f023 0303 	bic.w	r3, r3, #3
 80023be:	6013      	str	r3, [r2, #0]
 80023c0:	4b16      	ldr	r3, [pc, #88]	; (800241c <init_senzor+0x134>)
 80023c2:	4a16      	ldr	r2, [pc, #88]	; (800241c <init_senzor+0x134>)
 80023c4:	681b      	ldr	r3, [r3, #0]
 80023c6:	6013      	str	r3, [r2, #0]
 80023c8:	4b14      	ldr	r3, [pc, #80]	; (800241c <init_senzor+0x134>)
 80023ca:	68db      	ldr	r3, [r3, #12]
 80023cc:	4a13      	ldr	r2, [pc, #76]	; (800241c <init_senzor+0x134>)
 80023ce:	f023 0303 	bic.w	r3, r3, #3
 80023d2:	60d3      	str	r3, [r2, #12]
 80023d4:	4b11      	ldr	r3, [pc, #68]	; (800241c <init_senzor+0x134>)
 80023d6:	68db      	ldr	r3, [r3, #12]
 80023d8:	4a10      	ldr	r2, [pc, #64]	; (800241c <init_senzor+0x134>)
 80023da:	f043 0302 	orr.w	r3, r3, #2
 80023de:	60d3      	str	r3, [r2, #12]
 80023e0:	4b0e      	ldr	r3, [pc, #56]	; (800241c <init_senzor+0x134>)
 80023e2:	681b      	ldr	r3, [r3, #0]
 80023e4:	4a0d      	ldr	r2, [pc, #52]	; (800241c <init_senzor+0x134>)
 80023e6:	f023 0330 	bic.w	r3, r3, #48	; 0x30
 80023ea:	6013      	str	r3, [r2, #0]
 80023ec:	4b0b      	ldr	r3, [pc, #44]	; (800241c <init_senzor+0x134>)
 80023ee:	4a0b      	ldr	r2, [pc, #44]	; (800241c <init_senzor+0x134>)
 80023f0:	681b      	ldr	r3, [r3, #0]
 80023f2:	6013      	str	r3, [r2, #0]
 80023f4:	4b09      	ldr	r3, [pc, #36]	; (800241c <init_senzor+0x134>)
 80023f6:	68db      	ldr	r3, [r3, #12]
 80023f8:	4a08      	ldr	r2, [pc, #32]	; (800241c <init_senzor+0x134>)
 80023fa:	f023 0330 	bic.w	r3, r3, #48	; 0x30
 80023fe:	60d3      	str	r3, [r2, #12]
 8002400:	4b06      	ldr	r3, [pc, #24]	; (800241c <init_senzor+0x134>)
 8002402:	68db      	ldr	r3, [r3, #12]
 8002404:	4a05      	ldr	r2, [pc, #20]	; (800241c <init_senzor+0x134>)
 8002406:	f043 0320 	orr.w	r3, r3, #32
 800240a:	60d3      	str	r3, [r2, #12]
 800240c:	bf00      	nop
 800240e:	46bd      	mov	sp, r7
 8002410:	f85d 7b04 	ldr.w	r7, [sp], #4
 8002414:	4770      	bx	lr
 8002416:	bf00      	nop
 8002418:	40023800 	.word	0x40023800
 800241c:	40020800 	.word	0x40020800
 8002420:	40020000 	.word	0x40020000

08002424 <tajmer_init>:
static float c=0;



void tajmer_init()
{
 8002424:	b580      	push	{r7, lr}
 8002426:	af00      	add	r7, sp, #0
  tim2_init ();
 8002428:	f000 f80a 	bl	8002440 <tim2_init>

}
 800242c:	bf00      	nop
 800242e:	bd80      	pop	{r7, pc}

08002430 <enc_init>:

void enc_init(){
 8002430:	b580      	push	{r7, lr}
 8002432:	af00      	add	r7, sp, #0
	 enc1_init();
 8002434:	f000 f85e 	bl	80024f4 <enc1_init>
	 enc2_init();
 8002438:	f000 f8ee 	bl	8002618 <enc2_init>
}
 800243c:	bf00      	nop
 800243e:	bd80      	pop	{r7, pc}

08002440 <tim2_init>:

static void
tim2_init ()
{
 8002440:	b480      	push	{r7}
 8002442:	b083      	sub	sp, #12
 8002444:	af00      	add	r7, sp, #0
  RCC->APB2ENR |= (0b1 << 0);
 8002446:	4b28      	ldr	r3, [pc, #160]	; (80024e8 <tim2_init+0xa8>)
 8002448:	6c5b      	ldr	r3, [r3, #68]	; 0x44
 800244a:	4a27      	ldr	r2, [pc, #156]	; (80024e8 <tim2_init+0xa8>)
 800244c:	f043 0301 	orr.w	r3, r3, #1
 8002450:	6453      	str	r3, [r2, #68]	; 0x44

  // 84MHz -> 1MHz
  TIM1->PSC = 84 - 1;
 8002452:	4b26      	ldr	r3, [pc, #152]	; (80024ec <tim2_init+0xac>)
 8002454:	2253      	movs	r2, #83	; 0x53
 8002456:	629a      	str	r2, [r3, #40]	; 0x28
  // 1MHz -> 1kHz
  TIM1->ARR = 1000 - 1;
 8002458:	4b24      	ldr	r3, [pc, #144]	; (80024ec <tim2_init+0xac>)
 800245a:	f240 32e7 	movw	r2, #999	; 0x3e7
 800245e:	62da      	str	r2, [r3, #44]	; 0x2c

  TIM1->CR1 &= ~(0b1 << 1);
 8002460:	4b22      	ldr	r3, [pc, #136]	; (80024ec <tim2_init+0xac>)
 8002462:	681b      	ldr	r3, [r3, #0]
 8002464:	4a21      	ldr	r2, [pc, #132]	; (80024ec <tim2_init+0xac>)
 8002466:	f023 0302 	bic.w	r3, r3, #2
 800246a:	6013      	str	r3, [r2, #0]
  TIM1->CR1 &= ~(0b1 << 2);
 800246c:	4b1f      	ldr	r3, [pc, #124]	; (80024ec <tim2_init+0xac>)
 800246e:	681b      	ldr	r3, [r3, #0]
 8002470:	4a1e      	ldr	r2, [pc, #120]	; (80024ec <tim2_init+0xac>)
 8002472:	f023 0304 	bic.w	r3, r3, #4
 8002476:	6013      	str	r3, [r2, #0]

  TIM1->EGR |= (0b1 << 0);
 8002478:	4b1c      	ldr	r3, [pc, #112]	; (80024ec <tim2_init+0xac>)
 800247a:	695b      	ldr	r3, [r3, #20]
 800247c:	4a1b      	ldr	r2, [pc, #108]	; (80024ec <tim2_init+0xac>)
 800247e:	f043 0301 	orr.w	r3, r3, #1
 8002482:	6153      	str	r3, [r2, #20]

  TIM1->DIER |= (0b1 << 0);
 8002484:	4b19      	ldr	r3, [pc, #100]	; (80024ec <tim2_init+0xac>)
 8002486:	68db      	ldr	r3, [r3, #12]
 8002488:	4a18      	ldr	r2, [pc, #96]	; (80024ec <tim2_init+0xac>)
 800248a:	f043 0301 	orr.w	r3, r3, #1
 800248e:	60d3      	str	r3, [r2, #12]

  while (!(TIM1->SR & (0b1 << 0)))
 8002490:	e000      	b.n	8002494 <tim2_init+0x54>
    {
      __NOP();
 8002492:	bf00      	nop
  while (!(TIM1->SR & (0b1 << 0)))
 8002494:	4b15      	ldr	r3, [pc, #84]	; (80024ec <tim2_init+0xac>)
 8002496:	691b      	ldr	r3, [r3, #16]
 8002498:	f003 0301 	and.w	r3, r3, #1
 800249c:	2b00      	cmp	r3, #0
 800249e:	d0f8      	beq.n	8002492 <tim2_init+0x52>
    }
  TIM1->SR &= ~(0b1 << 0);
 80024a0:	4b12      	ldr	r3, [pc, #72]	; (80024ec <tim2_init+0xac>)
 80024a2:	691b      	ldr	r3, [r3, #16]
 80024a4:	4a11      	ldr	r2, [pc, #68]	; (80024ec <tim2_init+0xac>)
 80024a6:	f023 0301 	bic.w	r3, r3, #1
 80024aa:	6113      	str	r3, [r2, #16]

  TIM1->CR1 |= (0b1 << 2);
 80024ac:	4b0f      	ldr	r3, [pc, #60]	; (80024ec <tim2_init+0xac>)
 80024ae:	681b      	ldr	r3, [r3, #0]
 80024b0:	4a0e      	ldr	r2, [pc, #56]	; (80024ec <tim2_init+0xac>)
 80024b2:	f043 0304 	orr.w	r3, r3, #4
 80024b6:	6013      	str	r3, [r2, #0]

  uint8_t const TIM1_PREKID = 25;
 80024b8:	2319      	movs	r3, #25
 80024ba:	71fb      	strb	r3, [r7, #7]
  NVIC->ISER[0] |= (0b1 << TIM1_PREKID);
 80024bc:	4b0c      	ldr	r3, [pc, #48]	; (80024f0 <tim2_init+0xb0>)
 80024be:	681b      	ldr	r3, [r3, #0]
 80024c0:	79fa      	ldrb	r2, [r7, #7]
 80024c2:	2101      	movs	r1, #1
 80024c4:	fa01 f202 	lsl.w	r2, r1, r2
 80024c8:	4611      	mov	r1, r2
 80024ca:	4a09      	ldr	r2, [pc, #36]	; (80024f0 <tim2_init+0xb0>)
 80024cc:	430b      	orrs	r3, r1
 80024ce:	6013      	str	r3, [r2, #0]

  TIM1->CR1 |= (0b1 << 0);
 80024d0:	4b06      	ldr	r3, [pc, #24]	; (80024ec <tim2_init+0xac>)
 80024d2:	681b      	ldr	r3, [r3, #0]
 80024d4:	4a05      	ldr	r2, [pc, #20]	; (80024ec <tim2_init+0xac>)
 80024d6:	f043 0301 	orr.w	r3, r3, #1
 80024da:	6013      	str	r3, [r2, #0]
}
 80024dc:	bf00      	nop
 80024de:	370c      	adds	r7, #12
 80024e0:	46bd      	mov	sp, r7
 80024e2:	f85d 7b04 	ldr.w	r7, [sp], #4
 80024e6:	4770      	bx	lr
 80024e8:	40023800 	.word	0x40023800
 80024ec:	40010000 	.word	0x40010000
 80024f0:	e000e100 	.word	0xe000e100

080024f4 <enc1_init>:

static void enc1_init()
{
 80024f4:	b480      	push	{r7}
 80024f6:	af00      	add	r7, sp, #0

	RCC->AHB1ENR |= (1 << 0); // A port
 80024f8:	4b38      	ldr	r3, [pc, #224]	; (80025dc <enc1_init+0xe8>)
 80024fa:	6b1b      	ldr	r3, [r3, #48]	; 0x30
 80024fc:	4a37      	ldr	r2, [pc, #220]	; (80025dc <enc1_init+0xe8>)
 80024fe:	f043 0301 	orr.w	r3, r3, #1
 8002502:	6313      	str	r3, [r2, #48]	; 0x30
	RCC->AHB1ENR |= (1 << 1); // B port
 8002504:	4b35      	ldr	r3, [pc, #212]	; (80025dc <enc1_init+0xe8>)
 8002506:	6b1b      	ldr	r3, [r3, #48]	; 0x30
 8002508:	4a34      	ldr	r2, [pc, #208]	; (80025dc <enc1_init+0xe8>)
 800250a:	f043 0302 	orr.w	r3, r3, #2
 800250e:	6313      	str	r3, [r2, #48]	; 0x30



	GPIOB->MODER |=  (0b10 << 3*2); //B3
 8002510:	4b33      	ldr	r3, [pc, #204]	; (80025e0 <enc1_init+0xec>)
 8002512:	681b      	ldr	r3, [r3, #0]
 8002514:	4a32      	ldr	r2, [pc, #200]	; (80025e0 <enc1_init+0xec>)
 8002516:	f043 0380 	orr.w	r3, r3, #128	; 0x80
 800251a:	6013      	str	r3, [r2, #0]
	GPIOA->MODER |=  (0b10 << 5*2); //A5
 800251c:	4b31      	ldr	r3, [pc, #196]	; (80025e4 <enc1_init+0xf0>)
 800251e:	681b      	ldr	r3, [r3, #0]
 8002520:	4a30      	ldr	r2, [pc, #192]	; (80025e4 <enc1_init+0xf0>)
 8002522:	f443 6300 	orr.w	r3, r3, #2048	; 0x800
 8002526:	6013      	str	r3, [r2, #0]

	GPIOB->AFR[0] |=  (0b0001 << 3* 4);
 8002528:	4b2d      	ldr	r3, [pc, #180]	; (80025e0 <enc1_init+0xec>)
 800252a:	6a1b      	ldr	r3, [r3, #32]
 800252c:	4a2c      	ldr	r2, [pc, #176]	; (80025e0 <enc1_init+0xec>)
 800252e:	f443 5380 	orr.w	r3, r3, #4096	; 0x1000
 8002532:	6213      	str	r3, [r2, #32]
	GPIOA->AFR[0] |=  (0b0001 << 5* 4);//SAD OVDE OBRNUO
 8002534:	4b2b      	ldr	r3, [pc, #172]	; (80025e4 <enc1_init+0xf0>)
 8002536:	6a1b      	ldr	r3, [r3, #32]
 8002538:	4a2a      	ldr	r2, [pc, #168]	; (80025e4 <enc1_init+0xf0>)
 800253a:	f443 1380 	orr.w	r3, r3, #1048576	; 0x100000
 800253e:	6213      	str	r3, [r2, #32]


	RCC->APB1ENR |= (0b1 << 0);
 8002540:	4b26      	ldr	r3, [pc, #152]	; (80025dc <enc1_init+0xe8>)
 8002542:	6c1b      	ldr	r3, [r3, #64]	; 0x40
 8002544:	4a25      	ldr	r2, [pc, #148]	; (80025dc <enc1_init+0xe8>)
 8002546:	f043 0301 	orr.w	r3, r3, #1
 800254a:	6413      	str	r3, [r2, #64]	; 0x40

	TIM2->PSC = 0;
 800254c:	f04f 4380 	mov.w	r3, #1073741824	; 0x40000000
 8002550:	2200      	movs	r2, #0
 8002552:	629a      	str	r2, [r3, #40]	; 0x28
	TIM2->ARR = 0xFFFF;
 8002554:	f04f 4380 	mov.w	r3, #1073741824	; 0x40000000
 8002558:	f64f 72ff 	movw	r2, #65535	; 0xffff
 800255c:	62da      	str	r2, [r3, #44]	; 0x2c


	TIM2->SMCR &= ~(0b111 << 0 * 3);
 800255e:	f04f 4380 	mov.w	r3, #1073741824	; 0x40000000
 8002562:	689b      	ldr	r3, [r3, #8]
 8002564:	f04f 4280 	mov.w	r2, #1073741824	; 0x40000000
 8002568:	f023 0307 	bic.w	r3, r3, #7
 800256c:	6093      	str	r3, [r2, #8]
	TIM2->SMCR |=  (0b011 << 0 * 3);
 800256e:	f04f 4380 	mov.w	r3, #1073741824	; 0x40000000
 8002572:	689b      	ldr	r3, [r3, #8]
 8002574:	f04f 4280 	mov.w	r2, #1073741824	; 0x40000000
 8002578:	f043 0303 	orr.w	r3, r3, #3
 800257c:	6093      	str	r3, [r2, #8]

	TIM2->CCMR1 &= ~(0b11 << 0 | 0b11 << 8);
 800257e:	f04f 4380 	mov.w	r3, #1073741824	; 0x40000000
 8002582:	699b      	ldr	r3, [r3, #24]
 8002584:	f04f 4280 	mov.w	r2, #1073741824	; 0x40000000
 8002588:	f423 7340 	bic.w	r3, r3, #768	; 0x300
 800258c:	f023 0303 	bic.w	r3, r3, #3
 8002590:	6193      	str	r3, [r2, #24]
	TIM2->CCMR1 |=  (0b01 << 0 | 0b01 << 8);
 8002592:	f04f 4380 	mov.w	r3, #1073741824	; 0x40000000
 8002596:	699b      	ldr	r3, [r3, #24]
 8002598:	f04f 4280 	mov.w	r2, #1073741824	; 0x40000000
 800259c:	f443 7380 	orr.w	r3, r3, #256	; 0x100
 80025a0:	f043 0301 	orr.w	r3, r3, #1
 80025a4:	6193      	str	r3, [r2, #24]

	TIM2->CR1 |= (0b1 << 0);
 80025a6:	f04f 4380 	mov.w	r3, #1073741824	; 0x40000000
 80025aa:	681b      	ldr	r3, [r3, #0]
 80025ac:	f04f 4280 	mov.w	r2, #1073741824	; 0x40000000
 80025b0:	f043 0301 	orr.w	r3, r3, #1
 80025b4:	6013      	str	r3, [r2, #0]
	TIM2->EGR |= (0b1 << 0);
 80025b6:	f04f 4380 	mov.w	r3, #1073741824	; 0x40000000
 80025ba:	695b      	ldr	r3, [r3, #20]
 80025bc:	f04f 4280 	mov.w	r2, #1073741824	; 0x40000000
 80025c0:	f043 0301 	orr.w	r3, r3, #1
 80025c4:	6153      	str	r3, [r2, #20]

	TIM2->CNT = 65536/2;
 80025c6:	f04f 4380 	mov.w	r3, #1073741824	; 0x40000000
 80025ca:	f44f 4200 	mov.w	r2, #32768	; 0x8000
 80025ce:	625a      	str	r2, [r3, #36]	; 0x24
}
 80025d0:	bf00      	nop
 80025d2:	46bd      	mov	sp, r7
 80025d4:	f85d 7b04 	ldr.w	r7, [sp], #4
 80025d8:	4770      	bx	lr
 80025da:	bf00      	nop
 80025dc:	40023800 	.word	0x40023800
 80025e0:	40020400 	.word	0x40020400
 80025e4:	40020000 	.word	0x40020000

080025e8 <enc1_GetInc>:

int16_t enc1_GetInc()
{
 80025e8:	b480      	push	{r7}
 80025ea:	b083      	sub	sp, #12
 80025ec:	af00      	add	r7, sp, #0
	int16_t cnt = TIM2->CNT- 65536/2;
 80025ee:	f04f 4380 	mov.w	r3, #1073741824	; 0x40000000
 80025f2:	6a5b      	ldr	r3, [r3, #36]	; 0x24
 80025f4:	b29b      	uxth	r3, r3
 80025f6:	f5a3 4300 	sub.w	r3, r3, #32768	; 0x8000
 80025fa:	b29b      	uxth	r3, r3
 80025fc:	80fb      	strh	r3, [r7, #6]
	TIM2->CNT = 65536/2;
 80025fe:	f04f 4380 	mov.w	r3, #1073741824	; 0x40000000
 8002602:	f44f 4200 	mov.w	r2, #32768	; 0x8000
 8002606:	625a      	str	r2, [r3, #36]	; 0x24

	return cnt;
 8002608:	f9b7 3006 	ldrsh.w	r3, [r7, #6]
}
 800260c:	4618      	mov	r0, r3
 800260e:	370c      	adds	r7, #12
 8002610:	46bd      	mov	sp, r7
 8002612:	f85d 7b04 	ldr.w	r7, [sp], #4
 8002616:	4770      	bx	lr

08002618 <enc2_init>:


static void enc2_init()
{
 8002618:	b480      	push	{r7}
 800261a:	af00      	add	r7, sp, #0

	RCC->AHB1ENR |= (1 << 0); // a port
 800261c:	4b33      	ldr	r3, [pc, #204]	; (80026ec <enc2_init+0xd4>)
 800261e:	6b1b      	ldr	r3, [r3, #48]	; 0x30
 8002620:	4a32      	ldr	r2, [pc, #200]	; (80026ec <enc2_init+0xd4>)
 8002622:	f043 0301 	orr.w	r3, r3, #1
 8002626:	6313      	str	r3, [r2, #48]	; 0x30

		GPIOA->MODER |= (0b10 << 0*2); // A0
 8002628:	4b31      	ldr	r3, [pc, #196]	; (80026f0 <enc2_init+0xd8>)
 800262a:	681b      	ldr	r3, [r3, #0]
 800262c:	4a30      	ldr	r2, [pc, #192]	; (80026f0 <enc2_init+0xd8>)
 800262e:	f043 0302 	orr.w	r3, r3, #2
 8002632:	6013      	str	r3, [r2, #0]
		GPIOA->MODER |= (0b10 << 1*2); // A1
 8002634:	4b2e      	ldr	r3, [pc, #184]	; (80026f0 <enc2_init+0xd8>)
 8002636:	681b      	ldr	r3, [r3, #0]
 8002638:	4a2d      	ldr	r2, [pc, #180]	; (80026f0 <enc2_init+0xd8>)
 800263a:	f043 0308 	orr.w	r3, r3, #8
 800263e:	6013      	str	r3, [r2, #0]

		GPIOA->OSPEEDR |= (0b11 << 0*2);
 8002640:	4b2b      	ldr	r3, [pc, #172]	; (80026f0 <enc2_init+0xd8>)
 8002642:	689b      	ldr	r3, [r3, #8]
 8002644:	4a2a      	ldr	r2, [pc, #168]	; (80026f0 <enc2_init+0xd8>)
 8002646:	f043 0303 	orr.w	r3, r3, #3
 800264a:	6093      	str	r3, [r2, #8]
		GPIOA->OSPEEDR |= (0b11 << 1*2);
 800264c:	4b28      	ldr	r3, [pc, #160]	; (80026f0 <enc2_init+0xd8>)
 800264e:	689b      	ldr	r3, [r3, #8]
 8002650:	4a27      	ldr	r2, [pc, #156]	; (80026f0 <enc2_init+0xd8>)
 8002652:	f043 030c 	orr.w	r3, r3, #12
 8002656:	6093      	str	r3, [r2, #8]

		GPIOA->AFR[0] |= (0b0010<< 0*4);
 8002658:	4b25      	ldr	r3, [pc, #148]	; (80026f0 <enc2_init+0xd8>)
 800265a:	6a1b      	ldr	r3, [r3, #32]
 800265c:	4a24      	ldr	r2, [pc, #144]	; (80026f0 <enc2_init+0xd8>)
 800265e:	f043 0302 	orr.w	r3, r3, #2
 8002662:	6213      	str	r3, [r2, #32]
		GPIOA->AFR[0] |= (0b0010 << 1*4);
 8002664:	4b22      	ldr	r3, [pc, #136]	; (80026f0 <enc2_init+0xd8>)
 8002666:	6a1b      	ldr	r3, [r3, #32]
 8002668:	4a21      	ldr	r2, [pc, #132]	; (80026f0 <enc2_init+0xd8>)
 800266a:	f043 0320 	orr.w	r3, r3, #32
 800266e:	6213      	str	r3, [r2, #32]


	RCC->APB1ENR |= (0b1 << 3);
 8002670:	4b1e      	ldr	r3, [pc, #120]	; (80026ec <enc2_init+0xd4>)
 8002672:	6c1b      	ldr	r3, [r3, #64]	; 0x40
 8002674:	4a1d      	ldr	r2, [pc, #116]	; (80026ec <enc2_init+0xd4>)
 8002676:	f043 0308 	orr.w	r3, r3, #8
 800267a:	6413      	str	r3, [r2, #64]	; 0x40

	TIM5->PSC = 0;
 800267c:	4b1d      	ldr	r3, [pc, #116]	; (80026f4 <enc2_init+0xdc>)
 800267e:	2200      	movs	r2, #0
 8002680:	629a      	str	r2, [r3, #40]	; 0x28
	TIM5->ARR = 0xFFFF;
 8002682:	4b1c      	ldr	r3, [pc, #112]	; (80026f4 <enc2_init+0xdc>)
 8002684:	f64f 72ff 	movw	r2, #65535	; 0xffff
 8002688:	62da      	str	r2, [r3, #44]	; 0x2c

	TIM5->SMCR &= ~(0b111 << 0 * 3);
 800268a:	4b1a      	ldr	r3, [pc, #104]	; (80026f4 <enc2_init+0xdc>)
 800268c:	689b      	ldr	r3, [r3, #8]
 800268e:	4a19      	ldr	r2, [pc, #100]	; (80026f4 <enc2_init+0xdc>)
 8002690:	f023 0307 	bic.w	r3, r3, #7
 8002694:	6093      	str	r3, [r2, #8]
	TIM5->SMCR |=  (0b011 << 0 * 3);
 8002696:	4b17      	ldr	r3, [pc, #92]	; (80026f4 <enc2_init+0xdc>)
 8002698:	689b      	ldr	r3, [r3, #8]
 800269a:	4a16      	ldr	r2, [pc, #88]	; (80026f4 <enc2_init+0xdc>)
 800269c:	f043 0303 	orr.w	r3, r3, #3
 80026a0:	6093      	str	r3, [r2, #8]

	TIM5->CCMR1 &= ~(0b11 << 0 | 0b11 << 8);
 80026a2:	4b14      	ldr	r3, [pc, #80]	; (80026f4 <enc2_init+0xdc>)
 80026a4:	699b      	ldr	r3, [r3, #24]
 80026a6:	4a13      	ldr	r2, [pc, #76]	; (80026f4 <enc2_init+0xdc>)
 80026a8:	f423 7340 	bic.w	r3, r3, #768	; 0x300
 80026ac:	f023 0303 	bic.w	r3, r3, #3
 80026b0:	6193      	str	r3, [r2, #24]
	TIM5->CCMR1 |=  (0b01 << 0 | 0b01 << 8);
 80026b2:	4b10      	ldr	r3, [pc, #64]	; (80026f4 <enc2_init+0xdc>)
 80026b4:	699b      	ldr	r3, [r3, #24]
 80026b6:	4a0f      	ldr	r2, [pc, #60]	; (80026f4 <enc2_init+0xdc>)
 80026b8:	f443 7380 	orr.w	r3, r3, #256	; 0x100
 80026bc:	f043 0301 	orr.w	r3, r3, #1
 80026c0:	6193      	str	r3, [r2, #24]

	TIM5->CR1 |= (0b1 << 0);
 80026c2:	4b0c      	ldr	r3, [pc, #48]	; (80026f4 <enc2_init+0xdc>)
 80026c4:	681b      	ldr	r3, [r3, #0]
 80026c6:	4a0b      	ldr	r2, [pc, #44]	; (80026f4 <enc2_init+0xdc>)
 80026c8:	f043 0301 	orr.w	r3, r3, #1
 80026cc:	6013      	str	r3, [r2, #0]
	TIM5->EGR |= (0b1 << 0);
 80026ce:	4b09      	ldr	r3, [pc, #36]	; (80026f4 <enc2_init+0xdc>)
 80026d0:	695b      	ldr	r3, [r3, #20]
 80026d2:	4a08      	ldr	r2, [pc, #32]	; (80026f4 <enc2_init+0xdc>)
 80026d4:	f043 0301 	orr.w	r3, r3, #1
 80026d8:	6153      	str	r3, [r2, #20]

	TIM5->CNT = 65536/2;
 80026da:	4b06      	ldr	r3, [pc, #24]	; (80026f4 <enc2_init+0xdc>)
 80026dc:	f44f 4200 	mov.w	r2, #32768	; 0x8000
 80026e0:	625a      	str	r2, [r3, #36]	; 0x24
}
 80026e2:	bf00      	nop
 80026e4:	46bd      	mov	sp, r7
 80026e6:	f85d 7b04 	ldr.w	r7, [sp], #4
 80026ea:	4770      	bx	lr
 80026ec:	40023800 	.word	0x40023800
 80026f0:	40020000 	.word	0x40020000
 80026f4:	40000c00 	.word	0x40000c00

080026f8 <enc2_GetInc>:

int16_t enc2_GetInc()
{
 80026f8:	b480      	push	{r7}
 80026fa:	b083      	sub	sp, #12
 80026fc:	af00      	add	r7, sp, #0
	int16_t cnt = TIM5->CNT -65536/2;
 80026fe:	4b09      	ldr	r3, [pc, #36]	; (8002724 <enc2_GetInc+0x2c>)
 8002700:	6a5b      	ldr	r3, [r3, #36]	; 0x24
 8002702:	b29b      	uxth	r3, r3
 8002704:	f5a3 4300 	sub.w	r3, r3, #32768	; 0x8000
 8002708:	b29b      	uxth	r3, r3
 800270a:	80fb      	strh	r3, [r7, #6]
	TIM5->CNT = 65536/2;
 800270c:	4b05      	ldr	r3, [pc, #20]	; (8002724 <enc2_GetInc+0x2c>)
 800270e:	f44f 4200 	mov.w	r2, #32768	; 0x8000
 8002712:	625a      	str	r2, [r3, #36]	; 0x24

	return cnt;
 8002714:	f9b7 3006 	ldrsh.w	r3, [r7, #6]
}
 8002718:	4618      	mov	r0, r3
 800271a:	370c      	adds	r7, #12
 800271c:	46bd      	mov	sp, r7
 800271e:	f85d 7b04 	ldr.w	r7, [sp], #4
 8002722:	4770      	bx	lr
 8002724:	40000c00 	.word	0x40000c00

08002728 <set_x>:


void set_x(float nova){
 8002728:	b480      	push	{r7}
 800272a:	b083      	sub	sp, #12
 800272c:	af00      	add	r7, sp, #0
 800272e:	ed87 0a01 	vstr	s0, [r7, #4]
	x=nova;
 8002732:	4a04      	ldr	r2, [pc, #16]	; (8002744 <set_x+0x1c>)
 8002734:	687b      	ldr	r3, [r7, #4]
 8002736:	6013      	str	r3, [r2, #0]
}
 8002738:	bf00      	nop
 800273a:	370c      	adds	r7, #12
 800273c:	46bd      	mov	sp, r7
 800273e:	f85d 7b04 	ldr.w	r7, [sp], #4
 8002742:	4770      	bx	lr
 8002744:	2000013c 	.word	0x2000013c

08002748 <set_det>:

void set_det(float nova){
 8002748:	b480      	push	{r7}
 800274a:	b083      	sub	sp, #12
 800274c:	af00      	add	r7, sp, #0
 800274e:	ed87 0a01 	vstr	s0, [r7, #4]
	det=nova;
 8002752:	edd7 7a01 	vldr	s15, [r7, #4]
 8002756:	eefd 7ae7 	vcvt.s32.f32	s15, s15
 800275a:	ee17 2a90 	vmov	r2, s15
 800275e:	4b04      	ldr	r3, [pc, #16]	; (8002770 <set_det+0x28>)
 8002760:	601a      	str	r2, [r3, #0]
}
 8002762:	bf00      	nop
 8002764:	370c      	adds	r7, #12
 8002766:	46bd      	mov	sp, r7
 8002768:	f85d 7b04 	ldr.w	r7, [sp], #4
 800276c:	4770      	bx	lr
 800276e:	bf00      	nop
 8002770:	20000158 	.word	0x20000158

08002774 <set_y>:

void set_y(float nova){
 8002774:	b480      	push	{r7}
 8002776:	b083      	sub	sp, #12
 8002778:	af00      	add	r7, sp, #0
 800277a:	ed87 0a01 	vstr	s0, [r7, #4]
	y=nova;
 800277e:	4a04      	ldr	r2, [pc, #16]	; (8002790 <set_y+0x1c>)
 8002780:	687b      	ldr	r3, [r7, #4]
 8002782:	6013      	str	r3, [r2, #0]
}
 8002784:	bf00      	nop
 8002786:	370c      	adds	r7, #12
 8002788:	46bd      	mov	sp, r7
 800278a:	f85d 7b04 	ldr.w	r7, [sp], #4
 800278e:	4770      	bx	lr
 8002790:	20000140 	.word	0x20000140

08002794 <set_theta>:

void set_theta(float nova){
 8002794:	b480      	push	{r7}
 8002796:	b083      	sub	sp, #12
 8002798:	af00      	add	r7, sp, #0
 800279a:	ed87 0a01 	vstr	s0, [r7, #4]
	theta=nova;
 800279e:	4a04      	ldr	r2, [pc, #16]	; (80027b0 <set_theta+0x1c>)
 80027a0:	687b      	ldr	r3, [r7, #4]
 80027a2:	6013      	str	r3, [r2, #0]
}
 80027a4:	bf00      	nop
 80027a6:	370c      	adds	r7, #12
 80027a8:	46bd      	mov	sp, r7
 80027aa:	f85d 7b04 	ldr.w	r7, [sp], #4
 80027ae:	4770      	bx	lr
 80027b0:	20000144 	.word	0x20000144

080027b4 <TIM1_UP_TIM10_IRQHandler>:
	theta=nova;
}


void TIM1_UP_TIM10_IRQHandler()
{
 80027b4:	b580      	push	{r7, lr}
 80027b6:	ed2d 8b06 	vpush	{d8-d10}
 80027ba:	af00      	add	r7, sp, #0

  if ((TIM1->SR & (0b1 << 0)) == (0b1 << 0))
 80027bc:	4b97      	ldr	r3, [pc, #604]	; (8002a1c <TIM1_UP_TIM10_IRQHandler+0x268>)
 80027be:	691b      	ldr	r3, [r3, #16]
 80027c0:	f003 0301 	and.w	r3, r3, #1
 80027c4:	2b01      	cmp	r3, #1
 80027c6:	f040 8115 	bne.w	80029f4 <TIM1_UP_TIM10_IRQHandler+0x240>
    {

	  odometrija(1);
 80027ca:	2001      	movs	r0, #1
 80027cc:	f7fe fc3a 	bl	8001044 <odometrija>

	  regulacija_brzine();
 80027d0:	f7ff fac6 	bl	8001d60 <regulacija_brzine>

	  a = get_x();
 80027d4:	f7fe fd88 	bl	80012e8 <get_x>
 80027d8:	eef0 7a40 	vmov.f32	s15, s0
 80027dc:	4b90      	ldr	r3, [pc, #576]	; (8002a20 <TIM1_UP_TIM10_IRQHandler+0x26c>)
 80027de:	edc3 7a00 	vstr	s15, [r3]
	  b = get_y();
 80027e2:	f7fe fd8f 	bl	8001304 <get_y>
 80027e6:	eef0 7a40 	vmov.f32	s15, s0
 80027ea:	4b8e      	ldr	r3, [pc, #568]	; (8002a24 <TIM1_UP_TIM10_IRQHandler+0x270>)
 80027ec:	edc3 7a00 	vstr	s15, [r3]
	  c = get_theta();
 80027f0:	f7fe fd96 	bl	8001320 <get_theta>
 80027f4:	eef0 7a40 	vmov.f32	s15, s0
 80027f8:	4b8b      	ldr	r3, [pc, #556]	; (8002a28 <TIM1_UP_TIM10_IRQHandler+0x274>)
 80027fa:	edc3 7a00 	vstr	s15, [r3]
	  if(test==1){
 80027fe:	4b8b      	ldr	r3, [pc, #556]	; (8002a2c <TIM1_UP_TIM10_IRQHandler+0x278>)
 8002800:	681b      	ldr	r3, [r3, #0]
 8002802:	2b01      	cmp	r3, #1
 8002804:	d108      	bne.n	8002818 <TIM1_UP_TIM10_IRQHandler+0x64>
		  pid_init();
 8002806:	f7fe fdb5 	bl	8001374 <pid_init>
		  racunanje_brzine(0,0);
 800280a:	eddf 0a89 	vldr	s1, [pc, #548]	; 8002a30 <TIM1_UP_TIM10_IRQHandler+0x27c>
 800280e:	ed9f 0a88 	vldr	s0, [pc, #544]	; 8002a30 <TIM1_UP_TIM10_IRQHandler+0x27c>
 8002812:	f7fe fef1 	bl	80015f8 <racunanje_brzine>
 8002816:	e058      	b.n	80028ca <TIM1_UP_TIM10_IRQHandler+0x116>
	  }
	  else{
	  if (sistemsko_vreme % vreme_pozicija == 0){
 8002818:	4b86      	ldr	r3, [pc, #536]	; (8002a34 <TIM1_UP_TIM10_IRQHandler+0x280>)
 800281a:	681b      	ldr	r3, [r3, #0]
 800281c:	4a86      	ldr	r2, [pc, #536]	; (8002a38 <TIM1_UP_TIM10_IRQHandler+0x284>)
 800281e:	6812      	ldr	r2, [r2, #0]
 8002820:	fbb3 f1f2 	udiv	r1, r3, r2
 8002824:	fb02 f201 	mul.w	r2, r2, r1
 8002828:	1a9b      	subs	r3, r3, r2
 800282a:	2b00      	cmp	r3, #0
 800282c:	d14d      	bne.n	80028ca <TIM1_UP_TIM10_IRQHandler+0x116>
		 if(faza1==0){
 800282e:	4b83      	ldr	r3, [pc, #524]	; (8002a3c <TIM1_UP_TIM10_IRQHandler+0x288>)
 8002830:	681b      	ldr	r3, [r3, #0]
 8002832:	2b00      	cmp	r3, #0
 8002834:	d126      	bne.n	8002884 <TIM1_UP_TIM10_IRQHandler+0xd0>
		  		  regulacija_pozicije(get_x(), get_y(), get_theta(), get_x(),  get_y(),  get_theta());
 8002836:	f7fe fd57 	bl	80012e8 <get_x>
 800283a:	eeb0 8a40 	vmov.f32	s16, s0
 800283e:	f7fe fd61 	bl	8001304 <get_y>
 8002842:	eef0 8a40 	vmov.f32	s17, s0
 8002846:	f7fe fd6b 	bl	8001320 <get_theta>
 800284a:	eeb0 9a40 	vmov.f32	s18, s0
 800284e:	f7fe fd4b 	bl	80012e8 <get_x>
 8002852:	eef0 9a40 	vmov.f32	s19, s0
 8002856:	f7fe fd55 	bl	8001304 <get_y>
 800285a:	eeb0 aa40 	vmov.f32	s20, s0
 800285e:	f7fe fd5f 	bl	8001320 <get_theta>
 8002862:	eef0 7a40 	vmov.f32	s15, s0
 8002866:	eef0 2a67 	vmov.f32	s5, s15
 800286a:	eeb0 2a4a 	vmov.f32	s4, s20
 800286e:	eef0 1a69 	vmov.f32	s3, s19
 8002872:	eeb0 1a49 	vmov.f32	s2, s18
 8002876:	eef0 0a68 	vmov.f32	s1, s17
 800287a:	eeb0 0a48 	vmov.f32	s0, s16
 800287e:	f7fe ff23 	bl	80016c8 <regulacija_pozicije>
 8002882:	e022      	b.n	80028ca <TIM1_UP_TIM10_IRQHandler+0x116>
		  	  }
		  else
		  regulacija_pozicije(x, y, theta, get_x(),  get_y(),  get_theta());
 8002884:	4b6e      	ldr	r3, [pc, #440]	; (8002a40 <TIM1_UP_TIM10_IRQHandler+0x28c>)
 8002886:	ed93 8a00 	vldr	s16, [r3]
 800288a:	4b6e      	ldr	r3, [pc, #440]	; (8002a44 <TIM1_UP_TIM10_IRQHandler+0x290>)
 800288c:	edd3 8a00 	vldr	s17, [r3]
 8002890:	4b6d      	ldr	r3, [pc, #436]	; (8002a48 <TIM1_UP_TIM10_IRQHandler+0x294>)
 8002892:	ed93 9a00 	vldr	s18, [r3]
 8002896:	f7fe fd27 	bl	80012e8 <get_x>
 800289a:	eef0 9a40 	vmov.f32	s19, s0
 800289e:	f7fe fd31 	bl	8001304 <get_y>
 80028a2:	eeb0 aa40 	vmov.f32	s20, s0
 80028a6:	f7fe fd3b 	bl	8001320 <get_theta>
 80028aa:	eef0 7a40 	vmov.f32	s15, s0
 80028ae:	eef0 2a67 	vmov.f32	s5, s15
 80028b2:	eeb0 2a4a 	vmov.f32	s4, s20
 80028b6:	eef0 1a69 	vmov.f32	s3, s19
 80028ba:	eeb0 1a49 	vmov.f32	s2, s18
 80028be:	eef0 0a68 	vmov.f32	s1, s17
 80028c2:	eeb0 0a48 	vmov.f32	s0, s16
 80028c6:	f7fe feff 	bl	80016c8 <regulacija_pozicije>

		  }
	  }
	  if(!(GPIOC->IDR & (1<<11))){
 80028ca:	4b60      	ldr	r3, [pc, #384]	; (8002a4c <TIM1_UP_TIM10_IRQHandler+0x298>)
 80028cc:	691b      	ldr	r3, [r3, #16]
 80028ce:	f403 6300 	and.w	r3, r3, #2048	; 0x800
 80028d2:	2b00      	cmp	r3, #0
 80028d4:	d10c      	bne.n	80028f0 <TIM1_UP_TIM10_IRQHandler+0x13c>
		  sistemsko_vreme++;
 80028d6:	4b57      	ldr	r3, [pc, #348]	; (8002a34 <TIM1_UP_TIM10_IRQHandler+0x280>)
 80028d8:	681b      	ldr	r3, [r3, #0]
 80028da:	3301      	adds	r3, #1
 80028dc:	4a55      	ldr	r2, [pc, #340]	; (8002a34 <TIM1_UP_TIM10_IRQHandler+0x280>)
 80028de:	6013      	str	r3, [r2, #0]
		  if(sistemsko_vreme == 100000)
 80028e0:	4b54      	ldr	r3, [pc, #336]	; (8002a34 <TIM1_UP_TIM10_IRQHandler+0x280>)
 80028e2:	681b      	ldr	r3, [r3, #0]
 80028e4:	4a5a      	ldr	r2, [pc, #360]	; (8002a50 <TIM1_UP_TIM10_IRQHandler+0x29c>)
 80028e6:	4293      	cmp	r3, r2
 80028e8:	d102      	bne.n	80028f0 <TIM1_UP_TIM10_IRQHandler+0x13c>
		     	 flag_100s=true;
 80028ea:	4b5a      	ldr	r3, [pc, #360]	; (8002a54 <TIM1_UP_TIM10_IRQHandler+0x2a0>)
 80028ec:	2201      	movs	r2, #1
 80028ee:	701a      	strb	r2, [r3, #0]
	  }

	  if((GPIOC->IDR & (1<<0)) | (GPIOC->IDR & (1<<2)) | (GPIOC->IDR & (1<<14))){ //zadnja strana
 80028f0:	4b56      	ldr	r3, [pc, #344]	; (8002a4c <TIM1_UP_TIM10_IRQHandler+0x298>)
 80028f2:	691b      	ldr	r3, [r3, #16]
 80028f4:	f003 0201 	and.w	r2, r3, #1
 80028f8:	4b54      	ldr	r3, [pc, #336]	; (8002a4c <TIM1_UP_TIM10_IRQHandler+0x298>)
 80028fa:	691b      	ldr	r3, [r3, #16]
 80028fc:	f003 0304 	and.w	r3, r3, #4
 8002900:	431a      	orrs	r2, r3
 8002902:	4b52      	ldr	r3, [pc, #328]	; (8002a4c <TIM1_UP_TIM10_IRQHandler+0x298>)
 8002904:	691b      	ldr	r3, [r3, #16]
 8002906:	f403 4380 	and.w	r3, r3, #16384	; 0x4000
 800290a:	4313      	orrs	r3, r2
 800290c:	2b00      	cmp	r3, #0
 800290e:	d018      	beq.n	8002942 <TIM1_UP_TIM10_IRQHandler+0x18e>
		if(det==1){
 8002910:	4b51      	ldr	r3, [pc, #324]	; (8002a58 <TIM1_UP_TIM10_IRQHandler+0x2a4>)
 8002912:	681b      	ldr	r3, [r3, #0]
 8002914:	2b01      	cmp	r3, #1
 8002916:	d117      	bne.n	8002948 <TIM1_UP_TIM10_IRQHandler+0x194>
			if(brojac==0){
 8002918:	4b50      	ldr	r3, [pc, #320]	; (8002a5c <TIM1_UP_TIM10_IRQHandler+0x2a8>)
 800291a:	681b      	ldr	r3, [r3, #0]
 800291c:	2b00      	cmp	r3, #0
 800291e:	d103      	bne.n	8002928 <TIM1_UP_TIM10_IRQHandler+0x174>

			 temp=faza1;
 8002920:	4b46      	ldr	r3, [pc, #280]	; (8002a3c <TIM1_UP_TIM10_IRQHandler+0x288>)
 8002922:	681b      	ldr	r3, [r3, #0]
 8002924:	4a4e      	ldr	r2, [pc, #312]	; (8002a60 <TIM1_UP_TIM10_IRQHandler+0x2ac>)
 8002926:	6013      	str	r3, [r2, #0]
		 }
		  faza1=0;
 8002928:	4b44      	ldr	r3, [pc, #272]	; (8002a3c <TIM1_UP_TIM10_IRQHandler+0x288>)
 800292a:	2200      	movs	r2, #0
 800292c:	601a      	str	r2, [r3, #0]
		  brojac=1;
 800292e:	4b4b      	ldr	r3, [pc, #300]	; (8002a5c <TIM1_UP_TIM10_IRQHandler+0x2a8>)
 8002930:	2201      	movs	r2, #1
 8002932:	601a      	str	r2, [r3, #0]
		  z=0;
 8002934:	4b4b      	ldr	r3, [pc, #300]	; (8002a64 <TIM1_UP_TIM10_IRQHandler+0x2b0>)
 8002936:	2200      	movs	r2, #0
 8002938:	601a      	str	r2, [r3, #0]
		  test=1;
 800293a:	4b3c      	ldr	r3, [pc, #240]	; (8002a2c <TIM1_UP_TIM10_IRQHandler+0x278>)
 800293c:	2201      	movs	r2, #1
 800293e:	601a      	str	r2, [r3, #0]
 8002940:	e002      	b.n	8002948 <TIM1_UP_TIM10_IRQHandler+0x194>
		}

	  }
	  else{
		  z=1;
 8002942:	4b48      	ldr	r3, [pc, #288]	; (8002a64 <TIM1_UP_TIM10_IRQHandler+0x2b0>)
 8002944:	2201      	movs	r2, #1
 8002946:	601a      	str	r2, [r3, #0]
	  }



	  if((GPIOC->IDR & (1<<3)) | (GPIOC->IDR & (1<<12)) | (GPIOA->IDR & (1<<15))){ //prednja strana
 8002948:	4b40      	ldr	r3, [pc, #256]	; (8002a4c <TIM1_UP_TIM10_IRQHandler+0x298>)
 800294a:	691b      	ldr	r3, [r3, #16]
 800294c:	f003 0208 	and.w	r2, r3, #8
 8002950:	4b3e      	ldr	r3, [pc, #248]	; (8002a4c <TIM1_UP_TIM10_IRQHandler+0x298>)
 8002952:	691b      	ldr	r3, [r3, #16]
 8002954:	f403 5380 	and.w	r3, r3, #4096	; 0x1000
 8002958:	431a      	orrs	r2, r3
 800295a:	4b43      	ldr	r3, [pc, #268]	; (8002a68 <TIM1_UP_TIM10_IRQHandler+0x2b4>)
 800295c:	691b      	ldr	r3, [r3, #16]
 800295e:	f403 4300 	and.w	r3, r3, #32768	; 0x8000
 8002962:	4313      	orrs	r3, r2
 8002964:	2b00      	cmp	r3, #0
 8002966:	d018      	beq.n	800299a <TIM1_UP_TIM10_IRQHandler+0x1e6>
		if(det==0){
 8002968:	4b3b      	ldr	r3, [pc, #236]	; (8002a58 <TIM1_UP_TIM10_IRQHandler+0x2a4>)
 800296a:	681b      	ldr	r3, [r3, #0]
 800296c:	2b00      	cmp	r3, #0
 800296e:	d117      	bne.n	80029a0 <TIM1_UP_TIM10_IRQHandler+0x1ec>
			if(brojac==0){
 8002970:	4b3a      	ldr	r3, [pc, #232]	; (8002a5c <TIM1_UP_TIM10_IRQHandler+0x2a8>)
 8002972:	681b      	ldr	r3, [r3, #0]
 8002974:	2b00      	cmp	r3, #0
 8002976:	d103      	bne.n	8002980 <TIM1_UP_TIM10_IRQHandler+0x1cc>
			 temp=faza1;
 8002978:	4b30      	ldr	r3, [pc, #192]	; (8002a3c <TIM1_UP_TIM10_IRQHandler+0x288>)
 800297a:	681b      	ldr	r3, [r3, #0]
 800297c:	4a38      	ldr	r2, [pc, #224]	; (8002a60 <TIM1_UP_TIM10_IRQHandler+0x2ac>)
 800297e:	6013      	str	r3, [r2, #0]
		 }
		   faza1=0;
 8002980:	4b2e      	ldr	r3, [pc, #184]	; (8002a3c <TIM1_UP_TIM10_IRQHandler+0x288>)
 8002982:	2200      	movs	r2, #0
 8002984:	601a      	str	r2, [r3, #0]
		   brojac=1;
 8002986:	4b35      	ldr	r3, [pc, #212]	; (8002a5c <TIM1_UP_TIM10_IRQHandler+0x2a8>)
 8002988:	2201      	movs	r2, #1
 800298a:	601a      	str	r2, [r3, #0]
		   p=0;
 800298c:	4b37      	ldr	r3, [pc, #220]	; (8002a6c <TIM1_UP_TIM10_IRQHandler+0x2b8>)
 800298e:	2200      	movs	r2, #0
 8002990:	601a      	str	r2, [r3, #0]
		   test=1;
 8002992:	4b26      	ldr	r3, [pc, #152]	; (8002a2c <TIM1_UP_TIM10_IRQHandler+0x278>)
 8002994:	2201      	movs	r2, #1
 8002996:	601a      	str	r2, [r3, #0]
 8002998:	e002      	b.n	80029a0 <TIM1_UP_TIM10_IRQHandler+0x1ec>
		}
	  }
	  else{
		  p=1;
 800299a:	4b34      	ldr	r3, [pc, #208]	; (8002a6c <TIM1_UP_TIM10_IRQHandler+0x2b8>)
 800299c:	2201      	movs	r2, #1
 800299e:	601a      	str	r2, [r3, #0]
	  }

	  if((brojac==1) & ((z==1) & (p==1))){
 80029a0:	4b2e      	ldr	r3, [pc, #184]	; (8002a5c <TIM1_UP_TIM10_IRQHandler+0x2a8>)
 80029a2:	681b      	ldr	r3, [r3, #0]
 80029a4:	2b01      	cmp	r3, #1
 80029a6:	bf0c      	ite	eq
 80029a8:	2301      	moveq	r3, #1
 80029aa:	2300      	movne	r3, #0
 80029ac:	b2db      	uxtb	r3, r3
 80029ae:	4619      	mov	r1, r3
 80029b0:	4b2c      	ldr	r3, [pc, #176]	; (8002a64 <TIM1_UP_TIM10_IRQHandler+0x2b0>)
 80029b2:	681b      	ldr	r3, [r3, #0]
 80029b4:	2b01      	cmp	r3, #1
 80029b6:	bf0c      	ite	eq
 80029b8:	2301      	moveq	r3, #1
 80029ba:	2300      	movne	r3, #0
 80029bc:	b2da      	uxtb	r2, r3
 80029be:	4b2b      	ldr	r3, [pc, #172]	; (8002a6c <TIM1_UP_TIM10_IRQHandler+0x2b8>)
 80029c0:	681b      	ldr	r3, [r3, #0]
 80029c2:	2b01      	cmp	r3, #1
 80029c4:	bf0c      	ite	eq
 80029c6:	2301      	moveq	r3, #1
 80029c8:	2300      	movne	r3, #0
 80029ca:	b2db      	uxtb	r3, r3
 80029cc:	4013      	ands	r3, r2
 80029ce:	b2db      	uxtb	r3, r3
 80029d0:	400b      	ands	r3, r1
 80029d2:	2b00      	cmp	r3, #0
 80029d4:	d00e      	beq.n	80029f4 <TIM1_UP_TIM10_IRQHandler+0x240>
		  faza1=temp;
 80029d6:	4b22      	ldr	r3, [pc, #136]	; (8002a60 <TIM1_UP_TIM10_IRQHandler+0x2ac>)
 80029d8:	681b      	ldr	r3, [r3, #0]
 80029da:	4a18      	ldr	r2, [pc, #96]	; (8002a3c <TIM1_UP_TIM10_IRQHandler+0x288>)
 80029dc:	6013      	str	r3, [r2, #0]
		  temp=0;
 80029de:	4b20      	ldr	r3, [pc, #128]	; (8002a60 <TIM1_UP_TIM10_IRQHandler+0x2ac>)
 80029e0:	2200      	movs	r2, #0
 80029e2:	601a      	str	r2, [r3, #0]
		  brojac=0;
 80029e4:	4b1d      	ldr	r3, [pc, #116]	; (8002a5c <TIM1_UP_TIM10_IRQHandler+0x2a8>)
 80029e6:	2200      	movs	r2, #0
 80029e8:	601a      	str	r2, [r3, #0]
		  pid_init();
 80029ea:	f7fe fcc3 	bl	8001374 <pid_init>
		  test=0;
 80029ee:	4b0f      	ldr	r3, [pc, #60]	; (8002a2c <TIM1_UP_TIM10_IRQHandler+0x278>)
 80029f0:	2200      	movs	r2, #0
 80029f2:	601a      	str	r2, [r3, #0]
	  else
		  P1=0;
*/
	  }

      TIM1->SR &= ~(0b1 << 0);
 80029f4:	4b09      	ldr	r3, [pc, #36]	; (8002a1c <TIM1_UP_TIM10_IRQHandler+0x268>)
 80029f6:	691b      	ldr	r3, [r3, #16]
 80029f8:	4a08      	ldr	r2, [pc, #32]	; (8002a1c <TIM1_UP_TIM10_IRQHandler+0x268>)
 80029fa:	f023 0301 	bic.w	r3, r3, #1
 80029fe:	6113      	str	r3, [r2, #16]
      if(sistemsko_vreme == 100000)
 8002a00:	4b0c      	ldr	r3, [pc, #48]	; (8002a34 <TIM1_UP_TIM10_IRQHandler+0x280>)
 8002a02:	681b      	ldr	r3, [r3, #0]
 8002a04:	4a12      	ldr	r2, [pc, #72]	; (8002a50 <TIM1_UP_TIM10_IRQHandler+0x29c>)
 8002a06:	4293      	cmp	r3, r2
 8002a08:	d102      	bne.n	8002a10 <TIM1_UP_TIM10_IRQHandler+0x25c>
    	  flag_100s=true;
 8002a0a:	4b12      	ldr	r3, [pc, #72]	; (8002a54 <TIM1_UP_TIM10_IRQHandler+0x2a0>)
 8002a0c:	2201      	movs	r2, #1
 8002a0e:	701a      	strb	r2, [r3, #0]



}
 8002a10:	bf00      	nop
 8002a12:	46bd      	mov	sp, r7
 8002a14:	ecbd 8b06 	vpop	{d8-d10}
 8002a18:	bd80      	pop	{r7, pc}
 8002a1a:	bf00      	nop
 8002a1c:	40010000 	.word	0x40010000
 8002a20:	20000160 	.word	0x20000160
 8002a24:	20000164 	.word	0x20000164
 8002a28:	20000168 	.word	0x20000168
 8002a2c:	2000015c 	.word	0x2000015c
 8002a30:	00000000 	.word	0x00000000
 8002a34:	20000198 	.word	0x20000198
 8002a38:	20000008 	.word	0x20000008
 8002a3c:	20000004 	.word	0x20000004
 8002a40:	2000013c 	.word	0x2000013c
 8002a44:	20000140 	.word	0x20000140
 8002a48:	20000144 	.word	0x20000144
 8002a4c:	40020800 	.word	0x40020800
 8002a50:	000186a0 	.word	0x000186a0
 8002a54:	20000138 	.word	0x20000138
 8002a58:	20000158 	.word	0x20000158
 8002a5c:	20000148 	.word	0x20000148
 8002a60:	2000014c 	.word	0x2000014c
 8002a64:	20000154 	.word	0x20000154
 8002a68:	40020000 	.word	0x40020000
 8002a6c:	20000150 	.word	0x20000150

08002a70 <uart_init>:
 8002a70:	b580      	push	{r7, lr}
 8002a72:	af00      	add	r7, sp, #0
 8002a74:	f000 f802 	bl	8002a7c <uart6_init>
 8002a78:	bf00      	nop
 8002a7a:	bd80      	pop	{r7, pc}

08002a7c <uart6_init>:
 8002a7c:	b490      	push	{r4, r7}
 8002a7e:	b082      	sub	sp, #8
 8002a80:	af00      	add	r7, sp, #0
 8002a82:	4b92      	ldr	r3, [pc, #584]	; (8002ccc <uart6_init+0x250>)
 8002a84:	6b1b      	ldr	r3, [r3, #48]	; 0x30
 8002a86:	4a91      	ldr	r2, [pc, #580]	; (8002ccc <uart6_init+0x250>)
 8002a88:	f043 0301 	orr.w	r3, r3, #1
 8002a8c:	6313      	str	r3, [r2, #48]	; 0x30
 8002a8e:	4b8f      	ldr	r3, [pc, #572]	; (8002ccc <uart6_init+0x250>)
 8002a90:	6c5b      	ldr	r3, [r3, #68]	; 0x44
 8002a92:	4a8e      	ldr	r2, [pc, #568]	; (8002ccc <uart6_init+0x250>)
 8002a94:	f043 0320 	orr.w	r3, r3, #32
 8002a98:	6453      	str	r3, [r2, #68]	; 0x44
 8002a9a:	230b      	movs	r3, #11
 8002a9c:	71fb      	strb	r3, [r7, #7]
 8002a9e:	230c      	movs	r3, #12
 8002aa0:	71bb      	strb	r3, [r7, #6]
 8002aa2:	4b8b      	ldr	r3, [pc, #556]	; (8002cd0 <uart6_init+0x254>)
 8002aa4:	681b      	ldr	r3, [r3, #0]
 8002aa6:	79fa      	ldrb	r2, [r7, #7]
 8002aa8:	0052      	lsls	r2, r2, #1
 8002aaa:	2103      	movs	r1, #3
 8002aac:	fa01 f202 	lsl.w	r2, r1, r2
 8002ab0:	43d2      	mvns	r2, r2
 8002ab2:	4611      	mov	r1, r2
 8002ab4:	4a86      	ldr	r2, [pc, #536]	; (8002cd0 <uart6_init+0x254>)
 8002ab6:	400b      	ands	r3, r1
 8002ab8:	6013      	str	r3, [r2, #0]
 8002aba:	4b85      	ldr	r3, [pc, #532]	; (8002cd0 <uart6_init+0x254>)
 8002abc:	681b      	ldr	r3, [r3, #0]
 8002abe:	79fa      	ldrb	r2, [r7, #7]
 8002ac0:	0052      	lsls	r2, r2, #1
 8002ac2:	2102      	movs	r1, #2
 8002ac4:	fa01 f202 	lsl.w	r2, r1, r2
 8002ac8:	4611      	mov	r1, r2
 8002aca:	4a81      	ldr	r2, [pc, #516]	; (8002cd0 <uart6_init+0x254>)
 8002acc:	430b      	orrs	r3, r1
 8002ace:	6013      	str	r3, [r2, #0]
 8002ad0:	4b7f      	ldr	r3, [pc, #508]	; (8002cd0 <uart6_init+0x254>)
 8002ad2:	681b      	ldr	r3, [r3, #0]
 8002ad4:	79ba      	ldrb	r2, [r7, #6]
 8002ad6:	0052      	lsls	r2, r2, #1
 8002ad8:	2103      	movs	r1, #3
 8002ada:	fa01 f202 	lsl.w	r2, r1, r2
 8002ade:	43d2      	mvns	r2, r2
 8002ae0:	4611      	mov	r1, r2
 8002ae2:	4a7b      	ldr	r2, [pc, #492]	; (8002cd0 <uart6_init+0x254>)
 8002ae4:	400b      	ands	r3, r1
 8002ae6:	6013      	str	r3, [r2, #0]
 8002ae8:	4b79      	ldr	r3, [pc, #484]	; (8002cd0 <uart6_init+0x254>)
 8002aea:	681b      	ldr	r3, [r3, #0]
 8002aec:	79ba      	ldrb	r2, [r7, #6]
 8002aee:	0052      	lsls	r2, r2, #1
 8002af0:	2102      	movs	r1, #2
 8002af2:	fa01 f202 	lsl.w	r2, r1, r2
 8002af6:	4611      	mov	r1, r2
 8002af8:	4a75      	ldr	r2, [pc, #468]	; (8002cd0 <uart6_init+0x254>)
 8002afa:	430b      	orrs	r3, r1
 8002afc:	6013      	str	r3, [r2, #0]
 8002afe:	4b74      	ldr	r3, [pc, #464]	; (8002cd0 <uart6_init+0x254>)
 8002b00:	685b      	ldr	r3, [r3, #4]
 8002b02:	79fa      	ldrb	r2, [r7, #7]
 8002b04:	2101      	movs	r1, #1
 8002b06:	fa01 f202 	lsl.w	r2, r1, r2
 8002b0a:	4611      	mov	r1, r2
 8002b0c:	4a70      	ldr	r2, [pc, #448]	; (8002cd0 <uart6_init+0x254>)
 8002b0e:	430b      	orrs	r3, r1
 8002b10:	6053      	str	r3, [r2, #4]
 8002b12:	4b6f      	ldr	r3, [pc, #444]	; (8002cd0 <uart6_init+0x254>)
 8002b14:	68db      	ldr	r3, [r3, #12]
 8002b16:	79fa      	ldrb	r2, [r7, #7]
 8002b18:	0052      	lsls	r2, r2, #1
 8002b1a:	2103      	movs	r1, #3
 8002b1c:	fa01 f202 	lsl.w	r2, r1, r2
 8002b20:	43d2      	mvns	r2, r2
 8002b22:	4611      	mov	r1, r2
 8002b24:	4a6a      	ldr	r2, [pc, #424]	; (8002cd0 <uart6_init+0x254>)
 8002b26:	400b      	ands	r3, r1
 8002b28:	60d3      	str	r3, [r2, #12]
 8002b2a:	4b69      	ldr	r3, [pc, #420]	; (8002cd0 <uart6_init+0x254>)
 8002b2c:	68db      	ldr	r3, [r3, #12]
 8002b2e:	79fa      	ldrb	r2, [r7, #7]
 8002b30:	0052      	lsls	r2, r2, #1
 8002b32:	2101      	movs	r1, #1
 8002b34:	fa01 f202 	lsl.w	r2, r1, r2
 8002b38:	4611      	mov	r1, r2
 8002b3a:	4a65      	ldr	r2, [pc, #404]	; (8002cd0 <uart6_init+0x254>)
 8002b3c:	430b      	orrs	r3, r1
 8002b3e:	60d3      	str	r3, [r2, #12]
 8002b40:	2308      	movs	r3, #8
 8002b42:	717b      	strb	r3, [r7, #5]
 8002b44:	4a62      	ldr	r2, [pc, #392]	; (8002cd0 <uart6_init+0x254>)
 8002b46:	79fb      	ldrb	r3, [r7, #7]
 8002b48:	08db      	lsrs	r3, r3, #3
 8002b4a:	b2db      	uxtb	r3, r3
 8002b4c:	3308      	adds	r3, #8
 8002b4e:	f852 3023 	ldr.w	r3, [r2, r3, lsl #2]
 8002b52:	79fa      	ldrb	r2, [r7, #7]
 8002b54:	f002 0207 	and.w	r2, r2, #7
 8002b58:	0092      	lsls	r2, r2, #2
 8002b5a:	210f      	movs	r1, #15
 8002b5c:	fa01 f202 	lsl.w	r2, r1, r2
 8002b60:	43d2      	mvns	r2, r2
 8002b62:	4614      	mov	r4, r2
 8002b64:	495a      	ldr	r1, [pc, #360]	; (8002cd0 <uart6_init+0x254>)
 8002b66:	79fa      	ldrb	r2, [r7, #7]
 8002b68:	08d2      	lsrs	r2, r2, #3
 8002b6a:	b2d2      	uxtb	r2, r2
 8002b6c:	4610      	mov	r0, r2
 8002b6e:	ea03 0204 	and.w	r2, r3, r4
 8002b72:	f100 0308 	add.w	r3, r0, #8
 8002b76:	f841 2023 	str.w	r2, [r1, r3, lsl #2]
 8002b7a:	4a55      	ldr	r2, [pc, #340]	; (8002cd0 <uart6_init+0x254>)
 8002b7c:	79fb      	ldrb	r3, [r7, #7]
 8002b7e:	08db      	lsrs	r3, r3, #3
 8002b80:	b2db      	uxtb	r3, r3
 8002b82:	3308      	adds	r3, #8
 8002b84:	f852 3023 	ldr.w	r3, [r2, r3, lsl #2]
 8002b88:	7979      	ldrb	r1, [r7, #5]
 8002b8a:	79fa      	ldrb	r2, [r7, #7]
 8002b8c:	f002 0207 	and.w	r2, r2, #7
 8002b90:	0092      	lsls	r2, r2, #2
 8002b92:	fa01 f202 	lsl.w	r2, r1, r2
 8002b96:	4614      	mov	r4, r2
 8002b98:	494d      	ldr	r1, [pc, #308]	; (8002cd0 <uart6_init+0x254>)
 8002b9a:	79fa      	ldrb	r2, [r7, #7]
 8002b9c:	08d2      	lsrs	r2, r2, #3
 8002b9e:	b2d2      	uxtb	r2, r2
 8002ba0:	4610      	mov	r0, r2
 8002ba2:	ea43 0204 	orr.w	r2, r3, r4
 8002ba6:	f100 0308 	add.w	r3, r0, #8
 8002baa:	f841 2023 	str.w	r2, [r1, r3, lsl #2]
 8002bae:	4a48      	ldr	r2, [pc, #288]	; (8002cd0 <uart6_init+0x254>)
 8002bb0:	79bb      	ldrb	r3, [r7, #6]
 8002bb2:	08db      	lsrs	r3, r3, #3
 8002bb4:	b2db      	uxtb	r3, r3
 8002bb6:	3308      	adds	r3, #8
 8002bb8:	f852 3023 	ldr.w	r3, [r2, r3, lsl #2]
 8002bbc:	79ba      	ldrb	r2, [r7, #6]
 8002bbe:	f002 0207 	and.w	r2, r2, #7
 8002bc2:	0092      	lsls	r2, r2, #2
 8002bc4:	210f      	movs	r1, #15
 8002bc6:	fa01 f202 	lsl.w	r2, r1, r2
 8002bca:	43d2      	mvns	r2, r2
 8002bcc:	4614      	mov	r4, r2
 8002bce:	4940      	ldr	r1, [pc, #256]	; (8002cd0 <uart6_init+0x254>)
 8002bd0:	79ba      	ldrb	r2, [r7, #6]
 8002bd2:	08d2      	lsrs	r2, r2, #3
 8002bd4:	b2d2      	uxtb	r2, r2
 8002bd6:	4610      	mov	r0, r2
 8002bd8:	ea03 0204 	and.w	r2, r3, r4
 8002bdc:	f100 0308 	add.w	r3, r0, #8
 8002be0:	f841 2023 	str.w	r2, [r1, r3, lsl #2]
 8002be4:	4a3a      	ldr	r2, [pc, #232]	; (8002cd0 <uart6_init+0x254>)
 8002be6:	79bb      	ldrb	r3, [r7, #6]
 8002be8:	08db      	lsrs	r3, r3, #3
 8002bea:	b2db      	uxtb	r3, r3
 8002bec:	3308      	adds	r3, #8
 8002bee:	f852 3023 	ldr.w	r3, [r2, r3, lsl #2]
 8002bf2:	7979      	ldrb	r1, [r7, #5]
 8002bf4:	79ba      	ldrb	r2, [r7, #6]
 8002bf6:	f002 0207 	and.w	r2, r2, #7
 8002bfa:	0092      	lsls	r2, r2, #2
 8002bfc:	fa01 f202 	lsl.w	r2, r1, r2
 8002c00:	4614      	mov	r4, r2
 8002c02:	4933      	ldr	r1, [pc, #204]	; (8002cd0 <uart6_init+0x254>)
 8002c04:	79ba      	ldrb	r2, [r7, #6]
 8002c06:	08d2      	lsrs	r2, r2, #3
 8002c08:	b2d2      	uxtb	r2, r2
 8002c0a:	4610      	mov	r0, r2
 8002c0c:	ea43 0204 	orr.w	r2, r3, r4
 8002c10:	f100 0308 	add.w	r3, r0, #8
 8002c14:	f841 2023 	str.w	r2, [r1, r3, lsl #2]
 8002c18:	4b2e      	ldr	r3, [pc, #184]	; (8002cd4 <uart6_init+0x258>)
 8002c1a:	68db      	ldr	r3, [r3, #12]
 8002c1c:	4a2d      	ldr	r2, [pc, #180]	; (8002cd4 <uart6_init+0x258>)
 8002c1e:	f423 5380 	bic.w	r3, r3, #4096	; 0x1000
 8002c22:	60d3      	str	r3, [r2, #12]
 8002c24:	4b2b      	ldr	r3, [pc, #172]	; (8002cd4 <uart6_init+0x258>)
 8002c26:	691b      	ldr	r3, [r3, #16]
 8002c28:	4a2a      	ldr	r2, [pc, #168]	; (8002cd4 <uart6_init+0x258>)
 8002c2a:	f423 5340 	bic.w	r3, r3, #12288	; 0x3000
 8002c2e:	6113      	str	r3, [r2, #16]
 8002c30:	4b28      	ldr	r3, [pc, #160]	; (8002cd4 <uart6_init+0x258>)
 8002c32:	689b      	ldr	r3, [r3, #8]
 8002c34:	4a27      	ldr	r2, [pc, #156]	; (8002cd4 <uart6_init+0x258>)
 8002c36:	0c1b      	lsrs	r3, r3, #16
 8002c38:	041b      	lsls	r3, r3, #16
 8002c3a:	6093      	str	r3, [r2, #8]
 8002c3c:	4b25      	ldr	r3, [pc, #148]	; (8002cd4 <uart6_init+0x258>)
 8002c3e:	689b      	ldr	r3, [r3, #8]
 8002c40:	4a24      	ldr	r2, [pc, #144]	; (8002cd4 <uart6_init+0x258>)
 8002c42:	f443 5308 	orr.w	r3, r3, #8704	; 0x2200
 8002c46:	f043 032e 	orr.w	r3, r3, #46	; 0x2e
 8002c4a:	6093      	str	r3, [r2, #8]
 8002c4c:	4b21      	ldr	r3, [pc, #132]	; (8002cd4 <uart6_init+0x258>)
 8002c4e:	68db      	ldr	r3, [r3, #12]
 8002c50:	4a20      	ldr	r2, [pc, #128]	; (8002cd4 <uart6_init+0x258>)
 8002c52:	f043 030c 	orr.w	r3, r3, #12
 8002c56:	60d3      	str	r3, [r2, #12]
 8002c58:	4b1e      	ldr	r3, [pc, #120]	; (8002cd4 <uart6_init+0x258>)
 8002c5a:	68db      	ldr	r3, [r3, #12]
 8002c5c:	4a1d      	ldr	r2, [pc, #116]	; (8002cd4 <uart6_init+0x258>)
 8002c5e:	f043 0320 	orr.w	r3, r3, #32
 8002c62:	60d3      	str	r3, [r2, #12]
 8002c64:	4b1b      	ldr	r3, [pc, #108]	; (8002cd4 <uart6_init+0x258>)
 8002c66:	691b      	ldr	r3, [r3, #16]
 8002c68:	4a1a      	ldr	r2, [pc, #104]	; (8002cd4 <uart6_init+0x258>)
 8002c6a:	f423 4390 	bic.w	r3, r3, #18432	; 0x4800
 8002c6e:	6113      	str	r3, [r2, #16]
 8002c70:	4b18      	ldr	r3, [pc, #96]	; (8002cd4 <uart6_init+0x258>)
 8002c72:	695b      	ldr	r3, [r3, #20]
 8002c74:	4a17      	ldr	r2, [pc, #92]	; (8002cd4 <uart6_init+0x258>)
 8002c76:	f023 0322 	bic.w	r3, r3, #34	; 0x22
 8002c7a:	6153      	str	r3, [r2, #20]
 8002c7c:	4b15      	ldr	r3, [pc, #84]	; (8002cd4 <uart6_init+0x258>)
 8002c7e:	695b      	ldr	r3, [r3, #20]
 8002c80:	4a14      	ldr	r2, [pc, #80]	; (8002cd4 <uart6_init+0x258>)
 8002c82:	f043 0308 	orr.w	r3, r3, #8
 8002c86:	6153      	str	r3, [r2, #20]
 8002c88:	2347      	movs	r3, #71	; 0x47
 8002c8a:	713b      	strb	r3, [r7, #4]
 8002c8c:	4a12      	ldr	r2, [pc, #72]	; (8002cd8 <uart6_init+0x25c>)
 8002c8e:	793b      	ldrb	r3, [r7, #4]
 8002c90:	095b      	lsrs	r3, r3, #5
 8002c92:	b2db      	uxtb	r3, r3
 8002c94:	f852 3023 	ldr.w	r3, [r2, r3, lsl #2]
 8002c98:	793a      	ldrb	r2, [r7, #4]
 8002c9a:	f002 021f 	and.w	r2, r2, #31
 8002c9e:	2101      	movs	r1, #1
 8002ca0:	fa01 f202 	lsl.w	r2, r1, r2
 8002ca4:	4610      	mov	r0, r2
 8002ca6:	490c      	ldr	r1, [pc, #48]	; (8002cd8 <uart6_init+0x25c>)
 8002ca8:	793a      	ldrb	r2, [r7, #4]
 8002caa:	0952      	lsrs	r2, r2, #5
 8002cac:	b2d2      	uxtb	r2, r2
 8002cae:	4303      	orrs	r3, r0
 8002cb0:	f841 3022 	str.w	r3, [r1, r2, lsl #2]
 8002cb4:	4b07      	ldr	r3, [pc, #28]	; (8002cd4 <uart6_init+0x258>)
 8002cb6:	68db      	ldr	r3, [r3, #12]
 8002cb8:	4a06      	ldr	r2, [pc, #24]	; (8002cd4 <uart6_init+0x258>)
 8002cba:	f443 5300 	orr.w	r3, r3, #8192	; 0x2000
 8002cbe:	60d3      	str	r3, [r2, #12]
 8002cc0:	bf00      	nop
 8002cc2:	3708      	adds	r7, #8
 8002cc4:	46bd      	mov	sp, r7
 8002cc6:	bc90      	pop	{r4, r7}
 8002cc8:	4770      	bx	lr
 8002cca:	bf00      	nop
 8002ccc:	40023800 	.word	0x40023800
 8002cd0:	40020000 	.word	0x40020000
 8002cd4:	40011400 	.word	0x40011400
 8002cd8:	e000e100 	.word	0xe000e100

08002cdc <uart_pisi>:
 8002cdc:	b480      	push	{r7}
 8002cde:	b083      	sub	sp, #12
 8002ce0:	af00      	add	r7, sp, #0
 8002ce2:	4603      	mov	r3, r0
 8002ce4:	71fb      	strb	r3, [r7, #7]
 8002ce6:	4b2d      	ldr	r3, [pc, #180]	; (8002d9c <uart_pisi+0xc0>)
 8002ce8:	781b      	ldrb	r3, [r3, #0]
 8002cea:	b2db      	uxtb	r3, r3
 8002cec:	2b1e      	cmp	r3, #30
 8002cee:	d021      	beq.n	8002d34 <uart_pisi+0x58>
 8002cf0:	4b2b      	ldr	r3, [pc, #172]	; (8002da0 <uart_pisi+0xc4>)
 8002cf2:	781b      	ldrb	r3, [r3, #0]
 8002cf4:	b2db      	uxtb	r3, r3
 8002cf6:	4619      	mov	r1, r3
 8002cf8:	4a2a      	ldr	r2, [pc, #168]	; (8002da4 <uart_pisi+0xc8>)
 8002cfa:	79fb      	ldrb	r3, [r7, #7]
 8002cfc:	5453      	strb	r3, [r2, r1]
 8002cfe:	4b28      	ldr	r3, [pc, #160]	; (8002da0 <uart_pisi+0xc4>)
 8002d00:	781b      	ldrb	r3, [r3, #0]
 8002d02:	b2db      	uxtb	r3, r3
 8002d04:	1c5a      	adds	r2, r3, #1
 8002d06:	4b28      	ldr	r3, [pc, #160]	; (8002da8 <uart_pisi+0xcc>)
 8002d08:	fb83 1302 	smull	r1, r3, r3, r2
 8002d0c:	4413      	add	r3, r2
 8002d0e:	1119      	asrs	r1, r3, #4
 8002d10:	17d3      	asrs	r3, r2, #31
 8002d12:	1ac9      	subs	r1, r1, r3
 8002d14:	460b      	mov	r3, r1
 8002d16:	011b      	lsls	r3, r3, #4
 8002d18:	1a5b      	subs	r3, r3, r1
 8002d1a:	005b      	lsls	r3, r3, #1
 8002d1c:	1ad1      	subs	r1, r2, r3
 8002d1e:	b2ca      	uxtb	r2, r1
 8002d20:	4b1f      	ldr	r3, [pc, #124]	; (8002da0 <uart_pisi+0xc4>)
 8002d22:	701a      	strb	r2, [r3, #0]
 8002d24:	4b1d      	ldr	r3, [pc, #116]	; (8002d9c <uart_pisi+0xc0>)
 8002d26:	781b      	ldrb	r3, [r3, #0]
 8002d28:	b2db      	uxtb	r3, r3
 8002d2a:	3301      	adds	r3, #1
 8002d2c:	b2da      	uxtb	r2, r3
 8002d2e:	4b1b      	ldr	r3, [pc, #108]	; (8002d9c <uart_pisi+0xc0>)
 8002d30:	701a      	strb	r2, [r3, #0]
 8002d32:	e02c      	b.n	8002d8e <uart_pisi+0xb2>
 8002d34:	4b1a      	ldr	r3, [pc, #104]	; (8002da0 <uart_pisi+0xc4>)
 8002d36:	781b      	ldrb	r3, [r3, #0]
 8002d38:	b2db      	uxtb	r3, r3
 8002d3a:	4619      	mov	r1, r3
 8002d3c:	4a19      	ldr	r2, [pc, #100]	; (8002da4 <uart_pisi+0xc8>)
 8002d3e:	79fb      	ldrb	r3, [r7, #7]
 8002d40:	5453      	strb	r3, [r2, r1]
 8002d42:	4b17      	ldr	r3, [pc, #92]	; (8002da0 <uart_pisi+0xc4>)
 8002d44:	781b      	ldrb	r3, [r3, #0]
 8002d46:	b2db      	uxtb	r3, r3
 8002d48:	1c5a      	adds	r2, r3, #1
 8002d4a:	4b17      	ldr	r3, [pc, #92]	; (8002da8 <uart_pisi+0xcc>)
 8002d4c:	fb83 1302 	smull	r1, r3, r3, r2
 8002d50:	4413      	add	r3, r2
 8002d52:	1119      	asrs	r1, r3, #4
 8002d54:	17d3      	asrs	r3, r2, #31
 8002d56:	1ac9      	subs	r1, r1, r3
 8002d58:	460b      	mov	r3, r1
 8002d5a:	011b      	lsls	r3, r3, #4
 8002d5c:	1a5b      	subs	r3, r3, r1
 8002d5e:	005b      	lsls	r3, r3, #1
 8002d60:	1ad1      	subs	r1, r2, r3
 8002d62:	b2ca      	uxtb	r2, r1
 8002d64:	4b0e      	ldr	r3, [pc, #56]	; (8002da0 <uart_pisi+0xc4>)
 8002d66:	701a      	strb	r2, [r3, #0]
 8002d68:	4b10      	ldr	r3, [pc, #64]	; (8002dac <uart_pisi+0xd0>)
 8002d6a:	781b      	ldrb	r3, [r3, #0]
 8002d6c:	b2db      	uxtb	r3, r3
 8002d6e:	1c5a      	adds	r2, r3, #1
 8002d70:	4b0d      	ldr	r3, [pc, #52]	; (8002da8 <uart_pisi+0xcc>)
 8002d72:	fb83 1302 	smull	r1, r3, r3, r2
 8002d76:	4413      	add	r3, r2
 8002d78:	1119      	asrs	r1, r3, #4
 8002d7a:	17d3      	asrs	r3, r2, #31
 8002d7c:	1ac9      	subs	r1, r1, r3
 8002d7e:	460b      	mov	r3, r1
 8002d80:	011b      	lsls	r3, r3, #4
 8002d82:	1a5b      	subs	r3, r3, r1
 8002d84:	005b      	lsls	r3, r3, #1
 8002d86:	1ad1      	subs	r1, r2, r3
 8002d88:	b2ca      	uxtb	r2, r1
 8002d8a:	4b08      	ldr	r3, [pc, #32]	; (8002dac <uart_pisi+0xd0>)
 8002d8c:	701a      	strb	r2, [r3, #0]
 8002d8e:	bf00      	nop
 8002d90:	370c      	adds	r7, #12
 8002d92:	46bd      	mov	sp, r7
 8002d94:	f85d 7b04 	ldr.w	r7, [sp], #4
 8002d98:	4770      	bx	lr
 8002d9a:	bf00      	nop
 8002d9c:	2000018a 	.word	0x2000018a
 8002da0:	2000018b 	.word	0x2000018b
 8002da4:	2000016c 	.word	0x2000016c
 8002da8:	88888889 	.word	0x88888889
 8002dac:	2000018c 	.word	0x2000018c

08002db0 <USART6_IRQHandler>:
 8002db0:	b580      	push	{r7, lr}
 8002db2:	af00      	add	r7, sp, #0
 8002db4:	4b06      	ldr	r3, [pc, #24]	; (8002dd0 <USART6_IRQHandler+0x20>)
 8002db6:	681b      	ldr	r3, [r3, #0]
 8002db8:	f003 0320 	and.w	r3, r3, #32
 8002dbc:	2b00      	cmp	r3, #0
 8002dbe:	d005      	beq.n	8002dcc <USART6_IRQHandler+0x1c>
 8002dc0:	4b03      	ldr	r3, [pc, #12]	; (8002dd0 <USART6_IRQHandler+0x20>)
 8002dc2:	685b      	ldr	r3, [r3, #4]
 8002dc4:	b2db      	uxtb	r3, r3
 8002dc6:	4618      	mov	r0, r3
 8002dc8:	f7ff ff88 	bl	8002cdc <uart_pisi>
 8002dcc:	bf00      	nop
 8002dce:	bd80      	pop	{r7, pc}
 8002dd0:	40011400 	.word	0x40011400

08002dd4 <main>:
/**
  * @brief  The application entry point.
  * @retval int
  */
int main(void)
{
 8002dd4:	b580      	push	{r7, lr}
 8002dd6:	af00      	add	r7, sp, #0
  /* USER CODE BEGIN 1 */

  /* USER CODE END 1 */
  
       	/* MCU Configuration--------------------------------------------------------*/  	/* Reset of all peripherals, Initializes the Flash interface and the Systick. */                                                                                                                                                                                                     HAL_Init();
 8002dd8:	f000 f974 	bl	80030c4 <HAL_Init>

  /* USER CODE BEGIN Init */
  tajmer_init();
 8002ddc:	f7ff fb22 	bl	8002424 <tajmer_init>
  enc_init();
 8002de0:	f7ff fb26 	bl	8002430 <enc_init>
  motor_init();
 8002de4:	f7fe f8a6 	bl	8000f34 <motor_init>
  pid_init();
 8002de8:	f7fe fac4 	bl	8001374 <pid_init>
  init_PWM();
 8002dec:	f7ff f928 	bl	8002040 <init_PWM>
  uart_init();
 8002df0:	f7ff fe3e 	bl	8002a70 <uart_init>
 init_senzor();
 8002df4:	f7ff fa78 	bl	80022e8 <init_senzor>


  /* USER CODE END Init */

  /* Configure the system clock */
  SystemClock_Config();
 8002df8:	f000 f85c 	bl	8002eb4 <SystemClock_Config>
  /* Infinite loop */


  /* USER CODE BEGIN WHILE */

while(0){
 8002dfc:	bf00      	nop



}
	  while (1) {
		  if(j==0){ //-(60*M_PI)/180
 8002dfe:	4b26      	ldr	r3, [pc, #152]	; (8002e98 <main+0xc4>)
 8002e00:	681b      	ldr	r3, [r3, #0]
 8002e02:	2b00      	cmp	r3, #0
 8002e04:	d10a      	bne.n	8002e1c <main+0x48>
	      pid_init();
 8002e06:	f7fe fab5 	bl	8001374 <pid_init>
	      racunanje_brzine(0, 0);
 8002e0a:	eddf 0a24 	vldr	s1, [pc, #144]	; 8002e9c <main+0xc8>
 8002e0e:	ed9f 0a23 	vldr	s0, [pc, #140]	; 8002e9c <main+0xc8>
 8002e12:	f7fe fbf1 	bl	80015f8 <racunanje_brzine>

	      j=1;
 8002e16:	4b20      	ldr	r3, [pc, #128]	; (8002e98 <main+0xc4>)
 8002e18:	2201      	movs	r2, #1
 8002e1a:	601a      	str	r2, [r3, #0]
		  }
		  if(j==1){
 8002e1c:	4b1e      	ldr	r3, [pc, #120]	; (8002e98 <main+0xc4>)
 8002e1e:	681b      	ldr	r3, [r3, #0]
 8002e20:	2b01      	cmp	r3, #1
 8002e22:	d110      	bne.n	8002e46 <main+0x72>
		  napred(300,0,0,1200,4,0); //bilo 800  -(60*M_PI)/180
 8002e24:	2000      	movs	r0, #0
 8002e26:	eeb1 2a00 	vmov.f32	s4, #16	; 0x40800000  4.0
 8002e2a:	eddf 1a1d 	vldr	s3, [pc, #116]	; 8002ea0 <main+0xcc>
 8002e2e:	ed9f 1a1b 	vldr	s2, [pc, #108]	; 8002e9c <main+0xc8>
 8002e32:	eddf 0a1a 	vldr	s1, [pc, #104]	; 8002e9c <main+0xc8>
 8002e36:	ed9f 0a1b 	vldr	s0, [pc, #108]	; 8002ea4 <main+0xd0>
 8002e3a:	f7fe f831 	bl	8000ea0 <napred>
		  		 		j=2;								// x-93 y+100
 8002e3e:	4b16      	ldr	r3, [pc, #88]	; (8002e98 <main+0xc4>)
 8002e40:	2202      	movs	r2, #2
 8002e42:	601a      	str	r2, [r3, #0]
 8002e44:	e013      	b.n	8002e6e <main+0x9a>
		  			  }
		  		  else if(j==2){
 8002e46:	4b14      	ldr	r3, [pc, #80]	; (8002e98 <main+0xc4>)
 8002e48:	681b      	ldr	r3, [r3, #0]
 8002e4a:	2b02      	cmp	r3, #2
 8002e4c:	d10f      	bne.n	8002e6e <main+0x9a>
		  			  napred(50,0,0+(M_PI),300,4,1);//600,
 8002e4e:	2001      	movs	r0, #1
 8002e50:	eeb1 2a00 	vmov.f32	s4, #16	; 0x40800000  4.0
 8002e54:	eddf 1a13 	vldr	s3, [pc, #76]	; 8002ea4 <main+0xd0>
 8002e58:	ed9f 1a13 	vldr	s2, [pc, #76]	; 8002ea8 <main+0xd4>
 8002e5c:	eddf 0a0f 	vldr	s1, [pc, #60]	; 8002e9c <main+0xc8>
 8002e60:	ed9f 0a12 	vldr	s0, [pc, #72]	; 8002eac <main+0xd8>
 8002e64:	f7fe f81c 	bl	8000ea0 <napred>
		  			  j=3 ;}
 8002e68:	4b0b      	ldr	r3, [pc, #44]	; (8002e98 <main+0xc4>)
 8002e6a:	2203      	movs	r2, #3
 8002e6c:	601a      	str	r2, [r3, #0]
		  if(j==3){
 8002e6e:	4b0a      	ldr	r3, [pc, #40]	; (8002e98 <main+0xc4>)
 8002e70:	681b      	ldr	r3, [r3, #0]
 8002e72:	2b03      	cmp	r3, #3
 8002e74:	d1c3      	bne.n	8002dfe <main+0x2a>
		  		  napred(300,0,M_PI/4,1200,4,0); //bilo 800  -(60*M_PI)/180
 8002e76:	2000      	movs	r0, #0
 8002e78:	eeb1 2a00 	vmov.f32	s4, #16	; 0x40800000  4.0
 8002e7c:	eddf 1a08 	vldr	s3, [pc, #32]	; 8002ea0 <main+0xcc>
 8002e80:	ed9f 1a0b 	vldr	s2, [pc, #44]	; 8002eb0 <main+0xdc>
 8002e84:	eddf 0a05 	vldr	s1, [pc, #20]	; 8002e9c <main+0xc8>
 8002e88:	ed9f 0a06 	vldr	s0, [pc, #24]	; 8002ea4 <main+0xd0>
 8002e8c:	f7fe f808 	bl	8000ea0 <napred>
		  		  		 		j=4;								// x-93 y+100
 8002e90:	4b01      	ldr	r3, [pc, #4]	; (8002e98 <main+0xc4>)
 8002e92:	2204      	movs	r2, #4
 8002e94:	601a      	str	r2, [r3, #0]
		  if(j==0){ //-(60*M_PI)/180
 8002e96:	e7b2      	b.n	8002dfe <main+0x2a>
 8002e98:	20000190 	.word	0x20000190
 8002e9c:	00000000 	.word	0x00000000
 8002ea0:	44960000 	.word	0x44960000
 8002ea4:	43960000 	.word	0x43960000
 8002ea8:	40490fdb 	.word	0x40490fdb
 8002eac:	42480000 	.word	0x42480000
 8002eb0:	3f490fdb 	.word	0x3f490fdb

08002eb4 <SystemClock_Config>:
/**
  * @brief System Clock Configuration
  * @retval None
  */
void SystemClock_Config(void)
{
 8002eb4:	b580      	push	{r7, lr}
 8002eb6:	b094      	sub	sp, #80	; 0x50
 8002eb8:	af00      	add	r7, sp, #0
  RCC_OscInitTypeDef RCC_OscInitStruct = {0};
 8002eba:	f107 0320 	add.w	r3, r7, #32
 8002ebe:	2230      	movs	r2, #48	; 0x30
 8002ec0:	2100      	movs	r1, #0
 8002ec2:	4618      	mov	r0, r3
 8002ec4:	f000 fe88 	bl	8003bd8 <memset>
  RCC_ClkInitTypeDef RCC_ClkInitStruct = {0};
 8002ec8:	f107 030c 	add.w	r3, r7, #12
 8002ecc:	2200      	movs	r2, #0
 8002ece:	601a      	str	r2, [r3, #0]
 8002ed0:	605a      	str	r2, [r3, #4]
 8002ed2:	609a      	str	r2, [r3, #8]
 8002ed4:	60da      	str	r2, [r3, #12]
 8002ed6:	611a      	str	r2, [r3, #16]

  /** Configure the main internal regulator output voltage 
  */
  __HAL_RCC_PWR_CLK_ENABLE();
 8002ed8:	2300      	movs	r3, #0
 8002eda:	60bb      	str	r3, [r7, #8]
 8002edc:	4b28      	ldr	r3, [pc, #160]	; (8002f80 <SystemClock_Config+0xcc>)
 8002ede:	6c1b      	ldr	r3, [r3, #64]	; 0x40
 8002ee0:	4a27      	ldr	r2, [pc, #156]	; (8002f80 <SystemClock_Config+0xcc>)
 8002ee2:	f043 5380 	orr.w	r3, r3, #268435456	; 0x10000000
 8002ee6:	6413      	str	r3, [r2, #64]	; 0x40
 8002ee8:	4b25      	ldr	r3, [pc, #148]	; (8002f80 <SystemClock_Config+0xcc>)
 8002eea:	6c1b      	ldr	r3, [r3, #64]	; 0x40
 8002eec:	f003 5380 	and.w	r3, r3, #268435456	; 0x10000000
 8002ef0:	60bb      	str	r3, [r7, #8]
 8002ef2:	68bb      	ldr	r3, [r7, #8]
  __HAL_PWR_VOLTAGESCALING_CONFIG(PWR_REGULATOR_VOLTAGE_SCALE2);
 8002ef4:	2300      	movs	r3, #0
 8002ef6:	607b      	str	r3, [r7, #4]
 8002ef8:	4b22      	ldr	r3, [pc, #136]	; (8002f84 <SystemClock_Config+0xd0>)
 8002efa:	681b      	ldr	r3, [r3, #0]
 8002efc:	f423 4340 	bic.w	r3, r3, #49152	; 0xc000
 8002f00:	4a20      	ldr	r2, [pc, #128]	; (8002f84 <SystemClock_Config+0xd0>)
 8002f02:	f443 4300 	orr.w	r3, r3, #32768	; 0x8000
 8002f06:	6013      	str	r3, [r2, #0]
 8002f08:	4b1e      	ldr	r3, [pc, #120]	; (8002f84 <SystemClock_Config+0xd0>)
 8002f0a:	681b      	ldr	r3, [r3, #0]
 8002f0c:	f403 4340 	and.w	r3, r3, #49152	; 0xc000
 8002f10:	607b      	str	r3, [r7, #4]
 8002f12:	687b      	ldr	r3, [r7, #4]
  /** Initializes the CPU, AHB and APB busses clocks 
  */
  RCC_OscInitStruct.OscillatorType = RCC_OSCILLATORTYPE_HSI;
 8002f14:	2302      	movs	r3, #2
 8002f16:	623b      	str	r3, [r7, #32]
  RCC_OscInitStruct.HSIState = RCC_HSI_ON;
 8002f18:	2301      	movs	r3, #1
 8002f1a:	62fb      	str	r3, [r7, #44]	; 0x2c
  RCC_OscInitStruct.HSICalibrationValue = RCC_HSICALIBRATION_DEFAULT;
 8002f1c:	2310      	movs	r3, #16
 8002f1e:	633b      	str	r3, [r7, #48]	; 0x30
  RCC_OscInitStruct.PLL.PLLState = RCC_PLL_ON;
 8002f20:	2302      	movs	r3, #2
 8002f22:	63bb      	str	r3, [r7, #56]	; 0x38
  RCC_OscInitStruct.PLL.PLLSource = RCC_PLLSOURCE_HSI;
 8002f24:	2300      	movs	r3, #0
 8002f26:	63fb      	str	r3, [r7, #60]	; 0x3c
  RCC_OscInitStruct.PLL.PLLM = 8;
 8002f28:	2308      	movs	r3, #8
 8002f2a:	643b      	str	r3, [r7, #64]	; 0x40
  RCC_OscInitStruct.PLL.PLLN = 84;
 8002f2c:	2354      	movs	r3, #84	; 0x54
 8002f2e:	647b      	str	r3, [r7, #68]	; 0x44
  RCC_OscInitStruct.PLL.PLLP = RCC_PLLP_DIV2;
 8002f30:	2302      	movs	r3, #2
 8002f32:	64bb      	str	r3, [r7, #72]	; 0x48
  RCC_OscInitStruct.PLL.PLLQ = 4;
 8002f34:	2304      	movs	r3, #4
 8002f36:	64fb      	str	r3, [r7, #76]	; 0x4c
  if (HAL_RCC_OscConfig(&RCC_OscInitStruct) != HAL_OK)
 8002f38:	f107 0320 	add.w	r3, r7, #32
 8002f3c:	4618      	mov	r0, r3
 8002f3e:	f000 fa19 	bl	8003374 <HAL_RCC_OscConfig>
 8002f42:	4603      	mov	r3, r0
 8002f44:	2b00      	cmp	r3, #0
 8002f46:	d001      	beq.n	8002f4c <SystemClock_Config+0x98>
  {
    Error_Handler();
 8002f48:	f000 f81e 	bl	8002f88 <Error_Handler>
  }
  /** Initializes the CPU, AHB and APB busses clocks 
  */
  RCC_ClkInitStruct.ClockType = RCC_CLOCKTYPE_HCLK|RCC_CLOCKTYPE_SYSCLK
 8002f4c:	230f      	movs	r3, #15
 8002f4e:	60fb      	str	r3, [r7, #12]
                              |RCC_CLOCKTYPE_PCLK1|RCC_CLOCKTYPE_PCLK2;
  RCC_ClkInitStruct.SYSCLKSource = RCC_SYSCLKSOURCE_PLLCLK;
 8002f50:	2302      	movs	r3, #2
 8002f52:	613b      	str	r3, [r7, #16]
  RCC_ClkInitStruct.AHBCLKDivider = RCC_SYSCLK_DIV1;
 8002f54:	2300      	movs	r3, #0
 8002f56:	617b      	str	r3, [r7, #20]
  RCC_ClkInitStruct.APB1CLKDivider = RCC_HCLK_DIV2;
 8002f58:	f44f 5380 	mov.w	r3, #4096	; 0x1000
 8002f5c:	61bb      	str	r3, [r7, #24]
  RCC_ClkInitStruct.APB2CLKDivider = RCC_HCLK_DIV1;
 8002f5e:	2300      	movs	r3, #0
 8002f60:	61fb      	str	r3, [r7, #28]

  if (HAL_RCC_ClockConfig(&RCC_ClkInitStruct, FLASH_LATENCY_2) != HAL_OK)
 8002f62:	f107 030c 	add.w	r3, r7, #12
 8002f66:	2102      	movs	r1, #2
 8002f68:	4618      	mov	r0, r3
 8002f6a:	f000 fc73 	bl	8003854 <HAL_RCC_ClockConfig>
 8002f6e:	4603      	mov	r3, r0
 8002f70:	2b00      	cmp	r3, #0
 8002f72:	d001      	beq.n	8002f78 <SystemClock_Config+0xc4>
  {
    Error_Handler();
 8002f74:	f000 f808 	bl	8002f88 <Error_Handler>
  }
}
 8002f78:	bf00      	nop
 8002f7a:	3750      	adds	r7, #80	; 0x50
 8002f7c:	46bd      	mov	sp, r7
 8002f7e:	bd80      	pop	{r7, pc}
 8002f80:	40023800 	.word	0x40023800
 8002f84:	40007000 	.word	0x40007000

08002f88 <Error_Handler>:
/**
  * @brief  This function is executed in case of error occurrence.
  * @retval None
  */
void Error_Handler(void)
{
 8002f88:	b480      	push	{r7}
 8002f8a:	af00      	add	r7, sp, #0
  /* USER CODE BEGIN Error_Handler_Debug */
  /* User can add his own implementation to report the HAL error return state */

  /* USER CODE END Error_Handler_Debug */

}
 8002f8c:	bf00      	nop
 8002f8e:	46bd      	mov	sp, r7
 8002f90:	f85d 7b04 	ldr.w	r7, [sp], #4
 8002f94:	4770      	bx	lr
	...

08002f98 <HAL_MspInit>:
 8002f98:	b480      	push	{r7}
 8002f9a:	b083      	sub	sp, #12
 8002f9c:	af00      	add	r7, sp, #0
 8002f9e:	2300      	movs	r3, #0
 8002fa0:	607b      	str	r3, [r7, #4]
 8002fa2:	4b10      	ldr	r3, [pc, #64]	; (8002fe4 <HAL_MspInit+0x4c>)
 8002fa4:	6c5b      	ldr	r3, [r3, #68]	; 0x44
 8002fa6:	4a0f      	ldr	r2, [pc, #60]	; (8002fe4 <HAL_MspInit+0x4c>)
 8002fa8:	f443 4380 	orr.w	r3, r3, #16384	; 0x4000
 8002fac:	6453      	str	r3, [r2, #68]	; 0x44
 8002fae:	4b0d      	ldr	r3, [pc, #52]	; (8002fe4 <HAL_MspInit+0x4c>)
 8002fb0:	6c5b      	ldr	r3, [r3, #68]	; 0x44
 8002fb2:	f403 4380 	and.w	r3, r3, #16384	; 0x4000
 8002fb6:	607b      	str	r3, [r7, #4]
 8002fb8:	687b      	ldr	r3, [r7, #4]
 8002fba:	2300      	movs	r3, #0
 8002fbc:	603b      	str	r3, [r7, #0]
 8002fbe:	4b09      	ldr	r3, [pc, #36]	; (8002fe4 <HAL_MspInit+0x4c>)
 8002fc0:	6c1b      	ldr	r3, [r3, #64]	; 0x40
 8002fc2:	4a08      	ldr	r2, [pc, #32]	; (8002fe4 <HAL_MspInit+0x4c>)
 8002fc4:	f043 5380 	orr.w	r3, r3, #268435456	; 0x10000000
 8002fc8:	6413      	str	r3, [r2, #64]	; 0x40
 8002fca:	4b06      	ldr	r3, [pc, #24]	; (8002fe4 <HAL_MspInit+0x4c>)
 8002fcc:	6c1b      	ldr	r3, [r3, #64]	; 0x40
 8002fce:	f003 5380 	and.w	r3, r3, #268435456	; 0x10000000
 8002fd2:	603b      	str	r3, [r7, #0]
 8002fd4:	683b      	ldr	r3, [r7, #0]
 8002fd6:	bf00      	nop
 8002fd8:	370c      	adds	r7, #12
 8002fda:	46bd      	mov	sp, r7
 8002fdc:	f85d 7b04 	ldr.w	r7, [sp], #4
 8002fe0:	4770      	bx	lr
 8002fe2:	bf00      	nop
 8002fe4:	40023800 	.word	0x40023800

08002fe8 <NMI_Handler>:
 8002fe8:	b480      	push	{r7}
 8002fea:	af00      	add	r7, sp, #0
 8002fec:	bf00      	nop
 8002fee:	46bd      	mov	sp, r7
 8002ff0:	f85d 7b04 	ldr.w	r7, [sp], #4
 8002ff4:	4770      	bx	lr

08002ff6 <HardFault_Handler>:
 8002ff6:	b480      	push	{r7}
 8002ff8:	af00      	add	r7, sp, #0
 8002ffa:	e7fe      	b.n	8002ffa <HardFault_Handler+0x4>

08002ffc <MemManage_Handler>:
 8002ffc:	b480      	push	{r7}
 8002ffe:	af00      	add	r7, sp, #0
 8003000:	e7fe      	b.n	8003000 <MemManage_Handler+0x4>

08003002 <BusFault_Handler>:
 8003002:	b480      	push	{r7}
 8003004:	af00      	add	r7, sp, #0
 8003006:	e7fe      	b.n	8003006 <BusFault_Handler+0x4>

08003008 <UsageFault_Handler>:
 8003008:	b480      	push	{r7}
 800300a:	af00      	add	r7, sp, #0
 800300c:	e7fe      	b.n	800300c <UsageFault_Handler+0x4>

0800300e <SVC_Handler>:
 800300e:	b480      	push	{r7}
 8003010:	af00      	add	r7, sp, #0
 8003012:	bf00      	nop
 8003014:	46bd      	mov	sp, r7
 8003016:	f85d 7b04 	ldr.w	r7, [sp], #4
 800301a:	4770      	bx	lr

0800301c <DebugMon_Handler>:
 800301c:	b480      	push	{r7}
 800301e:	af00      	add	r7, sp, #0
 8003020:	bf00      	nop
 8003022:	46bd      	mov	sp, r7
 8003024:	f85d 7b04 	ldr.w	r7, [sp], #4
 8003028:	4770      	bx	lr

0800302a <PendSV_Handler>:
 800302a:	b480      	push	{r7}
 800302c:	af00      	add	r7, sp, #0
 800302e:	bf00      	nop
 8003030:	46bd      	mov	sp, r7
 8003032:	f85d 7b04 	ldr.w	r7, [sp], #4
 8003036:	4770      	bx	lr

08003038 <SysTick_Handler>:
 8003038:	b580      	push	{r7, lr}
 800303a:	af00      	add	r7, sp, #0
 800303c:	f000 f894 	bl	8003168 <HAL_IncTick>
 8003040:	bf00      	nop
 8003042:	bd80      	pop	{r7, pc}

08003044 <SystemInit>:
 8003044:	b480      	push	{r7}
 8003046:	af00      	add	r7, sp, #0
 8003048:	4b08      	ldr	r3, [pc, #32]	; (800306c <SystemInit+0x28>)
 800304a:	f8d3 3088 	ldr.w	r3, [r3, #136]	; 0x88
 800304e:	4a07      	ldr	r2, [pc, #28]	; (800306c <SystemInit+0x28>)
 8003050:	f443 0370 	orr.w	r3, r3, #15728640	; 0xf00000
 8003054:	f8c2 3088 	str.w	r3, [r2, #136]	; 0x88
 8003058:	4b04      	ldr	r3, [pc, #16]	; (800306c <SystemInit+0x28>)
 800305a:	f04f 6200 	mov.w	r2, #134217728	; 0x8000000
 800305e:	609a      	str	r2, [r3, #8]
 8003060:	bf00      	nop
 8003062:	46bd      	mov	sp, r7
 8003064:	f85d 7b04 	ldr.w	r7, [sp], #4
 8003068:	4770      	bx	lr
 800306a:	bf00      	nop
 800306c:	e000ed00 	.word	0xe000ed00

08003070 <Reset_Handler>:
 8003070:	f8df d034 	ldr.w	sp, [pc, #52]	; 80030a8 <LoopFillZerobss+0x14>
 8003074:	2100      	movs	r1, #0
 8003076:	e003      	b.n	8003080 <LoopCopyDataInit>

08003078 <CopyDataInit>:
 8003078:	4b0c      	ldr	r3, [pc, #48]	; (80030ac <LoopFillZerobss+0x18>)
 800307a:	585b      	ldr	r3, [r3, r1]
 800307c:	5043      	str	r3, [r0, r1]
 800307e:	3104      	adds	r1, #4

08003080 <LoopCopyDataInit>:
 8003080:	480b      	ldr	r0, [pc, #44]	; (80030b0 <LoopFillZerobss+0x1c>)
 8003082:	4b0c      	ldr	r3, [pc, #48]	; (80030b4 <LoopFillZerobss+0x20>)
 8003084:	1842      	adds	r2, r0, r1
 8003086:	429a      	cmp	r2, r3
 8003088:	d3f6      	bcc.n	8003078 <CopyDataInit>
 800308a:	4a0b      	ldr	r2, [pc, #44]	; (80030b8 <LoopFillZerobss+0x24>)
 800308c:	e002      	b.n	8003094 <LoopFillZerobss>

0800308e <FillZerobss>:
 800308e:	2300      	movs	r3, #0
 8003090:	f842 3b04 	str.w	r3, [r2], #4

08003094 <LoopFillZerobss>:
 8003094:	4b09      	ldr	r3, [pc, #36]	; (80030bc <LoopFillZerobss+0x28>)
 8003096:	429a      	cmp	r2, r3
 8003098:	d3f9      	bcc.n	800308e <FillZerobss>
 800309a:	f7ff ffd3 	bl	8003044 <SystemInit>
 800309e:	f000 fd77 	bl	8003b90 <__libc_init_array>
 80030a2:	f7ff fe97 	bl	8002dd4 <main>
 80030a6:	4770      	bx	lr
 80030a8:	20018000 	.word	0x20018000
 80030ac:	08006488 	.word	0x08006488
 80030b0:	20000000 	.word	0x20000000
 80030b4:	20000080 	.word	0x20000080
 80030b8:	20000080 	.word	0x20000080
 80030bc:	200001c0 	.word	0x200001c0

080030c0 <ADC_IRQHandler>:
 80030c0:	e7fe      	b.n	80030c0 <ADC_IRQHandler>
	...

080030c4 <HAL_Init>:
 80030c4:	b580      	push	{r7, lr}
 80030c6:	af00      	add	r7, sp, #0
 80030c8:	4b0e      	ldr	r3, [pc, #56]	; (8003104 <HAL_Init+0x40>)
 80030ca:	681b      	ldr	r3, [r3, #0]
 80030cc:	4a0d      	ldr	r2, [pc, #52]	; (8003104 <HAL_Init+0x40>)
 80030ce:	f443 7300 	orr.w	r3, r3, #512	; 0x200
 80030d2:	6013      	str	r3, [r2, #0]
 80030d4:	4b0b      	ldr	r3, [pc, #44]	; (8003104 <HAL_Init+0x40>)
 80030d6:	681b      	ldr	r3, [r3, #0]
 80030d8:	4a0a      	ldr	r2, [pc, #40]	; (8003104 <HAL_Init+0x40>)
 80030da:	f443 6380 	orr.w	r3, r3, #1024	; 0x400
 80030de:	6013      	str	r3, [r2, #0]
 80030e0:	4b08      	ldr	r3, [pc, #32]	; (8003104 <HAL_Init+0x40>)
 80030e2:	681b      	ldr	r3, [r3, #0]
 80030e4:	4a07      	ldr	r2, [pc, #28]	; (8003104 <HAL_Init+0x40>)
 80030e6:	f443 7380 	orr.w	r3, r3, #256	; 0x100
 80030ea:	6013      	str	r3, [r2, #0]
 80030ec:	2003      	movs	r0, #3
 80030ee:	f000 f90d 	bl	800330c <HAL_NVIC_SetPriorityGrouping>
 80030f2:	2000      	movs	r0, #0
 80030f4:	f000 f808 	bl	8003108 <HAL_InitTick>
 80030f8:	f7ff ff4e 	bl	8002f98 <HAL_MspInit>
 80030fc:	2300      	movs	r3, #0
 80030fe:	4618      	mov	r0, r3
 8003100:	bd80      	pop	{r7, pc}
 8003102:	bf00      	nop
 8003104:	40023c00 	.word	0x40023c00

08003108 <HAL_InitTick>:
 8003108:	b580      	push	{r7, lr}
 800310a:	b082      	sub	sp, #8
 800310c:	af00      	add	r7, sp, #0
 800310e:	6078      	str	r0, [r7, #4]
 8003110:	4b12      	ldr	r3, [pc, #72]	; (800315c <HAL_InitTick+0x54>)
 8003112:	681a      	ldr	r2, [r3, #0]
 8003114:	4b12      	ldr	r3, [pc, #72]	; (8003160 <HAL_InitTick+0x58>)
 8003116:	781b      	ldrb	r3, [r3, #0]
 8003118:	4619      	mov	r1, r3
 800311a:	f44f 737a 	mov.w	r3, #1000	; 0x3e8
 800311e:	fbb3 f3f1 	udiv	r3, r3, r1
 8003122:	fbb2 f3f3 	udiv	r3, r2, r3
 8003126:	4618      	mov	r0, r3
 8003128:	f000 f917 	bl	800335a <HAL_SYSTICK_Config>
 800312c:	4603      	mov	r3, r0
 800312e:	2b00      	cmp	r3, #0
 8003130:	d001      	beq.n	8003136 <HAL_InitTick+0x2e>
 8003132:	2301      	movs	r3, #1
 8003134:	e00e      	b.n	8003154 <HAL_InitTick+0x4c>
 8003136:	687b      	ldr	r3, [r7, #4]
 8003138:	2b0f      	cmp	r3, #15
 800313a:	d80a      	bhi.n	8003152 <HAL_InitTick+0x4a>
 800313c:	2200      	movs	r2, #0
 800313e:	6879      	ldr	r1, [r7, #4]
 8003140:	f04f 30ff 	mov.w	r0, #4294967295
 8003144:	f000 f8ed 	bl	8003322 <HAL_NVIC_SetPriority>
 8003148:	4a06      	ldr	r2, [pc, #24]	; (8003164 <HAL_InitTick+0x5c>)
 800314a:	687b      	ldr	r3, [r7, #4]
 800314c:	6013      	str	r3, [r2, #0]
 800314e:	2300      	movs	r3, #0
 8003150:	e000      	b.n	8003154 <HAL_InitTick+0x4c>
 8003152:	2301      	movs	r3, #1
 8003154:	4618      	mov	r0, r3
 8003156:	3708      	adds	r7, #8
 8003158:	46bd      	mov	sp, r7
 800315a:	bd80      	pop	{r7, pc}
 800315c:	2000000c 	.word	0x2000000c
 8003160:	20000014 	.word	0x20000014
 8003164:	20000010 	.word	0x20000010

08003168 <HAL_IncTick>:
 8003168:	b480      	push	{r7}
 800316a:	af00      	add	r7, sp, #0
 800316c:	4b06      	ldr	r3, [pc, #24]	; (8003188 <HAL_IncTick+0x20>)
 800316e:	781b      	ldrb	r3, [r3, #0]
 8003170:	461a      	mov	r2, r3
 8003172:	4b06      	ldr	r3, [pc, #24]	; (800318c <HAL_IncTick+0x24>)
 8003174:	681b      	ldr	r3, [r3, #0]
 8003176:	4413      	add	r3, r2
 8003178:	4a04      	ldr	r2, [pc, #16]	; (800318c <HAL_IncTick+0x24>)
 800317a:	6013      	str	r3, [r2, #0]
 800317c:	bf00      	nop
 800317e:	46bd      	mov	sp, r7
 8003180:	f85d 7b04 	ldr.w	r7, [sp], #4
 8003184:	4770      	bx	lr
 8003186:	bf00      	nop
 8003188:	20000014 	.word	0x20000014
 800318c:	200001bc 	.word	0x200001bc

08003190 <HAL_GetTick>:
 8003190:	b480      	push	{r7}
 8003192:	af00      	add	r7, sp, #0
 8003194:	4b03      	ldr	r3, [pc, #12]	; (80031a4 <HAL_GetTick+0x14>)
 8003196:	681b      	ldr	r3, [r3, #0]
 8003198:	4618      	mov	r0, r3
 800319a:	46bd      	mov	sp, r7
 800319c:	f85d 7b04 	ldr.w	r7, [sp], #4
 80031a0:	4770      	bx	lr
 80031a2:	bf00      	nop
 80031a4:	200001bc 	.word	0x200001bc

080031a8 <__NVIC_SetPriorityGrouping>:
 80031a8:	b480      	push	{r7}
 80031aa:	b085      	sub	sp, #20
 80031ac:	af00      	add	r7, sp, #0
 80031ae:	6078      	str	r0, [r7, #4]
 80031b0:	687b      	ldr	r3, [r7, #4]
 80031b2:	f003 0307 	and.w	r3, r3, #7
 80031b6:	60fb      	str	r3, [r7, #12]
 80031b8:	4b0c      	ldr	r3, [pc, #48]	; (80031ec <__NVIC_SetPriorityGrouping+0x44>)
 80031ba:	68db      	ldr	r3, [r3, #12]
 80031bc:	60bb      	str	r3, [r7, #8]
 80031be:	68ba      	ldr	r2, [r7, #8]
 80031c0:	f64f 03ff 	movw	r3, #63743	; 0xf8ff
 80031c4:	4013      	ands	r3, r2
 80031c6:	60bb      	str	r3, [r7, #8]
 80031c8:	68fb      	ldr	r3, [r7, #12]
 80031ca:	021a      	lsls	r2, r3, #8
 80031cc:	68bb      	ldr	r3, [r7, #8]
 80031ce:	4313      	orrs	r3, r2
 80031d0:	f043 63bf 	orr.w	r3, r3, #100139008	; 0x5f80000
 80031d4:	f443 3300 	orr.w	r3, r3, #131072	; 0x20000
 80031d8:	60bb      	str	r3, [r7, #8]
 80031da:	4a04      	ldr	r2, [pc, #16]	; (80031ec <__NVIC_SetPriorityGrouping+0x44>)
 80031dc:	68bb      	ldr	r3, [r7, #8]
 80031de:	60d3      	str	r3, [r2, #12]
 80031e0:	bf00      	nop
 80031e2:	3714      	adds	r7, #20
 80031e4:	46bd      	mov	sp, r7
 80031e6:	f85d 7b04 	ldr.w	r7, [sp], #4
 80031ea:	4770      	bx	lr
 80031ec:	e000ed00 	.word	0xe000ed00

080031f0 <__NVIC_GetPriorityGrouping>:
 80031f0:	b480      	push	{r7}
 80031f2:	af00      	add	r7, sp, #0
 80031f4:	4b04      	ldr	r3, [pc, #16]	; (8003208 <__NVIC_GetPriorityGrouping+0x18>)
 80031f6:	68db      	ldr	r3, [r3, #12]
 80031f8:	0a1b      	lsrs	r3, r3, #8
 80031fa:	f003 0307 	and.w	r3, r3, #7
 80031fe:	4618      	mov	r0, r3
 8003200:	46bd      	mov	sp, r7
 8003202:	f85d 7b04 	ldr.w	r7, [sp], #4
 8003206:	4770      	bx	lr
 8003208:	e000ed00 	.word	0xe000ed00

0800320c <__NVIC_SetPriority>:
 800320c:	b480      	push	{r7}
 800320e:	b083      	sub	sp, #12
 8003210:	af00      	add	r7, sp, #0
 8003212:	4603      	mov	r3, r0
 8003214:	6039      	str	r1, [r7, #0]
 8003216:	71fb      	strb	r3, [r7, #7]
 8003218:	f997 3007 	ldrsb.w	r3, [r7, #7]
 800321c:	2b00      	cmp	r3, #0
 800321e:	db0a      	blt.n	8003236 <__NVIC_SetPriority+0x2a>
 8003220:	683b      	ldr	r3, [r7, #0]
 8003222:	b2da      	uxtb	r2, r3
 8003224:	490c      	ldr	r1, [pc, #48]	; (8003258 <__NVIC_SetPriority+0x4c>)
 8003226:	f997 3007 	ldrsb.w	r3, [r7, #7]
 800322a:	0112      	lsls	r2, r2, #4
 800322c:	b2d2      	uxtb	r2, r2
 800322e:	440b      	add	r3, r1
 8003230:	f883 2300 	strb.w	r2, [r3, #768]	; 0x300
 8003234:	e00a      	b.n	800324c <__NVIC_SetPriority+0x40>
 8003236:	683b      	ldr	r3, [r7, #0]
 8003238:	b2da      	uxtb	r2, r3
 800323a:	4908      	ldr	r1, [pc, #32]	; (800325c <__NVIC_SetPriority+0x50>)
 800323c:	79fb      	ldrb	r3, [r7, #7]
 800323e:	f003 030f 	and.w	r3, r3, #15
 8003242:	3b04      	subs	r3, #4
 8003244:	0112      	lsls	r2, r2, #4
 8003246:	b2d2      	uxtb	r2, r2
 8003248:	440b      	add	r3, r1
 800324a:	761a      	strb	r2, [r3, #24]
 800324c:	bf00      	nop
 800324e:	370c      	adds	r7, #12
 8003250:	46bd      	mov	sp, r7
 8003252:	f85d 7b04 	ldr.w	r7, [sp], #4
 8003256:	4770      	bx	lr
 8003258:	e000e100 	.word	0xe000e100
 800325c:	e000ed00 	.word	0xe000ed00

08003260 <NVIC_EncodePriority>:
 8003260:	b480      	push	{r7}
 8003262:	b089      	sub	sp, #36	; 0x24
 8003264:	af00      	add	r7, sp, #0
 8003266:	60f8      	str	r0, [r7, #12]
 8003268:	60b9      	str	r1, [r7, #8]
 800326a:	607a      	str	r2, [r7, #4]
 800326c:	68fb      	ldr	r3, [r7, #12]
 800326e:	f003 0307 	and.w	r3, r3, #7
 8003272:	61fb      	str	r3, [r7, #28]
 8003274:	69fb      	ldr	r3, [r7, #28]
 8003276:	f1c3 0307 	rsb	r3, r3, #7
 800327a:	2b04      	cmp	r3, #4
 800327c:	bf28      	it	cs
 800327e:	2304      	movcs	r3, #4
 8003280:	61bb      	str	r3, [r7, #24]
 8003282:	69fb      	ldr	r3, [r7, #28]
 8003284:	3304      	adds	r3, #4
 8003286:	2b06      	cmp	r3, #6
 8003288:	d902      	bls.n	8003290 <NVIC_EncodePriority+0x30>
 800328a:	69fb      	ldr	r3, [r7, #28]
 800328c:	3b03      	subs	r3, #3
 800328e:	e000      	b.n	8003292 <NVIC_EncodePriority+0x32>
 8003290:	2300      	movs	r3, #0
 8003292:	617b      	str	r3, [r7, #20]
 8003294:	f04f 32ff 	mov.w	r2, #4294967295
 8003298:	69bb      	ldr	r3, [r7, #24]
 800329a:	fa02 f303 	lsl.w	r3, r2, r3
 800329e:	43da      	mvns	r2, r3
 80032a0:	68bb      	ldr	r3, [r7, #8]
 80032a2:	401a      	ands	r2, r3
 80032a4:	697b      	ldr	r3, [r7, #20]
 80032a6:	409a      	lsls	r2, r3
 80032a8:	f04f 31ff 	mov.w	r1, #4294967295
 80032ac:	697b      	ldr	r3, [r7, #20]
 80032ae:	fa01 f303 	lsl.w	r3, r1, r3
 80032b2:	43d9      	mvns	r1, r3
 80032b4:	687b      	ldr	r3, [r7, #4]
 80032b6:	400b      	ands	r3, r1
 80032b8:	4313      	orrs	r3, r2
 80032ba:	4618      	mov	r0, r3
 80032bc:	3724      	adds	r7, #36	; 0x24
 80032be:	46bd      	mov	sp, r7
 80032c0:	f85d 7b04 	ldr.w	r7, [sp], #4
 80032c4:	4770      	bx	lr
	...

080032c8 <SysTick_Config>:
 80032c8:	b580      	push	{r7, lr}
 80032ca:	b082      	sub	sp, #8
 80032cc:	af00      	add	r7, sp, #0
 80032ce:	6078      	str	r0, [r7, #4]
 80032d0:	687b      	ldr	r3, [r7, #4]
 80032d2:	3b01      	subs	r3, #1
 80032d4:	f1b3 7f80 	cmp.w	r3, #16777216	; 0x1000000
 80032d8:	d301      	bcc.n	80032de <SysTick_Config+0x16>
 80032da:	2301      	movs	r3, #1
 80032dc:	e00f      	b.n	80032fe <SysTick_Config+0x36>
 80032de:	4a0a      	ldr	r2, [pc, #40]	; (8003308 <SysTick_Config+0x40>)
 80032e0:	687b      	ldr	r3, [r7, #4]
 80032e2:	3b01      	subs	r3, #1
 80032e4:	6053      	str	r3, [r2, #4]
 80032e6:	210f      	movs	r1, #15
 80032e8:	f04f 30ff 	mov.w	r0, #4294967295
 80032ec:	f7ff ff8e 	bl	800320c <__NVIC_SetPriority>
 80032f0:	4b05      	ldr	r3, [pc, #20]	; (8003308 <SysTick_Config+0x40>)
 80032f2:	2200      	movs	r2, #0
 80032f4:	609a      	str	r2, [r3, #8]
 80032f6:	4b04      	ldr	r3, [pc, #16]	; (8003308 <SysTick_Config+0x40>)
 80032f8:	2207      	movs	r2, #7
 80032fa:	601a      	str	r2, [r3, #0]
 80032fc:	2300      	movs	r3, #0
 80032fe:	4618      	mov	r0, r3
 8003300:	3708      	adds	r7, #8
 8003302:	46bd      	mov	sp, r7
 8003304:	bd80      	pop	{r7, pc}
 8003306:	bf00      	nop
 8003308:	e000e010 	.word	0xe000e010

0800330c <HAL_NVIC_SetPriorityGrouping>:
 800330c:	b580      	push	{r7, lr}
 800330e:	b082      	sub	sp, #8
 8003310:	af00      	add	r7, sp, #0
 8003312:	6078      	str	r0, [r7, #4]
 8003314:	6878      	ldr	r0, [r7, #4]
 8003316:	f7ff ff47 	bl	80031a8 <__NVIC_SetPriorityGrouping>
 800331a:	bf00      	nop
 800331c:	3708      	adds	r7, #8
 800331e:	46bd      	mov	sp, r7
 8003320:	bd80      	pop	{r7, pc}

08003322 <HAL_NVIC_SetPriority>:
 8003322:	b580      	push	{r7, lr}
 8003324:	b086      	sub	sp, #24
 8003326:	af00      	add	r7, sp, #0
 8003328:	4603      	mov	r3, r0
 800332a:	60b9      	str	r1, [r7, #8]
 800332c:	607a      	str	r2, [r7, #4]
 800332e:	73fb      	strb	r3, [r7, #15]
 8003330:	2300      	movs	r3, #0
 8003332:	617b      	str	r3, [r7, #20]
 8003334:	f7ff ff5c 	bl	80031f0 <__NVIC_GetPriorityGrouping>
 8003338:	6178      	str	r0, [r7, #20]
 800333a:	687a      	ldr	r2, [r7, #4]
 800333c:	68b9      	ldr	r1, [r7, #8]
 800333e:	6978      	ldr	r0, [r7, #20]
 8003340:	f7ff ff8e 	bl	8003260 <NVIC_EncodePriority>
 8003344:	4602      	mov	r2, r0
 8003346:	f997 300f 	ldrsb.w	r3, [r7, #15]
 800334a:	4611      	mov	r1, r2
 800334c:	4618      	mov	r0, r3
 800334e:	f7ff ff5d 	bl	800320c <__NVIC_SetPriority>
 8003352:	bf00      	nop
 8003354:	3718      	adds	r7, #24
 8003356:	46bd      	mov	sp, r7
 8003358:	bd80      	pop	{r7, pc}

0800335a <HAL_SYSTICK_Config>:
 800335a:	b580      	push	{r7, lr}
 800335c:	b082      	sub	sp, #8
 800335e:	af00      	add	r7, sp, #0
 8003360:	6078      	str	r0, [r7, #4]
 8003362:	6878      	ldr	r0, [r7, #4]
 8003364:	f7ff ffb0 	bl	80032c8 <SysTick_Config>
 8003368:	4603      	mov	r3, r0
 800336a:	4618      	mov	r0, r3
 800336c:	3708      	adds	r7, #8
 800336e:	46bd      	mov	sp, r7
 8003370:	bd80      	pop	{r7, pc}
	...

08003374 <HAL_RCC_OscConfig>:
 8003374:	b580      	push	{r7, lr}
 8003376:	b086      	sub	sp, #24
 8003378:	af00      	add	r7, sp, #0
 800337a:	6078      	str	r0, [r7, #4]
 800337c:	687b      	ldr	r3, [r7, #4]
 800337e:	2b00      	cmp	r3, #0
 8003380:	d101      	bne.n	8003386 <HAL_RCC_OscConfig+0x12>
 8003382:	2301      	movs	r3, #1
 8003384:	e25b      	b.n	800383e <HAL_RCC_OscConfig+0x4ca>
 8003386:	687b      	ldr	r3, [r7, #4]
 8003388:	681b      	ldr	r3, [r3, #0]
 800338a:	f003 0301 	and.w	r3, r3, #1
 800338e:	2b00      	cmp	r3, #0
 8003390:	d075      	beq.n	800347e <HAL_RCC_OscConfig+0x10a>
 8003392:	4ba3      	ldr	r3, [pc, #652]	; (8003620 <HAL_RCC_OscConfig+0x2ac>)
 8003394:	689b      	ldr	r3, [r3, #8]
 8003396:	f003 030c 	and.w	r3, r3, #12
 800339a:	2b04      	cmp	r3, #4
 800339c:	d00c      	beq.n	80033b8 <HAL_RCC_OscConfig+0x44>
 800339e:	4ba0      	ldr	r3, [pc, #640]	; (8003620 <HAL_RCC_OscConfig+0x2ac>)
 80033a0:	689b      	ldr	r3, [r3, #8]
 80033a2:	f003 030c 	and.w	r3, r3, #12
 80033a6:	2b08      	cmp	r3, #8
 80033a8:	d112      	bne.n	80033d0 <HAL_RCC_OscConfig+0x5c>
 80033aa:	4b9d      	ldr	r3, [pc, #628]	; (8003620 <HAL_RCC_OscConfig+0x2ac>)
 80033ac:	685b      	ldr	r3, [r3, #4]
 80033ae:	f403 0380 	and.w	r3, r3, #4194304	; 0x400000
 80033b2:	f5b3 0f80 	cmp.w	r3, #4194304	; 0x400000
 80033b6:	d10b      	bne.n	80033d0 <HAL_RCC_OscConfig+0x5c>
 80033b8:	4b99      	ldr	r3, [pc, #612]	; (8003620 <HAL_RCC_OscConfig+0x2ac>)
 80033ba:	681b      	ldr	r3, [r3, #0]
 80033bc:	f403 3300 	and.w	r3, r3, #131072	; 0x20000
 80033c0:	2b00      	cmp	r3, #0
 80033c2:	d05b      	beq.n	800347c <HAL_RCC_OscConfig+0x108>
 80033c4:	687b      	ldr	r3, [r7, #4]
 80033c6:	685b      	ldr	r3, [r3, #4]
 80033c8:	2b00      	cmp	r3, #0
 80033ca:	d157      	bne.n	800347c <HAL_RCC_OscConfig+0x108>
 80033cc:	2301      	movs	r3, #1
 80033ce:	e236      	b.n	800383e <HAL_RCC_OscConfig+0x4ca>
 80033d0:	687b      	ldr	r3, [r7, #4]
 80033d2:	685b      	ldr	r3, [r3, #4]
 80033d4:	f5b3 3f80 	cmp.w	r3, #65536	; 0x10000
 80033d8:	d106      	bne.n	80033e8 <HAL_RCC_OscConfig+0x74>
 80033da:	4b91      	ldr	r3, [pc, #580]	; (8003620 <HAL_RCC_OscConfig+0x2ac>)
 80033dc:	681b      	ldr	r3, [r3, #0]
 80033de:	4a90      	ldr	r2, [pc, #576]	; (8003620 <HAL_RCC_OscConfig+0x2ac>)
 80033e0:	f443 3380 	orr.w	r3, r3, #65536	; 0x10000
 80033e4:	6013      	str	r3, [r2, #0]
 80033e6:	e01d      	b.n	8003424 <HAL_RCC_OscConfig+0xb0>
 80033e8:	687b      	ldr	r3, [r7, #4]
 80033ea:	685b      	ldr	r3, [r3, #4]
 80033ec:	f5b3 2fa0 	cmp.w	r3, #327680	; 0x50000
 80033f0:	d10c      	bne.n	800340c <HAL_RCC_OscConfig+0x98>
 80033f2:	4b8b      	ldr	r3, [pc, #556]	; (8003620 <HAL_RCC_OscConfig+0x2ac>)
 80033f4:	681b      	ldr	r3, [r3, #0]
 80033f6:	4a8a      	ldr	r2, [pc, #552]	; (8003620 <HAL_RCC_OscConfig+0x2ac>)
 80033f8:	f443 2380 	orr.w	r3, r3, #262144	; 0x40000
 80033fc:	6013      	str	r3, [r2, #0]
 80033fe:	4b88      	ldr	r3, [pc, #544]	; (8003620 <HAL_RCC_OscConfig+0x2ac>)
 8003400:	681b      	ldr	r3, [r3, #0]
 8003402:	4a87      	ldr	r2, [pc, #540]	; (8003620 <HAL_RCC_OscConfig+0x2ac>)
 8003404:	f443 3380 	orr.w	r3, r3, #65536	; 0x10000
 8003408:	6013      	str	r3, [r2, #0]
 800340a:	e00b      	b.n	8003424 <HAL_RCC_OscConfig+0xb0>
 800340c:	4b84      	ldr	r3, [pc, #528]	; (8003620 <HAL_RCC_OscConfig+0x2ac>)
 800340e:	681b      	ldr	r3, [r3, #0]
 8003410:	4a83      	ldr	r2, [pc, #524]	; (8003620 <HAL_RCC_OscConfig+0x2ac>)
 8003412:	f423 3380 	bic.w	r3, r3, #65536	; 0x10000
 8003416:	6013      	str	r3, [r2, #0]
 8003418:	4b81      	ldr	r3, [pc, #516]	; (8003620 <HAL_RCC_OscConfig+0x2ac>)
 800341a:	681b      	ldr	r3, [r3, #0]
 800341c:	4a80      	ldr	r2, [pc, #512]	; (8003620 <HAL_RCC_OscConfig+0x2ac>)
 800341e:	f423 2380 	bic.w	r3, r3, #262144	; 0x40000
 8003422:	6013      	str	r3, [r2, #0]
 8003424:	687b      	ldr	r3, [r7, #4]
 8003426:	685b      	ldr	r3, [r3, #4]
 8003428:	2b00      	cmp	r3, #0
 800342a:	d013      	beq.n	8003454 <HAL_RCC_OscConfig+0xe0>
 800342c:	f7ff feb0 	bl	8003190 <HAL_GetTick>
 8003430:	6138      	str	r0, [r7, #16]
 8003432:	e008      	b.n	8003446 <HAL_RCC_OscConfig+0xd2>
 8003434:	f7ff feac 	bl	8003190 <HAL_GetTick>
 8003438:	4602      	mov	r2, r0
 800343a:	693b      	ldr	r3, [r7, #16]
 800343c:	1ad3      	subs	r3, r2, r3
 800343e:	2b64      	cmp	r3, #100	; 0x64
 8003440:	d901      	bls.n	8003446 <HAL_RCC_OscConfig+0xd2>
 8003442:	2303      	movs	r3, #3
 8003444:	e1fb      	b.n	800383e <HAL_RCC_OscConfig+0x4ca>
 8003446:	4b76      	ldr	r3, [pc, #472]	; (8003620 <HAL_RCC_OscConfig+0x2ac>)
 8003448:	681b      	ldr	r3, [r3, #0]
 800344a:	f403 3300 	and.w	r3, r3, #131072	; 0x20000
 800344e:	2b00      	cmp	r3, #0
 8003450:	d0f0      	beq.n	8003434 <HAL_RCC_OscConfig+0xc0>
 8003452:	e014      	b.n	800347e <HAL_RCC_OscConfig+0x10a>
 8003454:	f7ff fe9c 	bl	8003190 <HAL_GetTick>
 8003458:	6138      	str	r0, [r7, #16]
 800345a:	e008      	b.n	800346e <HAL_RCC_OscConfig+0xfa>
 800345c:	f7ff fe98 	bl	8003190 <HAL_GetTick>
 8003460:	4602      	mov	r2, r0
 8003462:	693b      	ldr	r3, [r7, #16]
 8003464:	1ad3      	subs	r3, r2, r3
 8003466:	2b64      	cmp	r3, #100	; 0x64
 8003468:	d901      	bls.n	800346e <HAL_RCC_OscConfig+0xfa>
 800346a:	2303      	movs	r3, #3
 800346c:	e1e7      	b.n	800383e <HAL_RCC_OscConfig+0x4ca>
 800346e:	4b6c      	ldr	r3, [pc, #432]	; (8003620 <HAL_RCC_OscConfig+0x2ac>)
 8003470:	681b      	ldr	r3, [r3, #0]
 8003472:	f403 3300 	and.w	r3, r3, #131072	; 0x20000
 8003476:	2b00      	cmp	r3, #0
 8003478:	d1f0      	bne.n	800345c <HAL_RCC_OscConfig+0xe8>
 800347a:	e000      	b.n	800347e <HAL_RCC_OscConfig+0x10a>
 800347c:	bf00      	nop
 800347e:	687b      	ldr	r3, [r7, #4]
 8003480:	681b      	ldr	r3, [r3, #0]
 8003482:	f003 0302 	and.w	r3, r3, #2
 8003486:	2b00      	cmp	r3, #0
 8003488:	d063      	beq.n	8003552 <HAL_RCC_OscConfig+0x1de>
 800348a:	4b65      	ldr	r3, [pc, #404]	; (8003620 <HAL_RCC_OscConfig+0x2ac>)
 800348c:	689b      	ldr	r3, [r3, #8]
 800348e:	f003 030c 	and.w	r3, r3, #12
 8003492:	2b00      	cmp	r3, #0
 8003494:	d00b      	beq.n	80034ae <HAL_RCC_OscConfig+0x13a>
 8003496:	4b62      	ldr	r3, [pc, #392]	; (8003620 <HAL_RCC_OscConfig+0x2ac>)
 8003498:	689b      	ldr	r3, [r3, #8]
 800349a:	f003 030c 	and.w	r3, r3, #12
 800349e:	2b08      	cmp	r3, #8
 80034a0:	d11c      	bne.n	80034dc <HAL_RCC_OscConfig+0x168>
 80034a2:	4b5f      	ldr	r3, [pc, #380]	; (8003620 <HAL_RCC_OscConfig+0x2ac>)
 80034a4:	685b      	ldr	r3, [r3, #4]
 80034a6:	f403 0380 	and.w	r3, r3, #4194304	; 0x400000
 80034aa:	2b00      	cmp	r3, #0
 80034ac:	d116      	bne.n	80034dc <HAL_RCC_OscConfig+0x168>
 80034ae:	4b5c      	ldr	r3, [pc, #368]	; (8003620 <HAL_RCC_OscConfig+0x2ac>)
 80034b0:	681b      	ldr	r3, [r3, #0]
 80034b2:	f003 0302 	and.w	r3, r3, #2
 80034b6:	2b00      	cmp	r3, #0
 80034b8:	d005      	beq.n	80034c6 <HAL_RCC_OscConfig+0x152>
 80034ba:	687b      	ldr	r3, [r7, #4]
 80034bc:	68db      	ldr	r3, [r3, #12]
 80034be:	2b01      	cmp	r3, #1
 80034c0:	d001      	beq.n	80034c6 <HAL_RCC_OscConfig+0x152>
 80034c2:	2301      	movs	r3, #1
 80034c4:	e1bb      	b.n	800383e <HAL_RCC_OscConfig+0x4ca>
 80034c6:	4b56      	ldr	r3, [pc, #344]	; (8003620 <HAL_RCC_OscConfig+0x2ac>)
 80034c8:	681b      	ldr	r3, [r3, #0]
 80034ca:	f023 02f8 	bic.w	r2, r3, #248	; 0xf8
 80034ce:	687b      	ldr	r3, [r7, #4]
 80034d0:	691b      	ldr	r3, [r3, #16]
 80034d2:	00db      	lsls	r3, r3, #3
 80034d4:	4952      	ldr	r1, [pc, #328]	; (8003620 <HAL_RCC_OscConfig+0x2ac>)
 80034d6:	4313      	orrs	r3, r2
 80034d8:	600b      	str	r3, [r1, #0]
 80034da:	e03a      	b.n	8003552 <HAL_RCC_OscConfig+0x1de>
 80034dc:	687b      	ldr	r3, [r7, #4]
 80034de:	68db      	ldr	r3, [r3, #12]
 80034e0:	2b00      	cmp	r3, #0
 80034e2:	d020      	beq.n	8003526 <HAL_RCC_OscConfig+0x1b2>
 80034e4:	4b4f      	ldr	r3, [pc, #316]	; (8003624 <HAL_RCC_OscConfig+0x2b0>)
 80034e6:	2201      	movs	r2, #1
 80034e8:	601a      	str	r2, [r3, #0]
 80034ea:	f7ff fe51 	bl	8003190 <HAL_GetTick>
 80034ee:	6138      	str	r0, [r7, #16]
 80034f0:	e008      	b.n	8003504 <HAL_RCC_OscConfig+0x190>
 80034f2:	f7ff fe4d 	bl	8003190 <HAL_GetTick>
 80034f6:	4602      	mov	r2, r0
 80034f8:	693b      	ldr	r3, [r7, #16]
 80034fa:	1ad3      	subs	r3, r2, r3
 80034fc:	2b02      	cmp	r3, #2
 80034fe:	d901      	bls.n	8003504 <HAL_RCC_OscConfig+0x190>
 8003500:	2303      	movs	r3, #3
 8003502:	e19c      	b.n	800383e <HAL_RCC_OscConfig+0x4ca>
 8003504:	4b46      	ldr	r3, [pc, #280]	; (8003620 <HAL_RCC_OscConfig+0x2ac>)
 8003506:	681b      	ldr	r3, [r3, #0]
 8003508:	f003 0302 	and.w	r3, r3, #2
 800350c:	2b00      	cmp	r3, #0
 800350e:	d0f0      	beq.n	80034f2 <HAL_RCC_OscConfig+0x17e>
 8003510:	4b43      	ldr	r3, [pc, #268]	; (8003620 <HAL_RCC_OscConfig+0x2ac>)
 8003512:	681b      	ldr	r3, [r3, #0]
 8003514:	f023 02f8 	bic.w	r2, r3, #248	; 0xf8
 8003518:	687b      	ldr	r3, [r7, #4]
 800351a:	691b      	ldr	r3, [r3, #16]
 800351c:	00db      	lsls	r3, r3, #3
 800351e:	4940      	ldr	r1, [pc, #256]	; (8003620 <HAL_RCC_OscConfig+0x2ac>)
 8003520:	4313      	orrs	r3, r2
 8003522:	600b      	str	r3, [r1, #0]
 8003524:	e015      	b.n	8003552 <HAL_RCC_OscConfig+0x1de>
 8003526:	4b3f      	ldr	r3, [pc, #252]	; (8003624 <HAL_RCC_OscConfig+0x2b0>)
 8003528:	2200      	movs	r2, #0
 800352a:	601a      	str	r2, [r3, #0]
 800352c:	f7ff fe30 	bl	8003190 <HAL_GetTick>
 8003530:	6138      	str	r0, [r7, #16]
 8003532:	e008      	b.n	8003546 <HAL_RCC_OscConfig+0x1d2>
 8003534:	f7ff fe2c 	bl	8003190 <HAL_GetTick>
 8003538:	4602      	mov	r2, r0
 800353a:	693b      	ldr	r3, [r7, #16]
 800353c:	1ad3      	subs	r3, r2, r3
 800353e:	2b02      	cmp	r3, #2
 8003540:	d901      	bls.n	8003546 <HAL_RCC_OscConfig+0x1d2>
 8003542:	2303      	movs	r3, #3
 8003544:	e17b      	b.n	800383e <HAL_RCC_OscConfig+0x4ca>
 8003546:	4b36      	ldr	r3, [pc, #216]	; (8003620 <HAL_RCC_OscConfig+0x2ac>)
 8003548:	681b      	ldr	r3, [r3, #0]
 800354a:	f003 0302 	and.w	r3, r3, #2
 800354e:	2b00      	cmp	r3, #0
 8003550:	d1f0      	bne.n	8003534 <HAL_RCC_OscConfig+0x1c0>
 8003552:	687b      	ldr	r3, [r7, #4]
 8003554:	681b      	ldr	r3, [r3, #0]
 8003556:	f003 0308 	and.w	r3, r3, #8
 800355a:	2b00      	cmp	r3, #0
 800355c:	d030      	beq.n	80035c0 <HAL_RCC_OscConfig+0x24c>
 800355e:	687b      	ldr	r3, [r7, #4]
 8003560:	695b      	ldr	r3, [r3, #20]
 8003562:	2b00      	cmp	r3, #0
 8003564:	d016      	beq.n	8003594 <HAL_RCC_OscConfig+0x220>
 8003566:	4b30      	ldr	r3, [pc, #192]	; (8003628 <HAL_RCC_OscConfig+0x2b4>)
 8003568:	2201      	movs	r2, #1
 800356a:	601a      	str	r2, [r3, #0]
 800356c:	f7ff fe10 	bl	8003190 <HAL_GetTick>
 8003570:	6138      	str	r0, [r7, #16]
 8003572:	e008      	b.n	8003586 <HAL_RCC_OscConfig+0x212>
 8003574:	f7ff fe0c 	bl	8003190 <HAL_GetTick>
 8003578:	4602      	mov	r2, r0
 800357a:	693b      	ldr	r3, [r7, #16]
 800357c:	1ad3      	subs	r3, r2, r3
 800357e:	2b02      	cmp	r3, #2
 8003580:	d901      	bls.n	8003586 <HAL_RCC_OscConfig+0x212>
 8003582:	2303      	movs	r3, #3
 8003584:	e15b      	b.n	800383e <HAL_RCC_OscConfig+0x4ca>
 8003586:	4b26      	ldr	r3, [pc, #152]	; (8003620 <HAL_RCC_OscConfig+0x2ac>)
 8003588:	6f5b      	ldr	r3, [r3, #116]	; 0x74
 800358a:	f003 0302 	and.w	r3, r3, #2
 800358e:	2b00      	cmp	r3, #0
 8003590:	d0f0      	beq.n	8003574 <HAL_RCC_OscConfig+0x200>
 8003592:	e015      	b.n	80035c0 <HAL_RCC_OscConfig+0x24c>
 8003594:	4b24      	ldr	r3, [pc, #144]	; (8003628 <HAL_RCC_OscConfig+0x2b4>)
 8003596:	2200      	movs	r2, #0
 8003598:	601a      	str	r2, [r3, #0]
 800359a:	f7ff fdf9 	bl	8003190 <HAL_GetTick>
 800359e:	6138      	str	r0, [r7, #16]
 80035a0:	e008      	b.n	80035b4 <HAL_RCC_OscConfig+0x240>
 80035a2:	f7ff fdf5 	bl	8003190 <HAL_GetTick>
 80035a6:	4602      	mov	r2, r0
 80035a8:	693b      	ldr	r3, [r7, #16]
 80035aa:	1ad3      	subs	r3, r2, r3
 80035ac:	2b02      	cmp	r3, #2
 80035ae:	d901      	bls.n	80035b4 <HAL_RCC_OscConfig+0x240>
 80035b0:	2303      	movs	r3, #3
 80035b2:	e144      	b.n	800383e <HAL_RCC_OscConfig+0x4ca>
 80035b4:	4b1a      	ldr	r3, [pc, #104]	; (8003620 <HAL_RCC_OscConfig+0x2ac>)
 80035b6:	6f5b      	ldr	r3, [r3, #116]	; 0x74
 80035b8:	f003 0302 	and.w	r3, r3, #2
 80035bc:	2b00      	cmp	r3, #0
 80035be:	d1f0      	bne.n	80035a2 <HAL_RCC_OscConfig+0x22e>
 80035c0:	687b      	ldr	r3, [r7, #4]
 80035c2:	681b      	ldr	r3, [r3, #0]
 80035c4:	f003 0304 	and.w	r3, r3, #4
 80035c8:	2b00      	cmp	r3, #0
 80035ca:	f000 80a0 	beq.w	800370e <HAL_RCC_OscConfig+0x39a>
 80035ce:	2300      	movs	r3, #0
 80035d0:	75fb      	strb	r3, [r7, #23]
 80035d2:	4b13      	ldr	r3, [pc, #76]	; (8003620 <HAL_RCC_OscConfig+0x2ac>)
 80035d4:	6c1b      	ldr	r3, [r3, #64]	; 0x40
 80035d6:	f003 5380 	and.w	r3, r3, #268435456	; 0x10000000
 80035da:	2b00      	cmp	r3, #0
 80035dc:	d10f      	bne.n	80035fe <HAL_RCC_OscConfig+0x28a>
 80035de:	2300      	movs	r3, #0
 80035e0:	60bb      	str	r3, [r7, #8]
 80035e2:	4b0f      	ldr	r3, [pc, #60]	; (8003620 <HAL_RCC_OscConfig+0x2ac>)
 80035e4:	6c1b      	ldr	r3, [r3, #64]	; 0x40
 80035e6:	4a0e      	ldr	r2, [pc, #56]	; (8003620 <HAL_RCC_OscConfig+0x2ac>)
 80035e8:	f043 5380 	orr.w	r3, r3, #268435456	; 0x10000000
 80035ec:	6413      	str	r3, [r2, #64]	; 0x40
 80035ee:	4b0c      	ldr	r3, [pc, #48]	; (8003620 <HAL_RCC_OscConfig+0x2ac>)
 80035f0:	6c1b      	ldr	r3, [r3, #64]	; 0x40
 80035f2:	f003 5380 	and.w	r3, r3, #268435456	; 0x10000000
 80035f6:	60bb      	str	r3, [r7, #8]
 80035f8:	68bb      	ldr	r3, [r7, #8]
 80035fa:	2301      	movs	r3, #1
 80035fc:	75fb      	strb	r3, [r7, #23]
 80035fe:	4b0b      	ldr	r3, [pc, #44]	; (800362c <HAL_RCC_OscConfig+0x2b8>)
 8003600:	681b      	ldr	r3, [r3, #0]
 8003602:	f403 7380 	and.w	r3, r3, #256	; 0x100
 8003606:	2b00      	cmp	r3, #0
 8003608:	d121      	bne.n	800364e <HAL_RCC_OscConfig+0x2da>
 800360a:	4b08      	ldr	r3, [pc, #32]	; (800362c <HAL_RCC_OscConfig+0x2b8>)
 800360c:	681b      	ldr	r3, [r3, #0]
 800360e:	4a07      	ldr	r2, [pc, #28]	; (800362c <HAL_RCC_OscConfig+0x2b8>)
 8003610:	f443 7380 	orr.w	r3, r3, #256	; 0x100
 8003614:	6013      	str	r3, [r2, #0]
 8003616:	f7ff fdbb 	bl	8003190 <HAL_GetTick>
 800361a:	6138      	str	r0, [r7, #16]
 800361c:	e011      	b.n	8003642 <HAL_RCC_OscConfig+0x2ce>
 800361e:	bf00      	nop
 8003620:	40023800 	.word	0x40023800
 8003624:	42470000 	.word	0x42470000
 8003628:	42470e80 	.word	0x42470e80
 800362c:	40007000 	.word	0x40007000
 8003630:	f7ff fdae 	bl	8003190 <HAL_GetTick>
 8003634:	4602      	mov	r2, r0
 8003636:	693b      	ldr	r3, [r7, #16]
 8003638:	1ad3      	subs	r3, r2, r3
 800363a:	2b02      	cmp	r3, #2
 800363c:	d901      	bls.n	8003642 <HAL_RCC_OscConfig+0x2ce>
 800363e:	2303      	movs	r3, #3
 8003640:	e0fd      	b.n	800383e <HAL_RCC_OscConfig+0x4ca>
 8003642:	4b81      	ldr	r3, [pc, #516]	; (8003848 <HAL_RCC_OscConfig+0x4d4>)
 8003644:	681b      	ldr	r3, [r3, #0]
 8003646:	f403 7380 	and.w	r3, r3, #256	; 0x100
 800364a:	2b00      	cmp	r3, #0
 800364c:	d0f0      	beq.n	8003630 <HAL_RCC_OscConfig+0x2bc>
 800364e:	687b      	ldr	r3, [r7, #4]
 8003650:	689b      	ldr	r3, [r3, #8]
 8003652:	2b01      	cmp	r3, #1
 8003654:	d106      	bne.n	8003664 <HAL_RCC_OscConfig+0x2f0>
 8003656:	4b7d      	ldr	r3, [pc, #500]	; (800384c <HAL_RCC_OscConfig+0x4d8>)
 8003658:	6f1b      	ldr	r3, [r3, #112]	; 0x70
 800365a:	4a7c      	ldr	r2, [pc, #496]	; (800384c <HAL_RCC_OscConfig+0x4d8>)
 800365c:	f043 0301 	orr.w	r3, r3, #1
 8003660:	6713      	str	r3, [r2, #112]	; 0x70
 8003662:	e01c      	b.n	800369e <HAL_RCC_OscConfig+0x32a>
 8003664:	687b      	ldr	r3, [r7, #4]
 8003666:	689b      	ldr	r3, [r3, #8]
 8003668:	2b05      	cmp	r3, #5
 800366a:	d10c      	bne.n	8003686 <HAL_RCC_OscConfig+0x312>
 800366c:	4b77      	ldr	r3, [pc, #476]	; (800384c <HAL_RCC_OscConfig+0x4d8>)
 800366e:	6f1b      	ldr	r3, [r3, #112]	; 0x70
 8003670:	4a76      	ldr	r2, [pc, #472]	; (800384c <HAL_RCC_OscConfig+0x4d8>)
 8003672:	f043 0304 	orr.w	r3, r3, #4
 8003676:	6713      	str	r3, [r2, #112]	; 0x70
 8003678:	4b74      	ldr	r3, [pc, #464]	; (800384c <HAL_RCC_OscConfig+0x4d8>)
 800367a:	6f1b      	ldr	r3, [r3, #112]	; 0x70
 800367c:	4a73      	ldr	r2, [pc, #460]	; (800384c <HAL_RCC_OscConfig+0x4d8>)
 800367e:	f043 0301 	orr.w	r3, r3, #1
 8003682:	6713      	str	r3, [r2, #112]	; 0x70
 8003684:	e00b      	b.n	800369e <HAL_RCC_OscConfig+0x32a>
 8003686:	4b71      	ldr	r3, [pc, #452]	; (800384c <HAL_RCC_OscConfig+0x4d8>)
 8003688:	6f1b      	ldr	r3, [r3, #112]	; 0x70
 800368a:	4a70      	ldr	r2, [pc, #448]	; (800384c <HAL_RCC_OscConfig+0x4d8>)
 800368c:	f023 0301 	bic.w	r3, r3, #1
 8003690:	6713      	str	r3, [r2, #112]	; 0x70
 8003692:	4b6e      	ldr	r3, [pc, #440]	; (800384c <HAL_RCC_OscConfig+0x4d8>)
 8003694:	6f1b      	ldr	r3, [r3, #112]	; 0x70
 8003696:	4a6d      	ldr	r2, [pc, #436]	; (800384c <HAL_RCC_OscConfig+0x4d8>)
 8003698:	f023 0304 	bic.w	r3, r3, #4
 800369c:	6713      	str	r3, [r2, #112]	; 0x70
 800369e:	687b      	ldr	r3, [r7, #4]
 80036a0:	689b      	ldr	r3, [r3, #8]
 80036a2:	2b00      	cmp	r3, #0
 80036a4:	d015      	beq.n	80036d2 <HAL_RCC_OscConfig+0x35e>
 80036a6:	f7ff fd73 	bl	8003190 <HAL_GetTick>
 80036aa:	6138      	str	r0, [r7, #16]
 80036ac:	e00a      	b.n	80036c4 <HAL_RCC_OscConfig+0x350>
 80036ae:	f7ff fd6f 	bl	8003190 <HAL_GetTick>
 80036b2:	4602      	mov	r2, r0
 80036b4:	693b      	ldr	r3, [r7, #16]
 80036b6:	1ad3      	subs	r3, r2, r3
 80036b8:	f241 3288 	movw	r2, #5000	; 0x1388
 80036bc:	4293      	cmp	r3, r2
 80036be:	d901      	bls.n	80036c4 <HAL_RCC_OscConfig+0x350>
 80036c0:	2303      	movs	r3, #3
 80036c2:	e0bc      	b.n	800383e <HAL_RCC_OscConfig+0x4ca>
 80036c4:	4b61      	ldr	r3, [pc, #388]	; (800384c <HAL_RCC_OscConfig+0x4d8>)
 80036c6:	6f1b      	ldr	r3, [r3, #112]	; 0x70
 80036c8:	f003 0302 	and.w	r3, r3, #2
 80036cc:	2b00      	cmp	r3, #0
 80036ce:	d0ee      	beq.n	80036ae <HAL_RCC_OscConfig+0x33a>
 80036d0:	e014      	b.n	80036fc <HAL_RCC_OscConfig+0x388>
 80036d2:	f7ff fd5d 	bl	8003190 <HAL_GetTick>
 80036d6:	6138      	str	r0, [r7, #16]
 80036d8:	e00a      	b.n	80036f0 <HAL_RCC_OscConfig+0x37c>
 80036da:	f7ff fd59 	bl	8003190 <HAL_GetTick>
 80036de:	4602      	mov	r2, r0
 80036e0:	693b      	ldr	r3, [r7, #16]
 80036e2:	1ad3      	subs	r3, r2, r3
 80036e4:	f241 3288 	movw	r2, #5000	; 0x1388
 80036e8:	4293      	cmp	r3, r2
 80036ea:	d901      	bls.n	80036f0 <HAL_RCC_OscConfig+0x37c>
 80036ec:	2303      	movs	r3, #3
 80036ee:	e0a6      	b.n	800383e <HAL_RCC_OscConfig+0x4ca>
 80036f0:	4b56      	ldr	r3, [pc, #344]	; (800384c <HAL_RCC_OscConfig+0x4d8>)
 80036f2:	6f1b      	ldr	r3, [r3, #112]	; 0x70
 80036f4:	f003 0302 	and.w	r3, r3, #2
 80036f8:	2b00      	cmp	r3, #0
 80036fa:	d1ee      	bne.n	80036da <HAL_RCC_OscConfig+0x366>
 80036fc:	7dfb      	ldrb	r3, [r7, #23]
 80036fe:	2b01      	cmp	r3, #1
 8003700:	d105      	bne.n	800370e <HAL_RCC_OscConfig+0x39a>
 8003702:	4b52      	ldr	r3, [pc, #328]	; (800384c <HAL_RCC_OscConfig+0x4d8>)
 8003704:	6c1b      	ldr	r3, [r3, #64]	; 0x40
 8003706:	4a51      	ldr	r2, [pc, #324]	; (800384c <HAL_RCC_OscConfig+0x4d8>)
 8003708:	f023 5380 	bic.w	r3, r3, #268435456	; 0x10000000
 800370c:	6413      	str	r3, [r2, #64]	; 0x40
 800370e:	687b      	ldr	r3, [r7, #4]
 8003710:	699b      	ldr	r3, [r3, #24]
 8003712:	2b00      	cmp	r3, #0
 8003714:	f000 8092 	beq.w	800383c <HAL_RCC_OscConfig+0x4c8>
 8003718:	4b4c      	ldr	r3, [pc, #304]	; (800384c <HAL_RCC_OscConfig+0x4d8>)
 800371a:	689b      	ldr	r3, [r3, #8]
 800371c:	f003 030c 	and.w	r3, r3, #12
 8003720:	2b08      	cmp	r3, #8
 8003722:	d05c      	beq.n	80037de <HAL_RCC_OscConfig+0x46a>
 8003724:	687b      	ldr	r3, [r7, #4]
 8003726:	699b      	ldr	r3, [r3, #24]
 8003728:	2b02      	cmp	r3, #2
 800372a:	d141      	bne.n	80037b0 <HAL_RCC_OscConfig+0x43c>
 800372c:	4b48      	ldr	r3, [pc, #288]	; (8003850 <HAL_RCC_OscConfig+0x4dc>)
 800372e:	2200      	movs	r2, #0
 8003730:	601a      	str	r2, [r3, #0]
 8003732:	f7ff fd2d 	bl	8003190 <HAL_GetTick>
 8003736:	6138      	str	r0, [r7, #16]
 8003738:	e008      	b.n	800374c <HAL_RCC_OscConfig+0x3d8>
 800373a:	f7ff fd29 	bl	8003190 <HAL_GetTick>
 800373e:	4602      	mov	r2, r0
 8003740:	693b      	ldr	r3, [r7, #16]
 8003742:	1ad3      	subs	r3, r2, r3
 8003744:	2b02      	cmp	r3, #2
 8003746:	d901      	bls.n	800374c <HAL_RCC_OscConfig+0x3d8>
 8003748:	2303      	movs	r3, #3
 800374a:	e078      	b.n	800383e <HAL_RCC_OscConfig+0x4ca>
 800374c:	4b3f      	ldr	r3, [pc, #252]	; (800384c <HAL_RCC_OscConfig+0x4d8>)
 800374e:	681b      	ldr	r3, [r3, #0]
 8003750:	f003 7300 	and.w	r3, r3, #33554432	; 0x2000000
 8003754:	2b00      	cmp	r3, #0
 8003756:	d1f0      	bne.n	800373a <HAL_RCC_OscConfig+0x3c6>
 8003758:	687b      	ldr	r3, [r7, #4]
 800375a:	69da      	ldr	r2, [r3, #28]
 800375c:	687b      	ldr	r3, [r7, #4]
 800375e:	6a1b      	ldr	r3, [r3, #32]
 8003760:	431a      	orrs	r2, r3
 8003762:	687b      	ldr	r3, [r7, #4]
 8003764:	6a5b      	ldr	r3, [r3, #36]	; 0x24
 8003766:	019b      	lsls	r3, r3, #6
 8003768:	431a      	orrs	r2, r3
 800376a:	687b      	ldr	r3, [r7, #4]
 800376c:	6a9b      	ldr	r3, [r3, #40]	; 0x28
 800376e:	085b      	lsrs	r3, r3, #1
 8003770:	3b01      	subs	r3, #1
 8003772:	041b      	lsls	r3, r3, #16
 8003774:	431a      	orrs	r2, r3
 8003776:	687b      	ldr	r3, [r7, #4]
 8003778:	6adb      	ldr	r3, [r3, #44]	; 0x2c
 800377a:	061b      	lsls	r3, r3, #24
 800377c:	4933      	ldr	r1, [pc, #204]	; (800384c <HAL_RCC_OscConfig+0x4d8>)
 800377e:	4313      	orrs	r3, r2
 8003780:	604b      	str	r3, [r1, #4]
 8003782:	4b33      	ldr	r3, [pc, #204]	; (8003850 <HAL_RCC_OscConfig+0x4dc>)
 8003784:	2201      	movs	r2, #1
 8003786:	601a      	str	r2, [r3, #0]
 8003788:	f7ff fd02 	bl	8003190 <HAL_GetTick>
 800378c:	6138      	str	r0, [r7, #16]
 800378e:	e008      	b.n	80037a2 <HAL_RCC_OscConfig+0x42e>
 8003790:	f7ff fcfe 	bl	8003190 <HAL_GetTick>
 8003794:	4602      	mov	r2, r0
 8003796:	693b      	ldr	r3, [r7, #16]
 8003798:	1ad3      	subs	r3, r2, r3
 800379a:	2b02      	cmp	r3, #2
 800379c:	d901      	bls.n	80037a2 <HAL_RCC_OscConfig+0x42e>
 800379e:	2303      	movs	r3, #3
 80037a0:	e04d      	b.n	800383e <HAL_RCC_OscConfig+0x4ca>
 80037a2:	4b2a      	ldr	r3, [pc, #168]	; (800384c <HAL_RCC_OscConfig+0x4d8>)
 80037a4:	681b      	ldr	r3, [r3, #0]
 80037a6:	f003 7300 	and.w	r3, r3, #33554432	; 0x2000000
 80037aa:	2b00      	cmp	r3, #0
 80037ac:	d0f0      	beq.n	8003790 <HAL_RCC_OscConfig+0x41c>
 80037ae:	e045      	b.n	800383c <HAL_RCC_OscConfig+0x4c8>
 80037b0:	4b27      	ldr	r3, [pc, #156]	; (8003850 <HAL_RCC_OscConfig+0x4dc>)
 80037b2:	2200      	movs	r2, #0
 80037b4:	601a      	str	r2, [r3, #0]
 80037b6:	f7ff fceb 	bl	8003190 <HAL_GetTick>
 80037ba:	6138      	str	r0, [r7, #16]
 80037bc:	e008      	b.n	80037d0 <HAL_RCC_OscConfig+0x45c>
 80037be:	f7ff fce7 	bl	8003190 <HAL_GetTick>
 80037c2:	4602      	mov	r2, r0
 80037c4:	693b      	ldr	r3, [r7, #16]
 80037c6:	1ad3      	subs	r3, r2, r3
 80037c8:	2b02      	cmp	r3, #2
 80037ca:	d901      	bls.n	80037d0 <HAL_RCC_OscConfig+0x45c>
 80037cc:	2303      	movs	r3, #3
 80037ce:	e036      	b.n	800383e <HAL_RCC_OscConfig+0x4ca>
 80037d0:	4b1e      	ldr	r3, [pc, #120]	; (800384c <HAL_RCC_OscConfig+0x4d8>)
 80037d2:	681b      	ldr	r3, [r3, #0]
 80037d4:	f003 7300 	and.w	r3, r3, #33554432	; 0x2000000
 80037d8:	2b00      	cmp	r3, #0
 80037da:	d1f0      	bne.n	80037be <HAL_RCC_OscConfig+0x44a>
 80037dc:	e02e      	b.n	800383c <HAL_RCC_OscConfig+0x4c8>
 80037de:	687b      	ldr	r3, [r7, #4]
 80037e0:	699b      	ldr	r3, [r3, #24]
 80037e2:	2b01      	cmp	r3, #1
 80037e4:	d101      	bne.n	80037ea <HAL_RCC_OscConfig+0x476>
 80037e6:	2301      	movs	r3, #1
 80037e8:	e029      	b.n	800383e <HAL_RCC_OscConfig+0x4ca>
 80037ea:	4b18      	ldr	r3, [pc, #96]	; (800384c <HAL_RCC_OscConfig+0x4d8>)
 80037ec:	689b      	ldr	r3, [r3, #8]
 80037ee:	60fb      	str	r3, [r7, #12]
 80037f0:	68fb      	ldr	r3, [r7, #12]
 80037f2:	f403 0280 	and.w	r2, r3, #4194304	; 0x400000
 80037f6:	687b      	ldr	r3, [r7, #4]
 80037f8:	69db      	ldr	r3, [r3, #28]
 80037fa:	429a      	cmp	r2, r3
 80037fc:	d11c      	bne.n	8003838 <HAL_RCC_OscConfig+0x4c4>
 80037fe:	68fb      	ldr	r3, [r7, #12]
 8003800:	f003 023f 	and.w	r2, r3, #63	; 0x3f
 8003804:	687b      	ldr	r3, [r7, #4]
 8003806:	6a1b      	ldr	r3, [r3, #32]
 8003808:	429a      	cmp	r2, r3
 800380a:	d115      	bne.n	8003838 <HAL_RCC_OscConfig+0x4c4>
 800380c:	68fa      	ldr	r2, [r7, #12]
 800380e:	f647 73c0 	movw	r3, #32704	; 0x7fc0
 8003812:	4013      	ands	r3, r2
 8003814:	687a      	ldr	r2, [r7, #4]
 8003816:	6a52      	ldr	r2, [r2, #36]	; 0x24
 8003818:	4293      	cmp	r3, r2
 800381a:	d10d      	bne.n	8003838 <HAL_RCC_OscConfig+0x4c4>
 800381c:	68fb      	ldr	r3, [r7, #12]
 800381e:	f403 3240 	and.w	r2, r3, #196608	; 0x30000
 8003822:	687b      	ldr	r3, [r7, #4]
 8003824:	6a9b      	ldr	r3, [r3, #40]	; 0x28
 8003826:	429a      	cmp	r2, r3
 8003828:	d106      	bne.n	8003838 <HAL_RCC_OscConfig+0x4c4>
 800382a:	68fb      	ldr	r3, [r7, #12]
 800382c:	f003 6270 	and.w	r2, r3, #251658240	; 0xf000000
 8003830:	687b      	ldr	r3, [r7, #4]
 8003832:	6adb      	ldr	r3, [r3, #44]	; 0x2c
 8003834:	429a      	cmp	r2, r3
 8003836:	d001      	beq.n	800383c <HAL_RCC_OscConfig+0x4c8>
 8003838:	2301      	movs	r3, #1
 800383a:	e000      	b.n	800383e <HAL_RCC_OscConfig+0x4ca>
 800383c:	2300      	movs	r3, #0
 800383e:	4618      	mov	r0, r3
 8003840:	3718      	adds	r7, #24
 8003842:	46bd      	mov	sp, r7
 8003844:	bd80      	pop	{r7, pc}
 8003846:	bf00      	nop
 8003848:	40007000 	.word	0x40007000
 800384c:	40023800 	.word	0x40023800
 8003850:	42470060 	.word	0x42470060

08003854 <HAL_RCC_ClockConfig>:
 8003854:	b580      	push	{r7, lr}
 8003856:	b084      	sub	sp, #16
 8003858:	af00      	add	r7, sp, #0
 800385a:	6078      	str	r0, [r7, #4]
 800385c:	6039      	str	r1, [r7, #0]
 800385e:	687b      	ldr	r3, [r7, #4]
 8003860:	2b00      	cmp	r3, #0
 8003862:	d101      	bne.n	8003868 <HAL_RCC_ClockConfig+0x14>
 8003864:	2301      	movs	r3, #1
 8003866:	e0cc      	b.n	8003a02 <HAL_RCC_ClockConfig+0x1ae>
 8003868:	4b68      	ldr	r3, [pc, #416]	; (8003a0c <HAL_RCC_ClockConfig+0x1b8>)
 800386a:	681b      	ldr	r3, [r3, #0]
 800386c:	f003 030f 	and.w	r3, r3, #15
 8003870:	683a      	ldr	r2, [r7, #0]
 8003872:	429a      	cmp	r2, r3
 8003874:	d90c      	bls.n	8003890 <HAL_RCC_ClockConfig+0x3c>
 8003876:	4b65      	ldr	r3, [pc, #404]	; (8003a0c <HAL_RCC_ClockConfig+0x1b8>)
 8003878:	683a      	ldr	r2, [r7, #0]
 800387a:	b2d2      	uxtb	r2, r2
 800387c:	701a      	strb	r2, [r3, #0]
 800387e:	4b63      	ldr	r3, [pc, #396]	; (8003a0c <HAL_RCC_ClockConfig+0x1b8>)
 8003880:	681b      	ldr	r3, [r3, #0]
 8003882:	f003 030f 	and.w	r3, r3, #15
 8003886:	683a      	ldr	r2, [r7, #0]
 8003888:	429a      	cmp	r2, r3
 800388a:	d001      	beq.n	8003890 <HAL_RCC_ClockConfig+0x3c>
 800388c:	2301      	movs	r3, #1
 800388e:	e0b8      	b.n	8003a02 <HAL_RCC_ClockConfig+0x1ae>
 8003890:	687b      	ldr	r3, [r7, #4]
 8003892:	681b      	ldr	r3, [r3, #0]
 8003894:	f003 0302 	and.w	r3, r3, #2
 8003898:	2b00      	cmp	r3, #0
 800389a:	d020      	beq.n	80038de <HAL_RCC_ClockConfig+0x8a>
 800389c:	687b      	ldr	r3, [r7, #4]
 800389e:	681b      	ldr	r3, [r3, #0]
 80038a0:	f003 0304 	and.w	r3, r3, #4
 80038a4:	2b00      	cmp	r3, #0
 80038a6:	d005      	beq.n	80038b4 <HAL_RCC_ClockConfig+0x60>
 80038a8:	4b59      	ldr	r3, [pc, #356]	; (8003a10 <HAL_RCC_ClockConfig+0x1bc>)
 80038aa:	689b      	ldr	r3, [r3, #8]
 80038ac:	4a58      	ldr	r2, [pc, #352]	; (8003a10 <HAL_RCC_ClockConfig+0x1bc>)
 80038ae:	f443 53e0 	orr.w	r3, r3, #7168	; 0x1c00
 80038b2:	6093      	str	r3, [r2, #8]
 80038b4:	687b      	ldr	r3, [r7, #4]
 80038b6:	681b      	ldr	r3, [r3, #0]
 80038b8:	f003 0308 	and.w	r3, r3, #8
 80038bc:	2b00      	cmp	r3, #0
 80038be:	d005      	beq.n	80038cc <HAL_RCC_ClockConfig+0x78>
 80038c0:	4b53      	ldr	r3, [pc, #332]	; (8003a10 <HAL_RCC_ClockConfig+0x1bc>)
 80038c2:	689b      	ldr	r3, [r3, #8]
 80038c4:	4a52      	ldr	r2, [pc, #328]	; (8003a10 <HAL_RCC_ClockConfig+0x1bc>)
 80038c6:	f443 4360 	orr.w	r3, r3, #57344	; 0xe000
 80038ca:	6093      	str	r3, [r2, #8]
 80038cc:	4b50      	ldr	r3, [pc, #320]	; (8003a10 <HAL_RCC_ClockConfig+0x1bc>)
 80038ce:	689b      	ldr	r3, [r3, #8]
 80038d0:	f023 02f0 	bic.w	r2, r3, #240	; 0xf0
 80038d4:	687b      	ldr	r3, [r7, #4]
 80038d6:	689b      	ldr	r3, [r3, #8]
 80038d8:	494d      	ldr	r1, [pc, #308]	; (8003a10 <HAL_RCC_ClockConfig+0x1bc>)
 80038da:	4313      	orrs	r3, r2
 80038dc:	608b      	str	r3, [r1, #8]
 80038de:	687b      	ldr	r3, [r7, #4]
 80038e0:	681b      	ldr	r3, [r3, #0]
 80038e2:	f003 0301 	and.w	r3, r3, #1
 80038e6:	2b00      	cmp	r3, #0
 80038e8:	d044      	beq.n	8003974 <HAL_RCC_ClockConfig+0x120>
 80038ea:	687b      	ldr	r3, [r7, #4]
 80038ec:	685b      	ldr	r3, [r3, #4]
 80038ee:	2b01      	cmp	r3, #1
 80038f0:	d107      	bne.n	8003902 <HAL_RCC_ClockConfig+0xae>
 80038f2:	4b47      	ldr	r3, [pc, #284]	; (8003a10 <HAL_RCC_ClockConfig+0x1bc>)
 80038f4:	681b      	ldr	r3, [r3, #0]
 80038f6:	f403 3300 	and.w	r3, r3, #131072	; 0x20000
 80038fa:	2b00      	cmp	r3, #0
 80038fc:	d119      	bne.n	8003932 <HAL_RCC_ClockConfig+0xde>
 80038fe:	2301      	movs	r3, #1
 8003900:	e07f      	b.n	8003a02 <HAL_RCC_ClockConfig+0x1ae>
 8003902:	687b      	ldr	r3, [r7, #4]
 8003904:	685b      	ldr	r3, [r3, #4]
 8003906:	2b02      	cmp	r3, #2
 8003908:	d003      	beq.n	8003912 <HAL_RCC_ClockConfig+0xbe>
 800390a:	687b      	ldr	r3, [r7, #4]
 800390c:	685b      	ldr	r3, [r3, #4]
 800390e:	2b03      	cmp	r3, #3
 8003910:	d107      	bne.n	8003922 <HAL_RCC_ClockConfig+0xce>
 8003912:	4b3f      	ldr	r3, [pc, #252]	; (8003a10 <HAL_RCC_ClockConfig+0x1bc>)
 8003914:	681b      	ldr	r3, [r3, #0]
 8003916:	f003 7300 	and.w	r3, r3, #33554432	; 0x2000000
 800391a:	2b00      	cmp	r3, #0
 800391c:	d109      	bne.n	8003932 <HAL_RCC_ClockConfig+0xde>
 800391e:	2301      	movs	r3, #1
 8003920:	e06f      	b.n	8003a02 <HAL_RCC_ClockConfig+0x1ae>
 8003922:	4b3b      	ldr	r3, [pc, #236]	; (8003a10 <HAL_RCC_ClockConfig+0x1bc>)
 8003924:	681b      	ldr	r3, [r3, #0]
 8003926:	f003 0302 	and.w	r3, r3, #2
 800392a:	2b00      	cmp	r3, #0
 800392c:	d101      	bne.n	8003932 <HAL_RCC_ClockConfig+0xde>
 800392e:	2301      	movs	r3, #1
 8003930:	e067      	b.n	8003a02 <HAL_RCC_ClockConfig+0x1ae>
 8003932:	4b37      	ldr	r3, [pc, #220]	; (8003a10 <HAL_RCC_ClockConfig+0x1bc>)
 8003934:	689b      	ldr	r3, [r3, #8]
 8003936:	f023 0203 	bic.w	r2, r3, #3
 800393a:	687b      	ldr	r3, [r7, #4]
 800393c:	685b      	ldr	r3, [r3, #4]
 800393e:	4934      	ldr	r1, [pc, #208]	; (8003a10 <HAL_RCC_ClockConfig+0x1bc>)
 8003940:	4313      	orrs	r3, r2
 8003942:	608b      	str	r3, [r1, #8]
 8003944:	f7ff fc24 	bl	8003190 <HAL_GetTick>
 8003948:	60f8      	str	r0, [r7, #12]
 800394a:	e00a      	b.n	8003962 <HAL_RCC_ClockConfig+0x10e>
 800394c:	f7ff fc20 	bl	8003190 <HAL_GetTick>
 8003950:	4602      	mov	r2, r0
 8003952:	68fb      	ldr	r3, [r7, #12]
 8003954:	1ad3      	subs	r3, r2, r3
 8003956:	f241 3288 	movw	r2, #5000	; 0x1388
 800395a:	4293      	cmp	r3, r2
 800395c:	d901      	bls.n	8003962 <HAL_RCC_ClockConfig+0x10e>
 800395e:	2303      	movs	r3, #3
 8003960:	e04f      	b.n	8003a02 <HAL_RCC_ClockConfig+0x1ae>
 8003962:	4b2b      	ldr	r3, [pc, #172]	; (8003a10 <HAL_RCC_ClockConfig+0x1bc>)
 8003964:	689b      	ldr	r3, [r3, #8]
 8003966:	f003 020c 	and.w	r2, r3, #12
 800396a:	687b      	ldr	r3, [r7, #4]
 800396c:	685b      	ldr	r3, [r3, #4]
 800396e:	009b      	lsls	r3, r3, #2
 8003970:	429a      	cmp	r2, r3
 8003972:	d1eb      	bne.n	800394c <HAL_RCC_ClockConfig+0xf8>
 8003974:	4b25      	ldr	r3, [pc, #148]	; (8003a0c <HAL_RCC_ClockConfig+0x1b8>)
 8003976:	681b      	ldr	r3, [r3, #0]
 8003978:	f003 030f 	and.w	r3, r3, #15
 800397c:	683a      	ldr	r2, [r7, #0]
 800397e:	429a      	cmp	r2, r3
 8003980:	d20c      	bcs.n	800399c <HAL_RCC_ClockConfig+0x148>
 8003982:	4b22      	ldr	r3, [pc, #136]	; (8003a0c <HAL_RCC_ClockConfig+0x1b8>)
 8003984:	683a      	ldr	r2, [r7, #0]
 8003986:	b2d2      	uxtb	r2, r2
 8003988:	701a      	strb	r2, [r3, #0]
 800398a:	4b20      	ldr	r3, [pc, #128]	; (8003a0c <HAL_RCC_ClockConfig+0x1b8>)
 800398c:	681b      	ldr	r3, [r3, #0]
 800398e:	f003 030f 	and.w	r3, r3, #15
 8003992:	683a      	ldr	r2, [r7, #0]
 8003994:	429a      	cmp	r2, r3
 8003996:	d001      	beq.n	800399c <HAL_RCC_ClockConfig+0x148>
 8003998:	2301      	movs	r3, #1
 800399a:	e032      	b.n	8003a02 <HAL_RCC_ClockConfig+0x1ae>
 800399c:	687b      	ldr	r3, [r7, #4]
 800399e:	681b      	ldr	r3, [r3, #0]
 80039a0:	f003 0304 	and.w	r3, r3, #4
 80039a4:	2b00      	cmp	r3, #0
 80039a6:	d008      	beq.n	80039ba <HAL_RCC_ClockConfig+0x166>
 80039a8:	4b19      	ldr	r3, [pc, #100]	; (8003a10 <HAL_RCC_ClockConfig+0x1bc>)
 80039aa:	689b      	ldr	r3, [r3, #8]
 80039ac:	f423 52e0 	bic.w	r2, r3, #7168	; 0x1c00
 80039b0:	687b      	ldr	r3, [r7, #4]
 80039b2:	68db      	ldr	r3, [r3, #12]
 80039b4:	4916      	ldr	r1, [pc, #88]	; (8003a10 <HAL_RCC_ClockConfig+0x1bc>)
 80039b6:	4313      	orrs	r3, r2
 80039b8:	608b      	str	r3, [r1, #8]
 80039ba:	687b      	ldr	r3, [r7, #4]
 80039bc:	681b      	ldr	r3, [r3, #0]
 80039be:	f003 0308 	and.w	r3, r3, #8
 80039c2:	2b00      	cmp	r3, #0
 80039c4:	d009      	beq.n	80039da <HAL_RCC_ClockConfig+0x186>
 80039c6:	4b12      	ldr	r3, [pc, #72]	; (8003a10 <HAL_RCC_ClockConfig+0x1bc>)
 80039c8:	689b      	ldr	r3, [r3, #8]
 80039ca:	f423 4260 	bic.w	r2, r3, #57344	; 0xe000
 80039ce:	687b      	ldr	r3, [r7, #4]
 80039d0:	691b      	ldr	r3, [r3, #16]
 80039d2:	00db      	lsls	r3, r3, #3
 80039d4:	490e      	ldr	r1, [pc, #56]	; (8003a10 <HAL_RCC_ClockConfig+0x1bc>)
 80039d6:	4313      	orrs	r3, r2
 80039d8:	608b      	str	r3, [r1, #8]
 80039da:	f000 f821 	bl	8003a20 <HAL_RCC_GetSysClockFreq>
 80039de:	4601      	mov	r1, r0
 80039e0:	4b0b      	ldr	r3, [pc, #44]	; (8003a10 <HAL_RCC_ClockConfig+0x1bc>)
 80039e2:	689b      	ldr	r3, [r3, #8]
 80039e4:	091b      	lsrs	r3, r3, #4
 80039e6:	f003 030f 	and.w	r3, r3, #15
 80039ea:	4a0a      	ldr	r2, [pc, #40]	; (8003a14 <HAL_RCC_ClockConfig+0x1c0>)
 80039ec:	5cd3      	ldrb	r3, [r2, r3]
 80039ee:	fa21 f303 	lsr.w	r3, r1, r3
 80039f2:	4a09      	ldr	r2, [pc, #36]	; (8003a18 <HAL_RCC_ClockConfig+0x1c4>)
 80039f4:	6013      	str	r3, [r2, #0]
 80039f6:	4b09      	ldr	r3, [pc, #36]	; (8003a1c <HAL_RCC_ClockConfig+0x1c8>)
 80039f8:	681b      	ldr	r3, [r3, #0]
 80039fa:	4618      	mov	r0, r3
 80039fc:	f7ff fb84 	bl	8003108 <HAL_InitTick>
 8003a00:	2300      	movs	r3, #0
 8003a02:	4618      	mov	r0, r3
 8003a04:	3710      	adds	r7, #16
 8003a06:	46bd      	mov	sp, r7
 8003a08:	bd80      	pop	{r7, pc}
 8003a0a:	bf00      	nop
 8003a0c:	40023c00 	.word	0x40023c00
 8003a10:	40023800 	.word	0x40023800
 8003a14:	08006200 	.word	0x08006200
 8003a18:	2000000c 	.word	0x2000000c
 8003a1c:	20000010 	.word	0x20000010

08003a20 <HAL_RCC_GetSysClockFreq>:
 8003a20:	b5f0      	push	{r4, r5, r6, r7, lr}
 8003a22:	b085      	sub	sp, #20
 8003a24:	af00      	add	r7, sp, #0
 8003a26:	2300      	movs	r3, #0
 8003a28:	607b      	str	r3, [r7, #4]
 8003a2a:	2300      	movs	r3, #0
 8003a2c:	60fb      	str	r3, [r7, #12]
 8003a2e:	2300      	movs	r3, #0
 8003a30:	603b      	str	r3, [r7, #0]
 8003a32:	2300      	movs	r3, #0
 8003a34:	60bb      	str	r3, [r7, #8]
 8003a36:	4b50      	ldr	r3, [pc, #320]	; (8003b78 <HAL_RCC_GetSysClockFreq+0x158>)
 8003a38:	689b      	ldr	r3, [r3, #8]
 8003a3a:	f003 030c 	and.w	r3, r3, #12
 8003a3e:	2b04      	cmp	r3, #4
 8003a40:	d007      	beq.n	8003a52 <HAL_RCC_GetSysClockFreq+0x32>
 8003a42:	2b08      	cmp	r3, #8
 8003a44:	d008      	beq.n	8003a58 <HAL_RCC_GetSysClockFreq+0x38>
 8003a46:	2b00      	cmp	r3, #0
 8003a48:	f040 808d 	bne.w	8003b66 <HAL_RCC_GetSysClockFreq+0x146>
 8003a4c:	4b4b      	ldr	r3, [pc, #300]	; (8003b7c <HAL_RCC_GetSysClockFreq+0x15c>)
 8003a4e:	60bb      	str	r3, [r7, #8]
 8003a50:	e08c      	b.n	8003b6c <HAL_RCC_GetSysClockFreq+0x14c>
 8003a52:	4b4b      	ldr	r3, [pc, #300]	; (8003b80 <HAL_RCC_GetSysClockFreq+0x160>)
 8003a54:	60bb      	str	r3, [r7, #8]
 8003a56:	e089      	b.n	8003b6c <HAL_RCC_GetSysClockFreq+0x14c>
 8003a58:	4b47      	ldr	r3, [pc, #284]	; (8003b78 <HAL_RCC_GetSysClockFreq+0x158>)
 8003a5a:	685b      	ldr	r3, [r3, #4]
 8003a5c:	f003 033f 	and.w	r3, r3, #63	; 0x3f
 8003a60:	607b      	str	r3, [r7, #4]
 8003a62:	4b45      	ldr	r3, [pc, #276]	; (8003b78 <HAL_RCC_GetSysClockFreq+0x158>)
 8003a64:	685b      	ldr	r3, [r3, #4]
 8003a66:	f403 0380 	and.w	r3, r3, #4194304	; 0x400000
 8003a6a:	2b00      	cmp	r3, #0
 8003a6c:	d023      	beq.n	8003ab6 <HAL_RCC_GetSysClockFreq+0x96>
 8003a6e:	4b42      	ldr	r3, [pc, #264]	; (8003b78 <HAL_RCC_GetSysClockFreq+0x158>)
 8003a70:	685b      	ldr	r3, [r3, #4]
 8003a72:	099b      	lsrs	r3, r3, #6
 8003a74:	f04f 0400 	mov.w	r4, #0
 8003a78:	f240 11ff 	movw	r1, #511	; 0x1ff
 8003a7c:	f04f 0200 	mov.w	r2, #0
 8003a80:	ea03 0501 	and.w	r5, r3, r1
 8003a84:	ea04 0602 	and.w	r6, r4, r2
 8003a88:	4a3d      	ldr	r2, [pc, #244]	; (8003b80 <HAL_RCC_GetSysClockFreq+0x160>)
 8003a8a:	fb02 f106 	mul.w	r1, r2, r6
 8003a8e:	2200      	movs	r2, #0
 8003a90:	fb02 f205 	mul.w	r2, r2, r5
 8003a94:	440a      	add	r2, r1
 8003a96:	493a      	ldr	r1, [pc, #232]	; (8003b80 <HAL_RCC_GetSysClockFreq+0x160>)
 8003a98:	fba5 0101 	umull	r0, r1, r5, r1
 8003a9c:	1853      	adds	r3, r2, r1
 8003a9e:	4619      	mov	r1, r3
 8003aa0:	687b      	ldr	r3, [r7, #4]
 8003aa2:	f04f 0400 	mov.w	r4, #0
 8003aa6:	461a      	mov	r2, r3
 8003aa8:	4623      	mov	r3, r4
 8003aaa:	f7fd f879 	bl	8000ba0 <__aeabi_uldivmod>
 8003aae:	4603      	mov	r3, r0
 8003ab0:	460c      	mov	r4, r1
 8003ab2:	60fb      	str	r3, [r7, #12]
 8003ab4:	e049      	b.n	8003b4a <HAL_RCC_GetSysClockFreq+0x12a>
 8003ab6:	4b30      	ldr	r3, [pc, #192]	; (8003b78 <HAL_RCC_GetSysClockFreq+0x158>)
 8003ab8:	685b      	ldr	r3, [r3, #4]
 8003aba:	099b      	lsrs	r3, r3, #6
 8003abc:	f04f 0400 	mov.w	r4, #0
 8003ac0:	f240 11ff 	movw	r1, #511	; 0x1ff
 8003ac4:	f04f 0200 	mov.w	r2, #0
 8003ac8:	ea03 0501 	and.w	r5, r3, r1
 8003acc:	ea04 0602 	and.w	r6, r4, r2
 8003ad0:	4629      	mov	r1, r5
 8003ad2:	4632      	mov	r2, r6
 8003ad4:	f04f 0300 	mov.w	r3, #0
 8003ad8:	f04f 0400 	mov.w	r4, #0
 8003adc:	0154      	lsls	r4, r2, #5
 8003ade:	ea44 64d1 	orr.w	r4, r4, r1, lsr #27
 8003ae2:	014b      	lsls	r3, r1, #5
 8003ae4:	4619      	mov	r1, r3
 8003ae6:	4622      	mov	r2, r4
 8003ae8:	1b49      	subs	r1, r1, r5
 8003aea:	eb62 0206 	sbc.w	r2, r2, r6
 8003aee:	f04f 0300 	mov.w	r3, #0
 8003af2:	f04f 0400 	mov.w	r4, #0
 8003af6:	0194      	lsls	r4, r2, #6
 8003af8:	ea44 6491 	orr.w	r4, r4, r1, lsr #26
 8003afc:	018b      	lsls	r3, r1, #6
 8003afe:	1a5b      	subs	r3, r3, r1
 8003b00:	eb64 0402 	sbc.w	r4, r4, r2
 8003b04:	f04f 0100 	mov.w	r1, #0
 8003b08:	f04f 0200 	mov.w	r2, #0
 8003b0c:	00e2      	lsls	r2, r4, #3
 8003b0e:	ea42 7253 	orr.w	r2, r2, r3, lsr #29
 8003b12:	00d9      	lsls	r1, r3, #3
 8003b14:	460b      	mov	r3, r1
 8003b16:	4614      	mov	r4, r2
 8003b18:	195b      	adds	r3, r3, r5
 8003b1a:	eb44 0406 	adc.w	r4, r4, r6
 8003b1e:	f04f 0100 	mov.w	r1, #0
 8003b22:	f04f 0200 	mov.w	r2, #0
 8003b26:	02a2      	lsls	r2, r4, #10
 8003b28:	ea42 5293 	orr.w	r2, r2, r3, lsr #22
 8003b2c:	0299      	lsls	r1, r3, #10
 8003b2e:	460b      	mov	r3, r1
 8003b30:	4614      	mov	r4, r2
 8003b32:	4618      	mov	r0, r3
 8003b34:	4621      	mov	r1, r4
 8003b36:	687b      	ldr	r3, [r7, #4]
 8003b38:	f04f 0400 	mov.w	r4, #0
 8003b3c:	461a      	mov	r2, r3
 8003b3e:	4623      	mov	r3, r4
 8003b40:	f7fd f82e 	bl	8000ba0 <__aeabi_uldivmod>
 8003b44:	4603      	mov	r3, r0
 8003b46:	460c      	mov	r4, r1
 8003b48:	60fb      	str	r3, [r7, #12]
 8003b4a:	4b0b      	ldr	r3, [pc, #44]	; (8003b78 <HAL_RCC_GetSysClockFreq+0x158>)
 8003b4c:	685b      	ldr	r3, [r3, #4]
 8003b4e:	0c1b      	lsrs	r3, r3, #16
 8003b50:	f003 0303 	and.w	r3, r3, #3
 8003b54:	3301      	adds	r3, #1
 8003b56:	005b      	lsls	r3, r3, #1
 8003b58:	603b      	str	r3, [r7, #0]
 8003b5a:	68fa      	ldr	r2, [r7, #12]
 8003b5c:	683b      	ldr	r3, [r7, #0]
 8003b5e:	fbb2 f3f3 	udiv	r3, r2, r3
 8003b62:	60bb      	str	r3, [r7, #8]
 8003b64:	e002      	b.n	8003b6c <HAL_RCC_GetSysClockFreq+0x14c>
 8003b66:	4b05      	ldr	r3, [pc, #20]	; (8003b7c <HAL_RCC_GetSysClockFreq+0x15c>)
 8003b68:	60bb      	str	r3, [r7, #8]
 8003b6a:	bf00      	nop
 8003b6c:	68bb      	ldr	r3, [r7, #8]
 8003b6e:	4618      	mov	r0, r3
 8003b70:	3714      	adds	r7, #20
 8003b72:	46bd      	mov	sp, r7
 8003b74:	bdf0      	pop	{r4, r5, r6, r7, pc}
 8003b76:	bf00      	nop
 8003b78:	40023800 	.word	0x40023800
 8003b7c:	00f42400 	.word	0x00f42400
 8003b80:	017d7840 	.word	0x017d7840

08003b84 <__errno>:
 8003b84:	4b01      	ldr	r3, [pc, #4]	; (8003b8c <__errno+0x8>)
 8003b86:	6818      	ldr	r0, [r3, #0]
 8003b88:	4770      	bx	lr
 8003b8a:	bf00      	nop
 8003b8c:	20000018 	.word	0x20000018

08003b90 <__libc_init_array>:
 8003b90:	b570      	push	{r4, r5, r6, lr}
 8003b92:	4e0d      	ldr	r6, [pc, #52]	; (8003bc8 <__libc_init_array+0x38>)
 8003b94:	4c0d      	ldr	r4, [pc, #52]	; (8003bcc <__libc_init_array+0x3c>)
 8003b96:	1ba4      	subs	r4, r4, r6
 8003b98:	10a4      	asrs	r4, r4, #2
 8003b9a:	2500      	movs	r5, #0
 8003b9c:	42a5      	cmp	r5, r4
 8003b9e:	d109      	bne.n	8003bb4 <__libc_init_array+0x24>
 8003ba0:	4e0b      	ldr	r6, [pc, #44]	; (8003bd0 <__libc_init_array+0x40>)
 8003ba2:	4c0c      	ldr	r4, [pc, #48]	; (8003bd4 <__libc_init_array+0x44>)
 8003ba4:	f002 fb1e 	bl	80061e4 <_init>
 8003ba8:	1ba4      	subs	r4, r4, r6
 8003baa:	10a4      	asrs	r4, r4, #2
 8003bac:	2500      	movs	r5, #0
 8003bae:	42a5      	cmp	r5, r4
 8003bb0:	d105      	bne.n	8003bbe <__libc_init_array+0x2e>
 8003bb2:	bd70      	pop	{r4, r5, r6, pc}
 8003bb4:	f856 3025 	ldr.w	r3, [r6, r5, lsl #2]
 8003bb8:	4798      	blx	r3
 8003bba:	3501      	adds	r5, #1
 8003bbc:	e7ee      	b.n	8003b9c <__libc_init_array+0xc>
 8003bbe:	f856 3025 	ldr.w	r3, [r6, r5, lsl #2]
 8003bc2:	4798      	blx	r3
 8003bc4:	3501      	adds	r5, #1
 8003bc6:	e7f2      	b.n	8003bae <__libc_init_array+0x1e>
 8003bc8:	08006480 	.word	0x08006480
 8003bcc:	08006480 	.word	0x08006480
 8003bd0:	08006480 	.word	0x08006480
 8003bd4:	08006484 	.word	0x08006484

08003bd8 <memset>:
 8003bd8:	4402      	add	r2, r0
 8003bda:	4603      	mov	r3, r0
 8003bdc:	4293      	cmp	r3, r2
 8003bde:	d100      	bne.n	8003be2 <memset+0xa>
 8003be0:	4770      	bx	lr
 8003be2:	f803 1b01 	strb.w	r1, [r3], #1
 8003be6:	e7f9      	b.n	8003bdc <memset+0x4>

08003be8 <cos>:
 8003be8:	b51f      	push	{r0, r1, r2, r3, r4, lr}
 8003bea:	ec51 0b10 	vmov	r0, r1, d0
 8003bee:	4a1e      	ldr	r2, [pc, #120]	; (8003c68 <cos+0x80>)
 8003bf0:	f021 4300 	bic.w	r3, r1, #2147483648	; 0x80000000
 8003bf4:	4293      	cmp	r3, r2
 8003bf6:	dc06      	bgt.n	8003c06 <cos+0x1e>
 8003bf8:	ed9f 1b19 	vldr	d1, [pc, #100]	; 8003c60 <cos+0x78>
 8003bfc:	f001 fae0 	bl	80051c0 <__kernel_cos>
 8003c00:	ec51 0b10 	vmov	r0, r1, d0
 8003c04:	e007      	b.n	8003c16 <cos+0x2e>
 8003c06:	4a19      	ldr	r2, [pc, #100]	; (8003c6c <cos+0x84>)
 8003c08:	4293      	cmp	r3, r2
 8003c0a:	dd09      	ble.n	8003c20 <cos+0x38>
 8003c0c:	ee10 2a10 	vmov	r2, s0
 8003c10:	460b      	mov	r3, r1
 8003c12:	f7fc fae5 	bl	80001e0 <__aeabi_dsub>
 8003c16:	ec41 0b10 	vmov	d0, r0, r1
 8003c1a:	b005      	add	sp, #20
 8003c1c:	f85d fb04 	ldr.w	pc, [sp], #4
 8003c20:	4668      	mov	r0, sp
 8003c22:	f001 f829 	bl	8004c78 <__ieee754_rem_pio2>
 8003c26:	f000 0003 	and.w	r0, r0, #3
 8003c2a:	2801      	cmp	r0, #1
 8003c2c:	ed9d 1b02 	vldr	d1, [sp, #8]
 8003c30:	ed9d 0b00 	vldr	d0, [sp]
 8003c34:	d007      	beq.n	8003c46 <cos+0x5e>
 8003c36:	2802      	cmp	r0, #2
 8003c38:	d00e      	beq.n	8003c58 <cos+0x70>
 8003c3a:	2800      	cmp	r0, #0
 8003c3c:	d0de      	beq.n	8003bfc <cos+0x14>
 8003c3e:	2001      	movs	r0, #1
 8003c40:	f001 fec6 	bl	80059d0 <__kernel_sin>
 8003c44:	e7dc      	b.n	8003c00 <cos+0x18>
 8003c46:	f001 fec3 	bl	80059d0 <__kernel_sin>
 8003c4a:	ec53 2b10 	vmov	r2, r3, d0
 8003c4e:	ee10 0a10 	vmov	r0, s0
 8003c52:	f103 4100 	add.w	r1, r3, #2147483648	; 0x80000000
 8003c56:	e7de      	b.n	8003c16 <cos+0x2e>
 8003c58:	f001 fab2 	bl	80051c0 <__kernel_cos>
 8003c5c:	e7f5      	b.n	8003c4a <cos+0x62>
 8003c5e:	bf00      	nop
	...
 8003c68:	3fe921fb 	.word	0x3fe921fb
 8003c6c:	7fefffff 	.word	0x7fefffff

08003c70 <sin>:
 8003c70:	b51f      	push	{r0, r1, r2, r3, r4, lr}
 8003c72:	ec51 0b10 	vmov	r0, r1, d0
 8003c76:	4a20      	ldr	r2, [pc, #128]	; (8003cf8 <sin+0x88>)
 8003c78:	f021 4300 	bic.w	r3, r1, #2147483648	; 0x80000000
 8003c7c:	4293      	cmp	r3, r2
 8003c7e:	dc07      	bgt.n	8003c90 <sin+0x20>
 8003c80:	ed9f 1b1b 	vldr	d1, [pc, #108]	; 8003cf0 <sin+0x80>
 8003c84:	2000      	movs	r0, #0
 8003c86:	f001 fea3 	bl	80059d0 <__kernel_sin>
 8003c8a:	ec51 0b10 	vmov	r0, r1, d0
 8003c8e:	e007      	b.n	8003ca0 <sin+0x30>
 8003c90:	4a1a      	ldr	r2, [pc, #104]	; (8003cfc <sin+0x8c>)
 8003c92:	4293      	cmp	r3, r2
 8003c94:	dd09      	ble.n	8003caa <sin+0x3a>
 8003c96:	ee10 2a10 	vmov	r2, s0
 8003c9a:	460b      	mov	r3, r1
 8003c9c:	f7fc faa0 	bl	80001e0 <__aeabi_dsub>
 8003ca0:	ec41 0b10 	vmov	d0, r0, r1
 8003ca4:	b005      	add	sp, #20
 8003ca6:	f85d fb04 	ldr.w	pc, [sp], #4
 8003caa:	4668      	mov	r0, sp
 8003cac:	f000 ffe4 	bl	8004c78 <__ieee754_rem_pio2>
 8003cb0:	f000 0003 	and.w	r0, r0, #3
 8003cb4:	2801      	cmp	r0, #1
 8003cb6:	ed9d 1b02 	vldr	d1, [sp, #8]
 8003cba:	ed9d 0b00 	vldr	d0, [sp]
 8003cbe:	d004      	beq.n	8003cca <sin+0x5a>
 8003cc0:	2802      	cmp	r0, #2
 8003cc2:	d005      	beq.n	8003cd0 <sin+0x60>
 8003cc4:	b970      	cbnz	r0, 8003ce4 <sin+0x74>
 8003cc6:	2001      	movs	r0, #1
 8003cc8:	e7dd      	b.n	8003c86 <sin+0x16>
 8003cca:	f001 fa79 	bl	80051c0 <__kernel_cos>
 8003cce:	e7dc      	b.n	8003c8a <sin+0x1a>
 8003cd0:	2001      	movs	r0, #1
 8003cd2:	f001 fe7d 	bl	80059d0 <__kernel_sin>
 8003cd6:	ec53 2b10 	vmov	r2, r3, d0
 8003cda:	ee10 0a10 	vmov	r0, s0
 8003cde:	f103 4100 	add.w	r1, r3, #2147483648	; 0x80000000
 8003ce2:	e7dd      	b.n	8003ca0 <sin+0x30>
 8003ce4:	f001 fa6c 	bl	80051c0 <__kernel_cos>
 8003ce8:	e7f5      	b.n	8003cd6 <sin+0x66>
 8003cea:	bf00      	nop
 8003cec:	f3af 8000 	nop.w
	...
 8003cf8:	3fe921fb 	.word	0x3fe921fb
 8003cfc:	7fefffff 	.word	0x7fefffff

08003d00 <atan2>:
 8003d00:	f000 b9ca 	b.w	8004098 <__ieee754_atan2>

08003d04 <pow>:
 8003d04:	e92d 4ff0 	stmdb	sp!, {r4, r5, r6, r7, r8, r9, sl, fp, lr}
 8003d08:	ed2d 8b04 	vpush	{d8-d9}
 8003d0c:	f8df 92d0 	ldr.w	r9, [pc, #720]	; 8003fe0 <pow+0x2dc>
 8003d10:	b08d      	sub	sp, #52	; 0x34
 8003d12:	ec57 6b10 	vmov	r6, r7, d0
 8003d16:	ec55 4b11 	vmov	r4, r5, d1
 8003d1a:	f000 fa9d 	bl	8004258 <__ieee754_pow>
 8003d1e:	f999 3000 	ldrsb.w	r3, [r9]
 8003d22:	9300      	str	r3, [sp, #0]
 8003d24:	3301      	adds	r3, #1
 8003d26:	eeb0 8a40 	vmov.f32	s16, s0
 8003d2a:	eef0 8a60 	vmov.f32	s17, s1
 8003d2e:	46c8      	mov	r8, r9
 8003d30:	d05f      	beq.n	8003df2 <pow+0xee>
 8003d32:	4622      	mov	r2, r4
 8003d34:	462b      	mov	r3, r5
 8003d36:	4620      	mov	r0, r4
 8003d38:	4629      	mov	r1, r5
 8003d3a:	f7fc fea3 	bl	8000a84 <__aeabi_dcmpun>
 8003d3e:	4683      	mov	fp, r0
 8003d40:	2800      	cmp	r0, #0
 8003d42:	d156      	bne.n	8003df2 <pow+0xee>
 8003d44:	4632      	mov	r2, r6
 8003d46:	463b      	mov	r3, r7
 8003d48:	4630      	mov	r0, r6
 8003d4a:	4639      	mov	r1, r7
 8003d4c:	f7fc fe9a 	bl	8000a84 <__aeabi_dcmpun>
 8003d50:	9001      	str	r0, [sp, #4]
 8003d52:	b1e8      	cbz	r0, 8003d90 <pow+0x8c>
 8003d54:	2200      	movs	r2, #0
 8003d56:	2300      	movs	r3, #0
 8003d58:	4620      	mov	r0, r4
 8003d5a:	4629      	mov	r1, r5
 8003d5c:	f7fc fe60 	bl	8000a20 <__aeabi_dcmpeq>
 8003d60:	2800      	cmp	r0, #0
 8003d62:	d046      	beq.n	8003df2 <pow+0xee>
 8003d64:	2301      	movs	r3, #1
 8003d66:	9302      	str	r3, [sp, #8]
 8003d68:	4b96      	ldr	r3, [pc, #600]	; (8003fc4 <pow+0x2c0>)
 8003d6a:	9303      	str	r3, [sp, #12]
 8003d6c:	4b96      	ldr	r3, [pc, #600]	; (8003fc8 <pow+0x2c4>)
 8003d6e:	f8cd b028 	str.w	fp, [sp, #40]	; 0x28
 8003d72:	2200      	movs	r2, #0
 8003d74:	e9cd 2308 	strd	r2, r3, [sp, #32]
 8003d78:	9b00      	ldr	r3, [sp, #0]
 8003d7a:	2b02      	cmp	r3, #2
 8003d7c:	e9cd 6704 	strd	r6, r7, [sp, #16]
 8003d80:	e9cd 4506 	strd	r4, r5, [sp, #24]
 8003d84:	d033      	beq.n	8003dee <pow+0xea>
 8003d86:	a802      	add	r0, sp, #8
 8003d88:	f002 f916 	bl	8005fb8 <matherr>
 8003d8c:	bb48      	cbnz	r0, 8003de2 <pow+0xde>
 8003d8e:	e05d      	b.n	8003e4c <pow+0x148>
 8003d90:	f04f 0a00 	mov.w	sl, #0
 8003d94:	f04f 0b00 	mov.w	fp, #0
 8003d98:	4652      	mov	r2, sl
 8003d9a:	465b      	mov	r3, fp
 8003d9c:	4630      	mov	r0, r6
 8003d9e:	4639      	mov	r1, r7
 8003da0:	f7fc fe3e 	bl	8000a20 <__aeabi_dcmpeq>
 8003da4:	ec4b ab19 	vmov	d9, sl, fp
 8003da8:	2800      	cmp	r0, #0
 8003daa:	d054      	beq.n	8003e56 <pow+0x152>
 8003dac:	4652      	mov	r2, sl
 8003dae:	465b      	mov	r3, fp
 8003db0:	4620      	mov	r0, r4
 8003db2:	4629      	mov	r1, r5
 8003db4:	f7fc fe34 	bl	8000a20 <__aeabi_dcmpeq>
 8003db8:	4680      	mov	r8, r0
 8003dba:	b318      	cbz	r0, 8003e04 <pow+0x100>
 8003dbc:	2301      	movs	r3, #1
 8003dbe:	9302      	str	r3, [sp, #8]
 8003dc0:	4b80      	ldr	r3, [pc, #512]	; (8003fc4 <pow+0x2c0>)
 8003dc2:	9303      	str	r3, [sp, #12]
 8003dc4:	9b01      	ldr	r3, [sp, #4]
 8003dc6:	930a      	str	r3, [sp, #40]	; 0x28
 8003dc8:	9b00      	ldr	r3, [sp, #0]
 8003dca:	e9cd 6704 	strd	r6, r7, [sp, #16]
 8003dce:	e9cd 4506 	strd	r4, r5, [sp, #24]
 8003dd2:	e9cd ab08 	strd	sl, fp, [sp, #32]
 8003dd6:	2b00      	cmp	r3, #0
 8003dd8:	d0d5      	beq.n	8003d86 <pow+0x82>
 8003dda:	4b7b      	ldr	r3, [pc, #492]	; (8003fc8 <pow+0x2c4>)
 8003ddc:	2200      	movs	r2, #0
 8003dde:	e9cd 2308 	strd	r2, r3, [sp, #32]
 8003de2:	9b0a      	ldr	r3, [sp, #40]	; 0x28
 8003de4:	b11b      	cbz	r3, 8003dee <pow+0xea>
 8003de6:	f7ff fecd 	bl	8003b84 <__errno>
 8003dea:	9b0a      	ldr	r3, [sp, #40]	; 0x28
 8003dec:	6003      	str	r3, [r0, #0]
 8003dee:	ed9d 8b08 	vldr	d8, [sp, #32]
 8003df2:	eeb0 0a48 	vmov.f32	s0, s16
 8003df6:	eef0 0a68 	vmov.f32	s1, s17
 8003dfa:	b00d      	add	sp, #52	; 0x34
 8003dfc:	ecbd 8b04 	vpop	{d8-d9}
 8003e00:	e8bd 8ff0 	ldmia.w	sp!, {r4, r5, r6, r7, r8, r9, sl, fp, pc}
 8003e04:	ec45 4b10 	vmov	d0, r4, r5
 8003e08:	f002 f847 	bl	8005e9a <finite>
 8003e0c:	2800      	cmp	r0, #0
 8003e0e:	d0f0      	beq.n	8003df2 <pow+0xee>
 8003e10:	4652      	mov	r2, sl
 8003e12:	465b      	mov	r3, fp
 8003e14:	4620      	mov	r0, r4
 8003e16:	4629      	mov	r1, r5
 8003e18:	f7fc fe0c 	bl	8000a34 <__aeabi_dcmplt>
 8003e1c:	2800      	cmp	r0, #0
 8003e1e:	d0e8      	beq.n	8003df2 <pow+0xee>
 8003e20:	2301      	movs	r3, #1
 8003e22:	9302      	str	r3, [sp, #8]
 8003e24:	4b67      	ldr	r3, [pc, #412]	; (8003fc4 <pow+0x2c0>)
 8003e26:	9303      	str	r3, [sp, #12]
 8003e28:	f999 3000 	ldrsb.w	r3, [r9]
 8003e2c:	f8cd 8028 	str.w	r8, [sp, #40]	; 0x28
 8003e30:	e9cd 6704 	strd	r6, r7, [sp, #16]
 8003e34:	e9cd 4506 	strd	r4, r5, [sp, #24]
 8003e38:	b913      	cbnz	r3, 8003e40 <pow+0x13c>
 8003e3a:	e9cd ab08 	strd	sl, fp, [sp, #32]
 8003e3e:	e7a2      	b.n	8003d86 <pow+0x82>
 8003e40:	4962      	ldr	r1, [pc, #392]	; (8003fcc <pow+0x2c8>)
 8003e42:	2000      	movs	r0, #0
 8003e44:	e9cd 0108 	strd	r0, r1, [sp, #32]
 8003e48:	2b02      	cmp	r3, #2
 8003e4a:	d19c      	bne.n	8003d86 <pow+0x82>
 8003e4c:	f7ff fe9a 	bl	8003b84 <__errno>
 8003e50:	2321      	movs	r3, #33	; 0x21
 8003e52:	6003      	str	r3, [r0, #0]
 8003e54:	e7c5      	b.n	8003de2 <pow+0xde>
 8003e56:	eeb0 0a48 	vmov.f32	s0, s16
 8003e5a:	eef0 0a68 	vmov.f32	s1, s17
 8003e5e:	f002 f81c 	bl	8005e9a <finite>
 8003e62:	9000      	str	r0, [sp, #0]
 8003e64:	2800      	cmp	r0, #0
 8003e66:	f040 8081 	bne.w	8003f6c <pow+0x268>
 8003e6a:	ec47 6b10 	vmov	d0, r6, r7
 8003e6e:	f002 f814 	bl	8005e9a <finite>
 8003e72:	2800      	cmp	r0, #0
 8003e74:	d07a      	beq.n	8003f6c <pow+0x268>
 8003e76:	ec45 4b10 	vmov	d0, r4, r5
 8003e7a:	f002 f80e 	bl	8005e9a <finite>
 8003e7e:	2800      	cmp	r0, #0
 8003e80:	d074      	beq.n	8003f6c <pow+0x268>
 8003e82:	ec53 2b18 	vmov	r2, r3, d8
 8003e86:	ee18 0a10 	vmov	r0, s16
 8003e8a:	4619      	mov	r1, r3
 8003e8c:	f7fc fdfa 	bl	8000a84 <__aeabi_dcmpun>
 8003e90:	f999 9000 	ldrsb.w	r9, [r9]
 8003e94:	4b4b      	ldr	r3, [pc, #300]	; (8003fc4 <pow+0x2c0>)
 8003e96:	b1b0      	cbz	r0, 8003ec6 <pow+0x1c2>
 8003e98:	2201      	movs	r2, #1
 8003e9a:	e9cd 2302 	strd	r2, r3, [sp, #8]
 8003e9e:	9b00      	ldr	r3, [sp, #0]
 8003ea0:	930a      	str	r3, [sp, #40]	; 0x28
 8003ea2:	e9cd 6704 	strd	r6, r7, [sp, #16]
 8003ea6:	e9cd 4506 	strd	r4, r5, [sp, #24]
 8003eaa:	f1b9 0f00 	cmp.w	r9, #0
 8003eae:	d0c4      	beq.n	8003e3a <pow+0x136>
 8003eb0:	4652      	mov	r2, sl
 8003eb2:	465b      	mov	r3, fp
 8003eb4:	4650      	mov	r0, sl
 8003eb6:	4659      	mov	r1, fp
 8003eb8:	f7fc fc74 	bl	80007a4 <__aeabi_ddiv>
 8003ebc:	f1b9 0f02 	cmp.w	r9, #2
 8003ec0:	e9cd 0108 	strd	r0, r1, [sp, #32]
 8003ec4:	e7c1      	b.n	8003e4a <pow+0x146>
 8003ec6:	2203      	movs	r2, #3
 8003ec8:	e9cd 2302 	strd	r2, r3, [sp, #8]
 8003ecc:	900a      	str	r0, [sp, #40]	; 0x28
 8003ece:	4629      	mov	r1, r5
 8003ed0:	4620      	mov	r0, r4
 8003ed2:	2200      	movs	r2, #0
 8003ed4:	4b3e      	ldr	r3, [pc, #248]	; (8003fd0 <pow+0x2cc>)
 8003ed6:	e9cd 4506 	strd	r4, r5, [sp, #24]
 8003eda:	e9cd 6704 	strd	r6, r7, [sp, #16]
 8003ede:	f7fc fb37 	bl	8000550 <__aeabi_dmul>
 8003ee2:	4604      	mov	r4, r0
 8003ee4:	460d      	mov	r5, r1
 8003ee6:	f1b9 0f00 	cmp.w	r9, #0
 8003eea:	d124      	bne.n	8003f36 <pow+0x232>
 8003eec:	4b39      	ldr	r3, [pc, #228]	; (8003fd4 <pow+0x2d0>)
 8003eee:	f04f 4260 	mov.w	r2, #3758096384	; 0xe0000000
 8003ef2:	e9cd 2308 	strd	r2, r3, [sp, #32]
 8003ef6:	4630      	mov	r0, r6
 8003ef8:	4652      	mov	r2, sl
 8003efa:	465b      	mov	r3, fp
 8003efc:	4639      	mov	r1, r7
 8003efe:	f7fc fd99 	bl	8000a34 <__aeabi_dcmplt>
 8003f02:	2800      	cmp	r0, #0
 8003f04:	d056      	beq.n	8003fb4 <pow+0x2b0>
 8003f06:	ec45 4b10 	vmov	d0, r4, r5
 8003f0a:	f002 f861 	bl	8005fd0 <rint>
 8003f0e:	4622      	mov	r2, r4
 8003f10:	462b      	mov	r3, r5
 8003f12:	ec51 0b10 	vmov	r0, r1, d0
 8003f16:	f7fc fd83 	bl	8000a20 <__aeabi_dcmpeq>
 8003f1a:	b920      	cbnz	r0, 8003f26 <pow+0x222>
 8003f1c:	4b2e      	ldr	r3, [pc, #184]	; (8003fd8 <pow+0x2d4>)
 8003f1e:	f04f 4260 	mov.w	r2, #3758096384	; 0xe0000000
 8003f22:	e9cd 2308 	strd	r2, r3, [sp, #32]
 8003f26:	f998 3000 	ldrsb.w	r3, [r8]
 8003f2a:	2b02      	cmp	r3, #2
 8003f2c:	d142      	bne.n	8003fb4 <pow+0x2b0>
 8003f2e:	f7ff fe29 	bl	8003b84 <__errno>
 8003f32:	2322      	movs	r3, #34	; 0x22
 8003f34:	e78d      	b.n	8003e52 <pow+0x14e>
 8003f36:	4b29      	ldr	r3, [pc, #164]	; (8003fdc <pow+0x2d8>)
 8003f38:	2200      	movs	r2, #0
 8003f3a:	e9cd 2308 	strd	r2, r3, [sp, #32]
 8003f3e:	4630      	mov	r0, r6
 8003f40:	4652      	mov	r2, sl
 8003f42:	465b      	mov	r3, fp
 8003f44:	4639      	mov	r1, r7
 8003f46:	f7fc fd75 	bl	8000a34 <__aeabi_dcmplt>
 8003f4a:	2800      	cmp	r0, #0
 8003f4c:	d0eb      	beq.n	8003f26 <pow+0x222>
 8003f4e:	ec45 4b10 	vmov	d0, r4, r5
 8003f52:	f002 f83d 	bl	8005fd0 <rint>
 8003f56:	4622      	mov	r2, r4
 8003f58:	462b      	mov	r3, r5
 8003f5a:	ec51 0b10 	vmov	r0, r1, d0
 8003f5e:	f7fc fd5f 	bl	8000a20 <__aeabi_dcmpeq>
 8003f62:	2800      	cmp	r0, #0
 8003f64:	d1df      	bne.n	8003f26 <pow+0x222>
 8003f66:	2200      	movs	r2, #0
 8003f68:	4b18      	ldr	r3, [pc, #96]	; (8003fcc <pow+0x2c8>)
 8003f6a:	e7da      	b.n	8003f22 <pow+0x21e>
 8003f6c:	2200      	movs	r2, #0
 8003f6e:	2300      	movs	r3, #0
 8003f70:	ec51 0b18 	vmov	r0, r1, d8
 8003f74:	f7fc fd54 	bl	8000a20 <__aeabi_dcmpeq>
 8003f78:	2800      	cmp	r0, #0
 8003f7a:	f43f af3a 	beq.w	8003df2 <pow+0xee>
 8003f7e:	ec47 6b10 	vmov	d0, r6, r7
 8003f82:	f001 ff8a 	bl	8005e9a <finite>
 8003f86:	2800      	cmp	r0, #0
 8003f88:	f43f af33 	beq.w	8003df2 <pow+0xee>
 8003f8c:	ec45 4b10 	vmov	d0, r4, r5
 8003f90:	f001 ff83 	bl	8005e9a <finite>
 8003f94:	2800      	cmp	r0, #0
 8003f96:	f43f af2c 	beq.w	8003df2 <pow+0xee>
 8003f9a:	2304      	movs	r3, #4
 8003f9c:	9302      	str	r3, [sp, #8]
 8003f9e:	4b09      	ldr	r3, [pc, #36]	; (8003fc4 <pow+0x2c0>)
 8003fa0:	9303      	str	r3, [sp, #12]
 8003fa2:	2300      	movs	r3, #0
 8003fa4:	930a      	str	r3, [sp, #40]	; 0x28
 8003fa6:	e9cd 6704 	strd	r6, r7, [sp, #16]
 8003faa:	e9cd 4506 	strd	r4, r5, [sp, #24]
 8003fae:	ed8d 9b08 	vstr	d9, [sp, #32]
 8003fb2:	e7b8      	b.n	8003f26 <pow+0x222>
 8003fb4:	a802      	add	r0, sp, #8
 8003fb6:	f001 ffff 	bl	8005fb8 <matherr>
 8003fba:	2800      	cmp	r0, #0
 8003fbc:	f47f af11 	bne.w	8003de2 <pow+0xde>
 8003fc0:	e7b5      	b.n	8003f2e <pow+0x22a>
 8003fc2:	bf00      	nop
 8003fc4:	08006210 	.word	0x08006210
 8003fc8:	3ff00000 	.word	0x3ff00000
 8003fcc:	fff00000 	.word	0xfff00000
 8003fd0:	3fe00000 	.word	0x3fe00000
 8003fd4:	47efffff 	.word	0x47efffff
 8003fd8:	c7efffff 	.word	0xc7efffff
 8003fdc:	7ff00000 	.word	0x7ff00000
 8003fe0:	2000007c 	.word	0x2000007c

08003fe4 <sqrt>:
 8003fe4:	e92d 43f0 	stmdb	sp!, {r4, r5, r6, r7, r8, r9, lr}
 8003fe8:	ed2d 8b02 	vpush	{d8}
 8003fec:	b08b      	sub	sp, #44	; 0x2c
 8003fee:	ec55 4b10 	vmov	r4, r5, d0
 8003ff2:	f001 f833 	bl	800505c <__ieee754_sqrt>
 8003ff6:	4b26      	ldr	r3, [pc, #152]	; (8004090 <sqrt+0xac>)
 8003ff8:	eeb0 8a40 	vmov.f32	s16, s0
 8003ffc:	eef0 8a60 	vmov.f32	s17, s1
 8004000:	f993 6000 	ldrsb.w	r6, [r3]
 8004004:	1c73      	adds	r3, r6, #1
 8004006:	d02a      	beq.n	800405e <sqrt+0x7a>
 8004008:	4622      	mov	r2, r4
 800400a:	462b      	mov	r3, r5
 800400c:	4620      	mov	r0, r4
 800400e:	4629      	mov	r1, r5
 8004010:	f7fc fd38 	bl	8000a84 <__aeabi_dcmpun>
 8004014:	4607      	mov	r7, r0
 8004016:	bb10      	cbnz	r0, 800405e <sqrt+0x7a>
 8004018:	f04f 0800 	mov.w	r8, #0
 800401c:	f04f 0900 	mov.w	r9, #0
 8004020:	4642      	mov	r2, r8
 8004022:	464b      	mov	r3, r9
 8004024:	4620      	mov	r0, r4
 8004026:	4629      	mov	r1, r5
 8004028:	f7fc fd04 	bl	8000a34 <__aeabi_dcmplt>
 800402c:	b1b8      	cbz	r0, 800405e <sqrt+0x7a>
 800402e:	2301      	movs	r3, #1
 8004030:	9300      	str	r3, [sp, #0]
 8004032:	4b18      	ldr	r3, [pc, #96]	; (8004094 <sqrt+0xb0>)
 8004034:	9301      	str	r3, [sp, #4]
 8004036:	9708      	str	r7, [sp, #32]
 8004038:	e9cd 4504 	strd	r4, r5, [sp, #16]
 800403c:	e9cd 4502 	strd	r4, r5, [sp, #8]
 8004040:	b9b6      	cbnz	r6, 8004070 <sqrt+0x8c>
 8004042:	e9cd 8906 	strd	r8, r9, [sp, #24]
 8004046:	4668      	mov	r0, sp
 8004048:	f001 ffb6 	bl	8005fb8 <matherr>
 800404c:	b1d0      	cbz	r0, 8004084 <sqrt+0xa0>
 800404e:	9b08      	ldr	r3, [sp, #32]
 8004050:	b11b      	cbz	r3, 800405a <sqrt+0x76>
 8004052:	f7ff fd97 	bl	8003b84 <__errno>
 8004056:	9b08      	ldr	r3, [sp, #32]
 8004058:	6003      	str	r3, [r0, #0]
 800405a:	ed9d 8b06 	vldr	d8, [sp, #24]
 800405e:	eeb0 0a48 	vmov.f32	s0, s16
 8004062:	eef0 0a68 	vmov.f32	s1, s17
 8004066:	b00b      	add	sp, #44	; 0x2c
 8004068:	ecbd 8b02 	vpop	{d8}
 800406c:	e8bd 83f0 	ldmia.w	sp!, {r4, r5, r6, r7, r8, r9, pc}
 8004070:	4642      	mov	r2, r8
 8004072:	464b      	mov	r3, r9
 8004074:	4640      	mov	r0, r8
 8004076:	4649      	mov	r1, r9
 8004078:	f7fc fb94 	bl	80007a4 <__aeabi_ddiv>
 800407c:	2e02      	cmp	r6, #2
 800407e:	e9cd 0106 	strd	r0, r1, [sp, #24]
 8004082:	d1e0      	bne.n	8004046 <sqrt+0x62>
 8004084:	f7ff fd7e 	bl	8003b84 <__errno>
 8004088:	2321      	movs	r3, #33	; 0x21
 800408a:	6003      	str	r3, [r0, #0]
 800408c:	e7df      	b.n	800404e <sqrt+0x6a>
 800408e:	bf00      	nop
 8004090:	2000007c 	.word	0x2000007c
 8004094:	08006214 	.word	0x08006214

08004098 <__ieee754_atan2>:
 8004098:	e92d 43f8 	stmdb	sp!, {r3, r4, r5, r6, r7, r8, r9, lr}
 800409c:	ec57 6b11 	vmov	r6, r7, d1
 80040a0:	4273      	negs	r3, r6
 80040a2:	f027 4200 	bic.w	r2, r7, #2147483648	; 0x80000000
 80040a6:	4333      	orrs	r3, r6
 80040a8:	f8df e1a4 	ldr.w	lr, [pc, #420]	; 8004250 <__ieee754_atan2+0x1b8>
 80040ac:	ea42 73d3 	orr.w	r3, r2, r3, lsr #31
 80040b0:	4573      	cmp	r3, lr
 80040b2:	ec51 0b10 	vmov	r0, r1, d0
 80040b6:	ee11 8a10 	vmov	r8, s2
 80040ba:	d80a      	bhi.n	80040d2 <__ieee754_atan2+0x3a>
 80040bc:	4244      	negs	r4, r0
 80040be:	f021 4300 	bic.w	r3, r1, #2147483648	; 0x80000000
 80040c2:	4304      	orrs	r4, r0
 80040c4:	ea43 74d4 	orr.w	r4, r3, r4, lsr #31
 80040c8:	4574      	cmp	r4, lr
 80040ca:	468c      	mov	ip, r1
 80040cc:	ee10 9a10 	vmov	r9, s0
 80040d0:	d907      	bls.n	80040e2 <__ieee754_atan2+0x4a>
 80040d2:	4632      	mov	r2, r6
 80040d4:	463b      	mov	r3, r7
 80040d6:	f7fc f885 	bl	80001e4 <__adddf3>
 80040da:	ec41 0b10 	vmov	d0, r0, r1
 80040de:	e8bd 83f8 	ldmia.w	sp!, {r3, r4, r5, r6, r7, r8, r9, pc}
 80040e2:	f107 4440 	add.w	r4, r7, #3221225472	; 0xc0000000
 80040e6:	f504 1480 	add.w	r4, r4, #1048576	; 0x100000
 80040ea:	4334      	orrs	r4, r6
 80040ec:	d103      	bne.n	80040f6 <__ieee754_atan2+0x5e>
 80040ee:	e8bd 43f8 	ldmia.w	sp!, {r3, r4, r5, r6, r7, r8, r9, lr}
 80040f2:	f001 bd29 	b.w	8005b48 <atan>
 80040f6:	17bc      	asrs	r4, r7, #30
 80040f8:	f004 0402 	and.w	r4, r4, #2
 80040fc:	ea53 0909 	orrs.w	r9, r3, r9
 8004100:	ea44 74d1 	orr.w	r4, r4, r1, lsr #31
 8004104:	d107      	bne.n	8004116 <__ieee754_atan2+0x7e>
 8004106:	2c02      	cmp	r4, #2
 8004108:	d073      	beq.n	80041f2 <__ieee754_atan2+0x15a>
 800410a:	2c03      	cmp	r4, #3
 800410c:	d1e5      	bne.n	80040da <__ieee754_atan2+0x42>
 800410e:	a13e      	add	r1, pc, #248	; (adr r1, 8004208 <__ieee754_atan2+0x170>)
 8004110:	e9d1 0100 	ldrd	r0, r1, [r1]
 8004114:	e7e1      	b.n	80040da <__ieee754_atan2+0x42>
 8004116:	ea52 0808 	orrs.w	r8, r2, r8
 800411a:	d106      	bne.n	800412a <__ieee754_atan2+0x92>
 800411c:	f1bc 0f00 	cmp.w	ip, #0
 8004120:	da6b      	bge.n	80041fa <__ieee754_atan2+0x162>
 8004122:	a13b      	add	r1, pc, #236	; (adr r1, 8004210 <__ieee754_atan2+0x178>)
 8004124:	e9d1 0100 	ldrd	r0, r1, [r1]
 8004128:	e7d7      	b.n	80040da <__ieee754_atan2+0x42>
 800412a:	4572      	cmp	r2, lr
 800412c:	d120      	bne.n	8004170 <__ieee754_atan2+0xd8>
 800412e:	4293      	cmp	r3, r2
 8004130:	d111      	bne.n	8004156 <__ieee754_atan2+0xbe>
 8004132:	2c02      	cmp	r4, #2
 8004134:	d007      	beq.n	8004146 <__ieee754_atan2+0xae>
 8004136:	2c03      	cmp	r4, #3
 8004138:	d009      	beq.n	800414e <__ieee754_atan2+0xb6>
 800413a:	2c01      	cmp	r4, #1
 800413c:	d155      	bne.n	80041ea <__ieee754_atan2+0x152>
 800413e:	a136      	add	r1, pc, #216	; (adr r1, 8004218 <__ieee754_atan2+0x180>)
 8004140:	e9d1 0100 	ldrd	r0, r1, [r1]
 8004144:	e7c9      	b.n	80040da <__ieee754_atan2+0x42>
 8004146:	a136      	add	r1, pc, #216	; (adr r1, 8004220 <__ieee754_atan2+0x188>)
 8004148:	e9d1 0100 	ldrd	r0, r1, [r1]
 800414c:	e7c5      	b.n	80040da <__ieee754_atan2+0x42>
 800414e:	a136      	add	r1, pc, #216	; (adr r1, 8004228 <__ieee754_atan2+0x190>)
 8004150:	e9d1 0100 	ldrd	r0, r1, [r1]
 8004154:	e7c1      	b.n	80040da <__ieee754_atan2+0x42>
 8004156:	2c02      	cmp	r4, #2
 8004158:	d04b      	beq.n	80041f2 <__ieee754_atan2+0x15a>
 800415a:	2c03      	cmp	r4, #3
 800415c:	d0d7      	beq.n	800410e <__ieee754_atan2+0x76>
 800415e:	2c01      	cmp	r4, #1
 8004160:	f04f 0000 	mov.w	r0, #0
 8004164:	d102      	bne.n	800416c <__ieee754_atan2+0xd4>
 8004166:	f04f 4100 	mov.w	r1, #2147483648	; 0x80000000
 800416a:	e7b6      	b.n	80040da <__ieee754_atan2+0x42>
 800416c:	2100      	movs	r1, #0
 800416e:	e7b4      	b.n	80040da <__ieee754_atan2+0x42>
 8004170:	4573      	cmp	r3, lr
 8004172:	d0d3      	beq.n	800411c <__ieee754_atan2+0x84>
 8004174:	1a9b      	subs	r3, r3, r2
 8004176:	151b      	asrs	r3, r3, #20
 8004178:	2b3c      	cmp	r3, #60	; 0x3c
 800417a:	dc1e      	bgt.n	80041ba <__ieee754_atan2+0x122>
 800417c:	2f00      	cmp	r7, #0
 800417e:	da01      	bge.n	8004184 <__ieee754_atan2+0xec>
 8004180:	333c      	adds	r3, #60	; 0x3c
 8004182:	db1e      	blt.n	80041c2 <__ieee754_atan2+0x12a>
 8004184:	4632      	mov	r2, r6
 8004186:	463b      	mov	r3, r7
 8004188:	f7fc fb0c 	bl	80007a4 <__aeabi_ddiv>
 800418c:	ec41 0b10 	vmov	d0, r0, r1
 8004190:	f001 fe7a 	bl	8005e88 <fabs>
 8004194:	f001 fcd8 	bl	8005b48 <atan>
 8004198:	ec51 0b10 	vmov	r0, r1, d0
 800419c:	2c01      	cmp	r4, #1
 800419e:	d013      	beq.n	80041c8 <__ieee754_atan2+0x130>
 80041a0:	2c02      	cmp	r4, #2
 80041a2:	d015      	beq.n	80041d0 <__ieee754_atan2+0x138>
 80041a4:	2c00      	cmp	r4, #0
 80041a6:	d098      	beq.n	80040da <__ieee754_atan2+0x42>
 80041a8:	a321      	add	r3, pc, #132	; (adr r3, 8004230 <__ieee754_atan2+0x198>)
 80041aa:	e9d3 2300 	ldrd	r2, r3, [r3]
 80041ae:	f7fc f817 	bl	80001e0 <__aeabi_dsub>
 80041b2:	a321      	add	r3, pc, #132	; (adr r3, 8004238 <__ieee754_atan2+0x1a0>)
 80041b4:	e9d3 2300 	ldrd	r2, r3, [r3]
 80041b8:	e014      	b.n	80041e4 <__ieee754_atan2+0x14c>
 80041ba:	a121      	add	r1, pc, #132	; (adr r1, 8004240 <__ieee754_atan2+0x1a8>)
 80041bc:	e9d1 0100 	ldrd	r0, r1, [r1]
 80041c0:	e7ec      	b.n	800419c <__ieee754_atan2+0x104>
 80041c2:	2000      	movs	r0, #0
 80041c4:	2100      	movs	r1, #0
 80041c6:	e7e9      	b.n	800419c <__ieee754_atan2+0x104>
 80041c8:	f101 4300 	add.w	r3, r1, #2147483648	; 0x80000000
 80041cc:	4619      	mov	r1, r3
 80041ce:	e784      	b.n	80040da <__ieee754_atan2+0x42>
 80041d0:	a317      	add	r3, pc, #92	; (adr r3, 8004230 <__ieee754_atan2+0x198>)
 80041d2:	e9d3 2300 	ldrd	r2, r3, [r3]
 80041d6:	f7fc f803 	bl	80001e0 <__aeabi_dsub>
 80041da:	4602      	mov	r2, r0
 80041dc:	460b      	mov	r3, r1
 80041de:	a116      	add	r1, pc, #88	; (adr r1, 8004238 <__ieee754_atan2+0x1a0>)
 80041e0:	e9d1 0100 	ldrd	r0, r1, [r1]
 80041e4:	f7fb fffc 	bl	80001e0 <__aeabi_dsub>
 80041e8:	e777      	b.n	80040da <__ieee754_atan2+0x42>
 80041ea:	a117      	add	r1, pc, #92	; (adr r1, 8004248 <__ieee754_atan2+0x1b0>)
 80041ec:	e9d1 0100 	ldrd	r0, r1, [r1]
 80041f0:	e773      	b.n	80040da <__ieee754_atan2+0x42>
 80041f2:	a111      	add	r1, pc, #68	; (adr r1, 8004238 <__ieee754_atan2+0x1a0>)
 80041f4:	e9d1 0100 	ldrd	r0, r1, [r1]
 80041f8:	e76f      	b.n	80040da <__ieee754_atan2+0x42>
 80041fa:	a111      	add	r1, pc, #68	; (adr r1, 8004240 <__ieee754_atan2+0x1a8>)
 80041fc:	e9d1 0100 	ldrd	r0, r1, [r1]
 8004200:	e76b      	b.n	80040da <__ieee754_atan2+0x42>
 8004202:	bf00      	nop
 8004204:	f3af 8000 	nop.w
 8004208:	54442d18 	.word	0x54442d18
 800420c:	c00921fb 	.word	0xc00921fb
 8004210:	54442d18 	.word	0x54442d18
 8004214:	bff921fb 	.word	0xbff921fb
 8004218:	54442d18 	.word	0x54442d18
 800421c:	bfe921fb 	.word	0xbfe921fb
 8004220:	7f3321d2 	.word	0x7f3321d2
 8004224:	4002d97c 	.word	0x4002d97c
 8004228:	7f3321d2 	.word	0x7f3321d2
 800422c:	c002d97c 	.word	0xc002d97c
 8004230:	33145c07 	.word	0x33145c07
 8004234:	3ca1a626 	.word	0x3ca1a626
 8004238:	54442d18 	.word	0x54442d18
 800423c:	400921fb 	.word	0x400921fb
 8004240:	54442d18 	.word	0x54442d18
 8004244:	3ff921fb 	.word	0x3ff921fb
 8004248:	54442d18 	.word	0x54442d18
 800424c:	3fe921fb 	.word	0x3fe921fb
 8004250:	7ff00000 	.word	0x7ff00000
 8004254:	00000000 	.word	0x00000000

08004258 <__ieee754_pow>:
 8004258:	e92d 4ff0 	stmdb	sp!, {r4, r5, r6, r7, r8, r9, sl, fp, lr}
 800425c:	b091      	sub	sp, #68	; 0x44
 800425e:	ed8d 1b00 	vstr	d1, [sp]
 8004262:	e9dd 2900 	ldrd	r2, r9, [sp]
 8004266:	f029 4800 	bic.w	r8, r9, #2147483648	; 0x80000000
 800426a:	ea58 0302 	orrs.w	r3, r8, r2
 800426e:	ec57 6b10 	vmov	r6, r7, d0
 8004272:	f000 84be 	beq.w	8004bf2 <__ieee754_pow+0x99a>
 8004276:	4b7a      	ldr	r3, [pc, #488]	; (8004460 <__ieee754_pow+0x208>)
 8004278:	f027 4400 	bic.w	r4, r7, #2147483648	; 0x80000000
 800427c:	429c      	cmp	r4, r3
 800427e:	463d      	mov	r5, r7
 8004280:	ee10 aa10 	vmov	sl, s0
 8004284:	dc09      	bgt.n	800429a <__ieee754_pow+0x42>
 8004286:	d103      	bne.n	8004290 <__ieee754_pow+0x38>
 8004288:	b93e      	cbnz	r6, 800429a <__ieee754_pow+0x42>
 800428a:	45a0      	cmp	r8, r4
 800428c:	dc0d      	bgt.n	80042aa <__ieee754_pow+0x52>
 800428e:	e001      	b.n	8004294 <__ieee754_pow+0x3c>
 8004290:	4598      	cmp	r8, r3
 8004292:	dc02      	bgt.n	800429a <__ieee754_pow+0x42>
 8004294:	4598      	cmp	r8, r3
 8004296:	d10e      	bne.n	80042b6 <__ieee754_pow+0x5e>
 8004298:	b16a      	cbz	r2, 80042b6 <__ieee754_pow+0x5e>
 800429a:	f104 4440 	add.w	r4, r4, #3221225472	; 0xc0000000
 800429e:	f504 1480 	add.w	r4, r4, #1048576	; 0x100000
 80042a2:	ea54 030a 	orrs.w	r3, r4, sl
 80042a6:	f000 84a4 	beq.w	8004bf2 <__ieee754_pow+0x99a>
 80042aa:	486e      	ldr	r0, [pc, #440]	; (8004464 <__ieee754_pow+0x20c>)
 80042ac:	b011      	add	sp, #68	; 0x44
 80042ae:	e8bd 4ff0 	ldmia.w	sp!, {r4, r5, r6, r7, r8, r9, sl, fp, lr}
 80042b2:	f001 be85 	b.w	8005fc0 <nan>
 80042b6:	2d00      	cmp	r5, #0
 80042b8:	da53      	bge.n	8004362 <__ieee754_pow+0x10a>
 80042ba:	4b6b      	ldr	r3, [pc, #428]	; (8004468 <__ieee754_pow+0x210>)
 80042bc:	4598      	cmp	r8, r3
 80042be:	dc4d      	bgt.n	800435c <__ieee754_pow+0x104>
 80042c0:	f1a3 7354 	sub.w	r3, r3, #55574528	; 0x3500000
 80042c4:	4598      	cmp	r8, r3
 80042c6:	dd4c      	ble.n	8004362 <__ieee754_pow+0x10a>
 80042c8:	ea4f 5328 	mov.w	r3, r8, asr #20
 80042cc:	f2a3 33ff 	subw	r3, r3, #1023	; 0x3ff
 80042d0:	2b14      	cmp	r3, #20
 80042d2:	dd26      	ble.n	8004322 <__ieee754_pow+0xca>
 80042d4:	f1c3 0334 	rsb	r3, r3, #52	; 0x34
 80042d8:	fa22 f103 	lsr.w	r1, r2, r3
 80042dc:	fa01 f303 	lsl.w	r3, r1, r3
 80042e0:	4293      	cmp	r3, r2
 80042e2:	d13e      	bne.n	8004362 <__ieee754_pow+0x10a>
 80042e4:	f001 0101 	and.w	r1, r1, #1
 80042e8:	f1c1 0b02 	rsb	fp, r1, #2
 80042ec:	2a00      	cmp	r2, #0
 80042ee:	d15b      	bne.n	80043a8 <__ieee754_pow+0x150>
 80042f0:	4b5b      	ldr	r3, [pc, #364]	; (8004460 <__ieee754_pow+0x208>)
 80042f2:	4598      	cmp	r8, r3
 80042f4:	d124      	bne.n	8004340 <__ieee754_pow+0xe8>
 80042f6:	f104 4340 	add.w	r3, r4, #3221225472	; 0xc0000000
 80042fa:	f503 1380 	add.w	r3, r3, #1048576	; 0x100000
 80042fe:	ea53 030a 	orrs.w	r3, r3, sl
 8004302:	f000 8476 	beq.w	8004bf2 <__ieee754_pow+0x99a>
 8004306:	4b59      	ldr	r3, [pc, #356]	; (800446c <__ieee754_pow+0x214>)
 8004308:	429c      	cmp	r4, r3
 800430a:	dd2d      	ble.n	8004368 <__ieee754_pow+0x110>
 800430c:	f1b9 0f00 	cmp.w	r9, #0
 8004310:	f280 8473 	bge.w	8004bfa <__ieee754_pow+0x9a2>
 8004314:	2000      	movs	r0, #0
 8004316:	2100      	movs	r1, #0
 8004318:	ec41 0b10 	vmov	d0, r0, r1
 800431c:	b011      	add	sp, #68	; 0x44
 800431e:	e8bd 8ff0 	ldmia.w	sp!, {r4, r5, r6, r7, r8, r9, sl, fp, pc}
 8004322:	2a00      	cmp	r2, #0
 8004324:	d13e      	bne.n	80043a4 <__ieee754_pow+0x14c>
 8004326:	f1c3 0314 	rsb	r3, r3, #20
 800432a:	fa48 f103 	asr.w	r1, r8, r3
 800432e:	fa01 f303 	lsl.w	r3, r1, r3
 8004332:	4543      	cmp	r3, r8
 8004334:	f040 8469 	bne.w	8004c0a <__ieee754_pow+0x9b2>
 8004338:	f001 0101 	and.w	r1, r1, #1
 800433c:	f1c1 0b02 	rsb	fp, r1, #2
 8004340:	4b4b      	ldr	r3, [pc, #300]	; (8004470 <__ieee754_pow+0x218>)
 8004342:	4598      	cmp	r8, r3
 8004344:	d118      	bne.n	8004378 <__ieee754_pow+0x120>
 8004346:	f1b9 0f00 	cmp.w	r9, #0
 800434a:	f280 845a 	bge.w	8004c02 <__ieee754_pow+0x9aa>
 800434e:	4948      	ldr	r1, [pc, #288]	; (8004470 <__ieee754_pow+0x218>)
 8004350:	4632      	mov	r2, r6
 8004352:	463b      	mov	r3, r7
 8004354:	2000      	movs	r0, #0
 8004356:	f7fc fa25 	bl	80007a4 <__aeabi_ddiv>
 800435a:	e7dd      	b.n	8004318 <__ieee754_pow+0xc0>
 800435c:	f04f 0b02 	mov.w	fp, #2
 8004360:	e7c4      	b.n	80042ec <__ieee754_pow+0x94>
 8004362:	f04f 0b00 	mov.w	fp, #0
 8004366:	e7c1      	b.n	80042ec <__ieee754_pow+0x94>
 8004368:	f1b9 0f00 	cmp.w	r9, #0
 800436c:	dad2      	bge.n	8004314 <__ieee754_pow+0xbc>
 800436e:	e9dd 0300 	ldrd	r0, r3, [sp]
 8004372:	f103 4100 	add.w	r1, r3, #2147483648	; 0x80000000
 8004376:	e7cf      	b.n	8004318 <__ieee754_pow+0xc0>
 8004378:	f1b9 4f80 	cmp.w	r9, #1073741824	; 0x40000000
 800437c:	d106      	bne.n	800438c <__ieee754_pow+0x134>
 800437e:	4632      	mov	r2, r6
 8004380:	463b      	mov	r3, r7
 8004382:	4610      	mov	r0, r2
 8004384:	4619      	mov	r1, r3
 8004386:	f7fc f8e3 	bl	8000550 <__aeabi_dmul>
 800438a:	e7c5      	b.n	8004318 <__ieee754_pow+0xc0>
 800438c:	4b39      	ldr	r3, [pc, #228]	; (8004474 <__ieee754_pow+0x21c>)
 800438e:	4599      	cmp	r9, r3
 8004390:	d10a      	bne.n	80043a8 <__ieee754_pow+0x150>
 8004392:	2d00      	cmp	r5, #0
 8004394:	db08      	blt.n	80043a8 <__ieee754_pow+0x150>
 8004396:	ec47 6b10 	vmov	d0, r6, r7
 800439a:	b011      	add	sp, #68	; 0x44
 800439c:	e8bd 4ff0 	ldmia.w	sp!, {r4, r5, r6, r7, r8, r9, sl, fp, lr}
 80043a0:	f000 be5c 	b.w	800505c <__ieee754_sqrt>
 80043a4:	f04f 0b00 	mov.w	fp, #0
 80043a8:	ec47 6b10 	vmov	d0, r6, r7
 80043ac:	f001 fd6c 	bl	8005e88 <fabs>
 80043b0:	ec51 0b10 	vmov	r0, r1, d0
 80043b4:	f1ba 0f00 	cmp.w	sl, #0
 80043b8:	d127      	bne.n	800440a <__ieee754_pow+0x1b2>
 80043ba:	b124      	cbz	r4, 80043c6 <__ieee754_pow+0x16e>
 80043bc:	4b2c      	ldr	r3, [pc, #176]	; (8004470 <__ieee754_pow+0x218>)
 80043be:	f025 4240 	bic.w	r2, r5, #3221225472	; 0xc0000000
 80043c2:	429a      	cmp	r2, r3
 80043c4:	d121      	bne.n	800440a <__ieee754_pow+0x1b2>
 80043c6:	f1b9 0f00 	cmp.w	r9, #0
 80043ca:	da05      	bge.n	80043d8 <__ieee754_pow+0x180>
 80043cc:	4602      	mov	r2, r0
 80043ce:	460b      	mov	r3, r1
 80043d0:	2000      	movs	r0, #0
 80043d2:	4927      	ldr	r1, [pc, #156]	; (8004470 <__ieee754_pow+0x218>)
 80043d4:	f7fc f9e6 	bl	80007a4 <__aeabi_ddiv>
 80043d8:	2d00      	cmp	r5, #0
 80043da:	da9d      	bge.n	8004318 <__ieee754_pow+0xc0>
 80043dc:	f104 4440 	add.w	r4, r4, #3221225472	; 0xc0000000
 80043e0:	f504 1480 	add.w	r4, r4, #1048576	; 0x100000
 80043e4:	ea54 030b 	orrs.w	r3, r4, fp
 80043e8:	d108      	bne.n	80043fc <__ieee754_pow+0x1a4>
 80043ea:	4602      	mov	r2, r0
 80043ec:	460b      	mov	r3, r1
 80043ee:	4610      	mov	r0, r2
 80043f0:	4619      	mov	r1, r3
 80043f2:	f7fb fef5 	bl	80001e0 <__aeabi_dsub>
 80043f6:	4602      	mov	r2, r0
 80043f8:	460b      	mov	r3, r1
 80043fa:	e7ac      	b.n	8004356 <__ieee754_pow+0xfe>
 80043fc:	f1bb 0f01 	cmp.w	fp, #1
 8004400:	d18a      	bne.n	8004318 <__ieee754_pow+0xc0>
 8004402:	f101 4300 	add.w	r3, r1, #2147483648	; 0x80000000
 8004406:	4619      	mov	r1, r3
 8004408:	e786      	b.n	8004318 <__ieee754_pow+0xc0>
 800440a:	0fed      	lsrs	r5, r5, #31
 800440c:	1e6b      	subs	r3, r5, #1
 800440e:	930d      	str	r3, [sp, #52]	; 0x34
 8004410:	ea5b 0303 	orrs.w	r3, fp, r3
 8004414:	d102      	bne.n	800441c <__ieee754_pow+0x1c4>
 8004416:	4632      	mov	r2, r6
 8004418:	463b      	mov	r3, r7
 800441a:	e7e8      	b.n	80043ee <__ieee754_pow+0x196>
 800441c:	4b16      	ldr	r3, [pc, #88]	; (8004478 <__ieee754_pow+0x220>)
 800441e:	4598      	cmp	r8, r3
 8004420:	f340 80fe 	ble.w	8004620 <__ieee754_pow+0x3c8>
 8004424:	f103 7304 	add.w	r3, r3, #34603008	; 0x2100000
 8004428:	4598      	cmp	r8, r3
 800442a:	dd0a      	ble.n	8004442 <__ieee754_pow+0x1ea>
 800442c:	4b0f      	ldr	r3, [pc, #60]	; (800446c <__ieee754_pow+0x214>)
 800442e:	429c      	cmp	r4, r3
 8004430:	dc0d      	bgt.n	800444e <__ieee754_pow+0x1f6>
 8004432:	f1b9 0f00 	cmp.w	r9, #0
 8004436:	f6bf af6d 	bge.w	8004314 <__ieee754_pow+0xbc>
 800443a:	a307      	add	r3, pc, #28	; (adr r3, 8004458 <__ieee754_pow+0x200>)
 800443c:	e9d3 2300 	ldrd	r2, r3, [r3]
 8004440:	e79f      	b.n	8004382 <__ieee754_pow+0x12a>
 8004442:	4b0e      	ldr	r3, [pc, #56]	; (800447c <__ieee754_pow+0x224>)
 8004444:	429c      	cmp	r4, r3
 8004446:	ddf4      	ble.n	8004432 <__ieee754_pow+0x1da>
 8004448:	4b09      	ldr	r3, [pc, #36]	; (8004470 <__ieee754_pow+0x218>)
 800444a:	429c      	cmp	r4, r3
 800444c:	dd18      	ble.n	8004480 <__ieee754_pow+0x228>
 800444e:	f1b9 0f00 	cmp.w	r9, #0
 8004452:	dcf2      	bgt.n	800443a <__ieee754_pow+0x1e2>
 8004454:	e75e      	b.n	8004314 <__ieee754_pow+0xbc>
 8004456:	bf00      	nop
 8004458:	8800759c 	.word	0x8800759c
 800445c:	7e37e43c 	.word	0x7e37e43c
 8004460:	7ff00000 	.word	0x7ff00000
 8004464:	08006218 	.word	0x08006218
 8004468:	433fffff 	.word	0x433fffff
 800446c:	3fefffff 	.word	0x3fefffff
 8004470:	3ff00000 	.word	0x3ff00000
 8004474:	3fe00000 	.word	0x3fe00000
 8004478:	41e00000 	.word	0x41e00000
 800447c:	3feffffe 	.word	0x3feffffe
 8004480:	2200      	movs	r2, #0
 8004482:	4b63      	ldr	r3, [pc, #396]	; (8004610 <__ieee754_pow+0x3b8>)
 8004484:	f7fb feac 	bl	80001e0 <__aeabi_dsub>
 8004488:	a355      	add	r3, pc, #340	; (adr r3, 80045e0 <__ieee754_pow+0x388>)
 800448a:	e9d3 2300 	ldrd	r2, r3, [r3]
 800448e:	4604      	mov	r4, r0
 8004490:	460d      	mov	r5, r1
 8004492:	f7fc f85d 	bl	8000550 <__aeabi_dmul>
 8004496:	a354      	add	r3, pc, #336	; (adr r3, 80045e8 <__ieee754_pow+0x390>)
 8004498:	e9d3 2300 	ldrd	r2, r3, [r3]
 800449c:	4606      	mov	r6, r0
 800449e:	460f      	mov	r7, r1
 80044a0:	4620      	mov	r0, r4
 80044a2:	4629      	mov	r1, r5
 80044a4:	f7fc f854 	bl	8000550 <__aeabi_dmul>
 80044a8:	2200      	movs	r2, #0
 80044aa:	e9cd 0102 	strd	r0, r1, [sp, #8]
 80044ae:	4b59      	ldr	r3, [pc, #356]	; (8004614 <__ieee754_pow+0x3bc>)
 80044b0:	4620      	mov	r0, r4
 80044b2:	4629      	mov	r1, r5
 80044b4:	f7fc f84c 	bl	8000550 <__aeabi_dmul>
 80044b8:	4602      	mov	r2, r0
 80044ba:	460b      	mov	r3, r1
 80044bc:	a14c      	add	r1, pc, #304	; (adr r1, 80045f0 <__ieee754_pow+0x398>)
 80044be:	e9d1 0100 	ldrd	r0, r1, [r1]
 80044c2:	f7fb fe8d 	bl	80001e0 <__aeabi_dsub>
 80044c6:	4622      	mov	r2, r4
 80044c8:	462b      	mov	r3, r5
 80044ca:	f7fc f841 	bl	8000550 <__aeabi_dmul>
 80044ce:	4602      	mov	r2, r0
 80044d0:	460b      	mov	r3, r1
 80044d2:	2000      	movs	r0, #0
 80044d4:	4950      	ldr	r1, [pc, #320]	; (8004618 <__ieee754_pow+0x3c0>)
 80044d6:	f7fb fe83 	bl	80001e0 <__aeabi_dsub>
 80044da:	4622      	mov	r2, r4
 80044dc:	462b      	mov	r3, r5
 80044de:	4680      	mov	r8, r0
 80044e0:	4689      	mov	r9, r1
 80044e2:	4620      	mov	r0, r4
 80044e4:	4629      	mov	r1, r5
 80044e6:	f7fc f833 	bl	8000550 <__aeabi_dmul>
 80044ea:	4602      	mov	r2, r0
 80044ec:	460b      	mov	r3, r1
 80044ee:	4640      	mov	r0, r8
 80044f0:	4649      	mov	r1, r9
 80044f2:	f7fc f82d 	bl	8000550 <__aeabi_dmul>
 80044f6:	a340      	add	r3, pc, #256	; (adr r3, 80045f8 <__ieee754_pow+0x3a0>)
 80044f8:	e9d3 2300 	ldrd	r2, r3, [r3]
 80044fc:	f7fc f828 	bl	8000550 <__aeabi_dmul>
 8004500:	4602      	mov	r2, r0
 8004502:	460b      	mov	r3, r1
 8004504:	e9dd 0102 	ldrd	r0, r1, [sp, #8]
 8004508:	f7fb fe6a 	bl	80001e0 <__aeabi_dsub>
 800450c:	4602      	mov	r2, r0
 800450e:	460b      	mov	r3, r1
 8004510:	4604      	mov	r4, r0
 8004512:	460d      	mov	r5, r1
 8004514:	4630      	mov	r0, r6
 8004516:	4639      	mov	r1, r7
 8004518:	f7fb fe64 	bl	80001e4 <__adddf3>
 800451c:	2000      	movs	r0, #0
 800451e:	e9cd 0104 	strd	r0, r1, [sp, #16]
 8004522:	4632      	mov	r2, r6
 8004524:	463b      	mov	r3, r7
 8004526:	f7fb fe5b 	bl	80001e0 <__aeabi_dsub>
 800452a:	4602      	mov	r2, r0
 800452c:	460b      	mov	r3, r1
 800452e:	4620      	mov	r0, r4
 8004530:	4629      	mov	r1, r5
 8004532:	f7fb fe55 	bl	80001e0 <__aeabi_dsub>
 8004536:	9a0d      	ldr	r2, [sp, #52]	; 0x34
 8004538:	f10b 33ff 	add.w	r3, fp, #4294967295
 800453c:	4313      	orrs	r3, r2
 800453e:	4606      	mov	r6, r0
 8004540:	460f      	mov	r7, r1
 8004542:	f040 81eb 	bne.w	800491c <__ieee754_pow+0x6c4>
 8004546:	ed9f 7b2e 	vldr	d7, [pc, #184]	; 8004600 <__ieee754_pow+0x3a8>
 800454a:	e9dd 4500 	ldrd	r4, r5, [sp]
 800454e:	2400      	movs	r4, #0
 8004550:	4622      	mov	r2, r4
 8004552:	462b      	mov	r3, r5
 8004554:	e9dd 0100 	ldrd	r0, r1, [sp]
 8004558:	ed8d 7b02 	vstr	d7, [sp, #8]
 800455c:	f7fb fe40 	bl	80001e0 <__aeabi_dsub>
 8004560:	e9dd 2304 	ldrd	r2, r3, [sp, #16]
 8004564:	f7fb fff4 	bl	8000550 <__aeabi_dmul>
 8004568:	e9dd 2300 	ldrd	r2, r3, [sp]
 800456c:	4680      	mov	r8, r0
 800456e:	4689      	mov	r9, r1
 8004570:	4630      	mov	r0, r6
 8004572:	4639      	mov	r1, r7
 8004574:	f7fb ffec 	bl	8000550 <__aeabi_dmul>
 8004578:	4602      	mov	r2, r0
 800457a:	460b      	mov	r3, r1
 800457c:	4640      	mov	r0, r8
 800457e:	4649      	mov	r1, r9
 8004580:	f7fb fe30 	bl	80001e4 <__adddf3>
 8004584:	4622      	mov	r2, r4
 8004586:	462b      	mov	r3, r5
 8004588:	4680      	mov	r8, r0
 800458a:	4689      	mov	r9, r1
 800458c:	e9dd 0104 	ldrd	r0, r1, [sp, #16]
 8004590:	f7fb ffde 	bl	8000550 <__aeabi_dmul>
 8004594:	460b      	mov	r3, r1
 8004596:	4604      	mov	r4, r0
 8004598:	460d      	mov	r5, r1
 800459a:	4602      	mov	r2, r0
 800459c:	4649      	mov	r1, r9
 800459e:	4640      	mov	r0, r8
 80045a0:	e9cd 4500 	strd	r4, r5, [sp]
 80045a4:	f7fb fe1e 	bl	80001e4 <__adddf3>
 80045a8:	4b1c      	ldr	r3, [pc, #112]	; (800461c <__ieee754_pow+0x3c4>)
 80045aa:	4299      	cmp	r1, r3
 80045ac:	4606      	mov	r6, r0
 80045ae:	460f      	mov	r7, r1
 80045b0:	468b      	mov	fp, r1
 80045b2:	f340 82f7 	ble.w	8004ba4 <__ieee754_pow+0x94c>
 80045b6:	f101 433f 	add.w	r3, r1, #3204448256	; 0xbf000000
 80045ba:	f503 03e0 	add.w	r3, r3, #7340032	; 0x700000
 80045be:	4303      	orrs	r3, r0
 80045c0:	f000 81ea 	beq.w	8004998 <__ieee754_pow+0x740>
 80045c4:	a310      	add	r3, pc, #64	; (adr r3, 8004608 <__ieee754_pow+0x3b0>)
 80045c6:	e9d3 2300 	ldrd	r2, r3, [r3]
 80045ca:	e9dd 0102 	ldrd	r0, r1, [sp, #8]
 80045ce:	f7fb ffbf 	bl	8000550 <__aeabi_dmul>
 80045d2:	a30d      	add	r3, pc, #52	; (adr r3, 8004608 <__ieee754_pow+0x3b0>)
 80045d4:	e9d3 2300 	ldrd	r2, r3, [r3]
 80045d8:	e6d5      	b.n	8004386 <__ieee754_pow+0x12e>
 80045da:	bf00      	nop
 80045dc:	f3af 8000 	nop.w
 80045e0:	60000000 	.word	0x60000000
 80045e4:	3ff71547 	.word	0x3ff71547
 80045e8:	f85ddf44 	.word	0xf85ddf44
 80045ec:	3e54ae0b 	.word	0x3e54ae0b
 80045f0:	55555555 	.word	0x55555555
 80045f4:	3fd55555 	.word	0x3fd55555
 80045f8:	652b82fe 	.word	0x652b82fe
 80045fc:	3ff71547 	.word	0x3ff71547
 8004600:	00000000 	.word	0x00000000
 8004604:	bff00000 	.word	0xbff00000
 8004608:	8800759c 	.word	0x8800759c
 800460c:	7e37e43c 	.word	0x7e37e43c
 8004610:	3ff00000 	.word	0x3ff00000
 8004614:	3fd00000 	.word	0x3fd00000
 8004618:	3fe00000 	.word	0x3fe00000
 800461c:	408fffff 	.word	0x408fffff
 8004620:	f5b4 1f80 	cmp.w	r4, #1048576	; 0x100000
 8004624:	f04f 0200 	mov.w	r2, #0
 8004628:	da05      	bge.n	8004636 <__ieee754_pow+0x3de>
 800462a:	4bd3      	ldr	r3, [pc, #844]	; (8004978 <__ieee754_pow+0x720>)
 800462c:	f7fb ff90 	bl	8000550 <__aeabi_dmul>
 8004630:	f06f 0234 	mvn.w	r2, #52	; 0x34
 8004634:	460c      	mov	r4, r1
 8004636:	1523      	asrs	r3, r4, #20
 8004638:	f2a3 33ff 	subw	r3, r3, #1023	; 0x3ff
 800463c:	4413      	add	r3, r2
 800463e:	9309      	str	r3, [sp, #36]	; 0x24
 8004640:	4bce      	ldr	r3, [pc, #824]	; (800497c <__ieee754_pow+0x724>)
 8004642:	f3c4 0413 	ubfx	r4, r4, #0, #20
 8004646:	f044 557f 	orr.w	r5, r4, #1069547520	; 0x3fc00000
 800464a:	429c      	cmp	r4, r3
 800464c:	f445 1540 	orr.w	r5, r5, #3145728	; 0x300000
 8004650:	dd08      	ble.n	8004664 <__ieee754_pow+0x40c>
 8004652:	4bcb      	ldr	r3, [pc, #812]	; (8004980 <__ieee754_pow+0x728>)
 8004654:	429c      	cmp	r4, r3
 8004656:	f340 815e 	ble.w	8004916 <__ieee754_pow+0x6be>
 800465a:	9b09      	ldr	r3, [sp, #36]	; 0x24
 800465c:	3301      	adds	r3, #1
 800465e:	9309      	str	r3, [sp, #36]	; 0x24
 8004660:	f5a5 1580 	sub.w	r5, r5, #1048576	; 0x100000
 8004664:	f04f 0a00 	mov.w	sl, #0
 8004668:	ea4f 03ca 	mov.w	r3, sl, lsl #3
 800466c:	930c      	str	r3, [sp, #48]	; 0x30
 800466e:	9a0c      	ldr	r2, [sp, #48]	; 0x30
 8004670:	4bc4      	ldr	r3, [pc, #784]	; (8004984 <__ieee754_pow+0x72c>)
 8004672:	4413      	add	r3, r2
 8004674:	ed93 7b00 	vldr	d7, [r3]
 8004678:	4629      	mov	r1, r5
 800467a:	ec53 2b17 	vmov	r2, r3, d7
 800467e:	ed8d 7b06 	vstr	d7, [sp, #24]
 8004682:	e9cd 010a 	strd	r0, r1, [sp, #40]	; 0x28
 8004686:	f7fb fdab 	bl	80001e0 <__aeabi_dsub>
 800468a:	e9dd 230a 	ldrd	r2, r3, [sp, #40]	; 0x28
 800468e:	4606      	mov	r6, r0
 8004690:	460f      	mov	r7, r1
 8004692:	e9dd 0106 	ldrd	r0, r1, [sp, #24]
 8004696:	f7fb fda5 	bl	80001e4 <__adddf3>
 800469a:	4602      	mov	r2, r0
 800469c:	460b      	mov	r3, r1
 800469e:	2000      	movs	r0, #0
 80046a0:	49b9      	ldr	r1, [pc, #740]	; (8004988 <__ieee754_pow+0x730>)
 80046a2:	f7fc f87f 	bl	80007a4 <__aeabi_ddiv>
 80046a6:	e9cd 010e 	strd	r0, r1, [sp, #56]	; 0x38
 80046aa:	4602      	mov	r2, r0
 80046ac:	460b      	mov	r3, r1
 80046ae:	4630      	mov	r0, r6
 80046b0:	4639      	mov	r1, r7
 80046b2:	f7fb ff4d 	bl	8000550 <__aeabi_dmul>
 80046b6:	e9cd 0104 	strd	r0, r1, [sp, #16]
 80046ba:	e9dd 3404 	ldrd	r3, r4, [sp, #16]
 80046be:	e9cd 3402 	strd	r3, r4, [sp, #8]
 80046c2:	2300      	movs	r3, #0
 80046c4:	9302      	str	r3, [sp, #8]
 80046c6:	e9dd 8902 	ldrd	r8, r9, [sp, #8]
 80046ca:	106d      	asrs	r5, r5, #1
 80046cc:	f045 5500 	orr.w	r5, r5, #536870912	; 0x20000000
 80046d0:	f505 2500 	add.w	r5, r5, #524288	; 0x80000
 80046d4:	2200      	movs	r2, #0
 80046d6:	eb05 438a 	add.w	r3, r5, sl, lsl #18
 80046da:	4640      	mov	r0, r8
 80046dc:	4649      	mov	r1, r9
 80046de:	4614      	mov	r4, r2
 80046e0:	461d      	mov	r5, r3
 80046e2:	f7fb ff35 	bl	8000550 <__aeabi_dmul>
 80046e6:	4602      	mov	r2, r0
 80046e8:	460b      	mov	r3, r1
 80046ea:	4630      	mov	r0, r6
 80046ec:	4639      	mov	r1, r7
 80046ee:	f7fb fd77 	bl	80001e0 <__aeabi_dsub>
 80046f2:	e9dd 2306 	ldrd	r2, r3, [sp, #24]
 80046f6:	4606      	mov	r6, r0
 80046f8:	460f      	mov	r7, r1
 80046fa:	4620      	mov	r0, r4
 80046fc:	4629      	mov	r1, r5
 80046fe:	f7fb fd6f 	bl	80001e0 <__aeabi_dsub>
 8004702:	4602      	mov	r2, r0
 8004704:	460b      	mov	r3, r1
 8004706:	e9dd 010a 	ldrd	r0, r1, [sp, #40]	; 0x28
 800470a:	f7fb fd69 	bl	80001e0 <__aeabi_dsub>
 800470e:	4642      	mov	r2, r8
 8004710:	464b      	mov	r3, r9
 8004712:	f7fb ff1d 	bl	8000550 <__aeabi_dmul>
 8004716:	4602      	mov	r2, r0
 8004718:	460b      	mov	r3, r1
 800471a:	4630      	mov	r0, r6
 800471c:	4639      	mov	r1, r7
 800471e:	f7fb fd5f 	bl	80001e0 <__aeabi_dsub>
 8004722:	e9dd 230e 	ldrd	r2, r3, [sp, #56]	; 0x38
 8004726:	f7fb ff13 	bl	8000550 <__aeabi_dmul>
 800472a:	e9dd 2304 	ldrd	r2, r3, [sp, #16]
 800472e:	e9cd 0106 	strd	r0, r1, [sp, #24]
 8004732:	4610      	mov	r0, r2
 8004734:	4619      	mov	r1, r3
 8004736:	f7fb ff0b 	bl	8000550 <__aeabi_dmul>
 800473a:	a37b      	add	r3, pc, #492	; (adr r3, 8004928 <__ieee754_pow+0x6d0>)
 800473c:	e9d3 2300 	ldrd	r2, r3, [r3]
 8004740:	4604      	mov	r4, r0
 8004742:	460d      	mov	r5, r1
 8004744:	f7fb ff04 	bl	8000550 <__aeabi_dmul>
 8004748:	a379      	add	r3, pc, #484	; (adr r3, 8004930 <__ieee754_pow+0x6d8>)
 800474a:	e9d3 2300 	ldrd	r2, r3, [r3]
 800474e:	f7fb fd49 	bl	80001e4 <__adddf3>
 8004752:	4622      	mov	r2, r4
 8004754:	462b      	mov	r3, r5
 8004756:	f7fb fefb 	bl	8000550 <__aeabi_dmul>
 800475a:	a377      	add	r3, pc, #476	; (adr r3, 8004938 <__ieee754_pow+0x6e0>)
 800475c:	e9d3 2300 	ldrd	r2, r3, [r3]
 8004760:	f7fb fd40 	bl	80001e4 <__adddf3>
 8004764:	4622      	mov	r2, r4
 8004766:	462b      	mov	r3, r5
 8004768:	f7fb fef2 	bl	8000550 <__aeabi_dmul>
 800476c:	a374      	add	r3, pc, #464	; (adr r3, 8004940 <__ieee754_pow+0x6e8>)
 800476e:	e9d3 2300 	ldrd	r2, r3, [r3]
 8004772:	f7fb fd37 	bl	80001e4 <__adddf3>
 8004776:	4622      	mov	r2, r4
 8004778:	462b      	mov	r3, r5
 800477a:	f7fb fee9 	bl	8000550 <__aeabi_dmul>
 800477e:	a372      	add	r3, pc, #456	; (adr r3, 8004948 <__ieee754_pow+0x6f0>)
 8004780:	e9d3 2300 	ldrd	r2, r3, [r3]
 8004784:	f7fb fd2e 	bl	80001e4 <__adddf3>
 8004788:	4622      	mov	r2, r4
 800478a:	462b      	mov	r3, r5
 800478c:	f7fb fee0 	bl	8000550 <__aeabi_dmul>
 8004790:	a36f      	add	r3, pc, #444	; (adr r3, 8004950 <__ieee754_pow+0x6f8>)
 8004792:	e9d3 2300 	ldrd	r2, r3, [r3]
 8004796:	f7fb fd25 	bl	80001e4 <__adddf3>
 800479a:	4622      	mov	r2, r4
 800479c:	4606      	mov	r6, r0
 800479e:	460f      	mov	r7, r1
 80047a0:	462b      	mov	r3, r5
 80047a2:	4620      	mov	r0, r4
 80047a4:	4629      	mov	r1, r5
 80047a6:	f7fb fed3 	bl	8000550 <__aeabi_dmul>
 80047aa:	4602      	mov	r2, r0
 80047ac:	460b      	mov	r3, r1
 80047ae:	4630      	mov	r0, r6
 80047b0:	4639      	mov	r1, r7
 80047b2:	f7fb fecd 	bl	8000550 <__aeabi_dmul>
 80047b6:	4642      	mov	r2, r8
 80047b8:	4604      	mov	r4, r0
 80047ba:	460d      	mov	r5, r1
 80047bc:	464b      	mov	r3, r9
 80047be:	e9dd 0104 	ldrd	r0, r1, [sp, #16]
 80047c2:	f7fb fd0f 	bl	80001e4 <__adddf3>
 80047c6:	e9dd 2306 	ldrd	r2, r3, [sp, #24]
 80047ca:	f7fb fec1 	bl	8000550 <__aeabi_dmul>
 80047ce:	4622      	mov	r2, r4
 80047d0:	462b      	mov	r3, r5
 80047d2:	f7fb fd07 	bl	80001e4 <__adddf3>
 80047d6:	4642      	mov	r2, r8
 80047d8:	4606      	mov	r6, r0
 80047da:	460f      	mov	r7, r1
 80047dc:	464b      	mov	r3, r9
 80047de:	4640      	mov	r0, r8
 80047e0:	4649      	mov	r1, r9
 80047e2:	f7fb feb5 	bl	8000550 <__aeabi_dmul>
 80047e6:	2200      	movs	r2, #0
 80047e8:	4b68      	ldr	r3, [pc, #416]	; (800498c <__ieee754_pow+0x734>)
 80047ea:	e9cd 010a 	strd	r0, r1, [sp, #40]	; 0x28
 80047ee:	f7fb fcf9 	bl	80001e4 <__adddf3>
 80047f2:	4632      	mov	r2, r6
 80047f4:	463b      	mov	r3, r7
 80047f6:	f7fb fcf5 	bl	80001e4 <__adddf3>
 80047fa:	9802      	ldr	r0, [sp, #8]
 80047fc:	460d      	mov	r5, r1
 80047fe:	4604      	mov	r4, r0
 8004800:	4602      	mov	r2, r0
 8004802:	460b      	mov	r3, r1
 8004804:	4640      	mov	r0, r8
 8004806:	4649      	mov	r1, r9
 8004808:	f7fb fea2 	bl	8000550 <__aeabi_dmul>
 800480c:	2200      	movs	r2, #0
 800480e:	4680      	mov	r8, r0
 8004810:	4689      	mov	r9, r1
 8004812:	4b5e      	ldr	r3, [pc, #376]	; (800498c <__ieee754_pow+0x734>)
 8004814:	4620      	mov	r0, r4
 8004816:	4629      	mov	r1, r5
 8004818:	f7fb fce2 	bl	80001e0 <__aeabi_dsub>
 800481c:	e9dd 230a 	ldrd	r2, r3, [sp, #40]	; 0x28
 8004820:	f7fb fcde 	bl	80001e0 <__aeabi_dsub>
 8004824:	4602      	mov	r2, r0
 8004826:	460b      	mov	r3, r1
 8004828:	4630      	mov	r0, r6
 800482a:	4639      	mov	r1, r7
 800482c:	f7fb fcd8 	bl	80001e0 <__aeabi_dsub>
 8004830:	e9dd 2304 	ldrd	r2, r3, [sp, #16]
 8004834:	f7fb fe8c 	bl	8000550 <__aeabi_dmul>
 8004838:	4622      	mov	r2, r4
 800483a:	4606      	mov	r6, r0
 800483c:	460f      	mov	r7, r1
 800483e:	462b      	mov	r3, r5
 8004840:	e9dd 0106 	ldrd	r0, r1, [sp, #24]
 8004844:	f7fb fe84 	bl	8000550 <__aeabi_dmul>
 8004848:	4602      	mov	r2, r0
 800484a:	460b      	mov	r3, r1
 800484c:	4630      	mov	r0, r6
 800484e:	4639      	mov	r1, r7
 8004850:	f7fb fcc8 	bl	80001e4 <__adddf3>
 8004854:	4606      	mov	r6, r0
 8004856:	460f      	mov	r7, r1
 8004858:	4602      	mov	r2, r0
 800485a:	460b      	mov	r3, r1
 800485c:	4640      	mov	r0, r8
 800485e:	4649      	mov	r1, r9
 8004860:	f7fb fcc0 	bl	80001e4 <__adddf3>
 8004864:	9802      	ldr	r0, [sp, #8]
 8004866:	a33c      	add	r3, pc, #240	; (adr r3, 8004958 <__ieee754_pow+0x700>)
 8004868:	e9d3 2300 	ldrd	r2, r3, [r3]
 800486c:	4604      	mov	r4, r0
 800486e:	460d      	mov	r5, r1
 8004870:	f7fb fe6e 	bl	8000550 <__aeabi_dmul>
 8004874:	4642      	mov	r2, r8
 8004876:	e9cd 0106 	strd	r0, r1, [sp, #24]
 800487a:	464b      	mov	r3, r9
 800487c:	4620      	mov	r0, r4
 800487e:	4629      	mov	r1, r5
 8004880:	f7fb fcae 	bl	80001e0 <__aeabi_dsub>
 8004884:	4602      	mov	r2, r0
 8004886:	460b      	mov	r3, r1
 8004888:	4630      	mov	r0, r6
 800488a:	4639      	mov	r1, r7
 800488c:	f7fb fca8 	bl	80001e0 <__aeabi_dsub>
 8004890:	a333      	add	r3, pc, #204	; (adr r3, 8004960 <__ieee754_pow+0x708>)
 8004892:	e9d3 2300 	ldrd	r2, r3, [r3]
 8004896:	f7fb fe5b 	bl	8000550 <__aeabi_dmul>
 800489a:	a333      	add	r3, pc, #204	; (adr r3, 8004968 <__ieee754_pow+0x710>)
 800489c:	e9d3 2300 	ldrd	r2, r3, [r3]
 80048a0:	4606      	mov	r6, r0
 80048a2:	460f      	mov	r7, r1
 80048a4:	4620      	mov	r0, r4
 80048a6:	4629      	mov	r1, r5
 80048a8:	f7fb fe52 	bl	8000550 <__aeabi_dmul>
 80048ac:	4602      	mov	r2, r0
 80048ae:	460b      	mov	r3, r1
 80048b0:	4630      	mov	r0, r6
 80048b2:	4639      	mov	r1, r7
 80048b4:	f7fb fc96 	bl	80001e4 <__adddf3>
 80048b8:	9a0c      	ldr	r2, [sp, #48]	; 0x30
 80048ba:	4b35      	ldr	r3, [pc, #212]	; (8004990 <__ieee754_pow+0x738>)
 80048bc:	4413      	add	r3, r2
 80048be:	e9d3 2300 	ldrd	r2, r3, [r3]
 80048c2:	f7fb fc8f 	bl	80001e4 <__adddf3>
 80048c6:	4604      	mov	r4, r0
 80048c8:	9809      	ldr	r0, [sp, #36]	; 0x24
 80048ca:	460d      	mov	r5, r1
 80048cc:	f7fb fdd6 	bl	800047c <__aeabi_i2d>
 80048d0:	9a0c      	ldr	r2, [sp, #48]	; 0x30
 80048d2:	4b30      	ldr	r3, [pc, #192]	; (8004994 <__ieee754_pow+0x73c>)
 80048d4:	4413      	add	r3, r2
 80048d6:	e9d3 8900 	ldrd	r8, r9, [r3]
 80048da:	4606      	mov	r6, r0
 80048dc:	460f      	mov	r7, r1
 80048de:	4622      	mov	r2, r4
 80048e0:	462b      	mov	r3, r5
 80048e2:	e9dd 0106 	ldrd	r0, r1, [sp, #24]
 80048e6:	f7fb fc7d 	bl	80001e4 <__adddf3>
 80048ea:	4642      	mov	r2, r8
 80048ec:	464b      	mov	r3, r9
 80048ee:	f7fb fc79 	bl	80001e4 <__adddf3>
 80048f2:	4632      	mov	r2, r6
 80048f4:	463b      	mov	r3, r7
 80048f6:	f7fb fc75 	bl	80001e4 <__adddf3>
 80048fa:	9802      	ldr	r0, [sp, #8]
 80048fc:	4632      	mov	r2, r6
 80048fe:	463b      	mov	r3, r7
 8004900:	e9cd 0104 	strd	r0, r1, [sp, #16]
 8004904:	f7fb fc6c 	bl	80001e0 <__aeabi_dsub>
 8004908:	4642      	mov	r2, r8
 800490a:	464b      	mov	r3, r9
 800490c:	f7fb fc68 	bl	80001e0 <__aeabi_dsub>
 8004910:	e9dd 2306 	ldrd	r2, r3, [sp, #24]
 8004914:	e607      	b.n	8004526 <__ieee754_pow+0x2ce>
 8004916:	f04f 0a01 	mov.w	sl, #1
 800491a:	e6a5      	b.n	8004668 <__ieee754_pow+0x410>
 800491c:	ed9f 7b14 	vldr	d7, [pc, #80]	; 8004970 <__ieee754_pow+0x718>
 8004920:	e613      	b.n	800454a <__ieee754_pow+0x2f2>
 8004922:	bf00      	nop
 8004924:	f3af 8000 	nop.w
 8004928:	4a454eef 	.word	0x4a454eef
 800492c:	3fca7e28 	.word	0x3fca7e28
 8004930:	93c9db65 	.word	0x93c9db65
 8004934:	3fcd864a 	.word	0x3fcd864a
 8004938:	a91d4101 	.word	0xa91d4101
 800493c:	3fd17460 	.word	0x3fd17460
 8004940:	518f264d 	.word	0x518f264d
 8004944:	3fd55555 	.word	0x3fd55555
 8004948:	db6fabff 	.word	0xdb6fabff
 800494c:	3fdb6db6 	.word	0x3fdb6db6
 8004950:	33333303 	.word	0x33333303
 8004954:	3fe33333 	.word	0x3fe33333
 8004958:	e0000000 	.word	0xe0000000
 800495c:	3feec709 	.word	0x3feec709
 8004960:	dc3a03fd 	.word	0xdc3a03fd
 8004964:	3feec709 	.word	0x3feec709
 8004968:	145b01f5 	.word	0x145b01f5
 800496c:	be3e2fe0 	.word	0xbe3e2fe0
 8004970:	00000000 	.word	0x00000000
 8004974:	3ff00000 	.word	0x3ff00000
 8004978:	43400000 	.word	0x43400000
 800497c:	0003988e 	.word	0x0003988e
 8004980:	000bb679 	.word	0x000bb679
 8004984:	08006220 	.word	0x08006220
 8004988:	3ff00000 	.word	0x3ff00000
 800498c:	40080000 	.word	0x40080000
 8004990:	08006240 	.word	0x08006240
 8004994:	08006230 	.word	0x08006230
 8004998:	a3b4      	add	r3, pc, #720	; (adr r3, 8004c6c <__ieee754_pow+0xa14>)
 800499a:	e9d3 2300 	ldrd	r2, r3, [r3]
 800499e:	4640      	mov	r0, r8
 80049a0:	4649      	mov	r1, r9
 80049a2:	f7fb fc1f 	bl	80001e4 <__adddf3>
 80049a6:	4622      	mov	r2, r4
 80049a8:	e9cd 0104 	strd	r0, r1, [sp, #16]
 80049ac:	462b      	mov	r3, r5
 80049ae:	4630      	mov	r0, r6
 80049b0:	4639      	mov	r1, r7
 80049b2:	f7fb fc15 	bl	80001e0 <__aeabi_dsub>
 80049b6:	4602      	mov	r2, r0
 80049b8:	460b      	mov	r3, r1
 80049ba:	e9dd 0104 	ldrd	r0, r1, [sp, #16]
 80049be:	f7fc f857 	bl	8000a70 <__aeabi_dcmpgt>
 80049c2:	2800      	cmp	r0, #0
 80049c4:	f47f adfe 	bne.w	80045c4 <__ieee754_pow+0x36c>
 80049c8:	4aa3      	ldr	r2, [pc, #652]	; (8004c58 <__ieee754_pow+0xa00>)
 80049ca:	f02b 4300 	bic.w	r3, fp, #2147483648	; 0x80000000
 80049ce:	4293      	cmp	r3, r2
 80049d0:	f340 810a 	ble.w	8004be8 <__ieee754_pow+0x990>
 80049d4:	151b      	asrs	r3, r3, #20
 80049d6:	f44f 1a80 	mov.w	sl, #1048576	; 0x100000
 80049da:	f2a3 33fe 	subw	r3, r3, #1022	; 0x3fe
 80049de:	fa4a f303 	asr.w	r3, sl, r3
 80049e2:	445b      	add	r3, fp
 80049e4:	f3c3 520a 	ubfx	r2, r3, #20, #11
 80049e8:	4e9c      	ldr	r6, [pc, #624]	; (8004c5c <__ieee754_pow+0xa04>)
 80049ea:	f2a2 32ff 	subw	r2, r2, #1023	; 0x3ff
 80049ee:	4116      	asrs	r6, r2
 80049f0:	f3c3 0a13 	ubfx	sl, r3, #0, #20
 80049f4:	2000      	movs	r0, #0
 80049f6:	ea23 0106 	bic.w	r1, r3, r6
 80049fa:	f1c2 0214 	rsb	r2, r2, #20
 80049fe:	f44a 1a80 	orr.w	sl, sl, #1048576	; 0x100000
 8004a02:	fa4a fa02 	asr.w	sl, sl, r2
 8004a06:	f1bb 0f00 	cmp.w	fp, #0
 8004a0a:	4602      	mov	r2, r0
 8004a0c:	460b      	mov	r3, r1
 8004a0e:	4620      	mov	r0, r4
 8004a10:	4629      	mov	r1, r5
 8004a12:	bfb8      	it	lt
 8004a14:	f1ca 0a00 	rsblt	sl, sl, #0
 8004a18:	f7fb fbe2 	bl	80001e0 <__aeabi_dsub>
 8004a1c:	e9cd 0100 	strd	r0, r1, [sp]
 8004a20:	4642      	mov	r2, r8
 8004a22:	464b      	mov	r3, r9
 8004a24:	e9dd 0100 	ldrd	r0, r1, [sp]
 8004a28:	f7fb fbdc 	bl	80001e4 <__adddf3>
 8004a2c:	2000      	movs	r0, #0
 8004a2e:	a378      	add	r3, pc, #480	; (adr r3, 8004c10 <__ieee754_pow+0x9b8>)
 8004a30:	e9d3 2300 	ldrd	r2, r3, [r3]
 8004a34:	4604      	mov	r4, r0
 8004a36:	460d      	mov	r5, r1
 8004a38:	f7fb fd8a 	bl	8000550 <__aeabi_dmul>
 8004a3c:	e9dd 2300 	ldrd	r2, r3, [sp]
 8004a40:	4606      	mov	r6, r0
 8004a42:	460f      	mov	r7, r1
 8004a44:	4620      	mov	r0, r4
 8004a46:	4629      	mov	r1, r5
 8004a48:	f7fb fbca 	bl	80001e0 <__aeabi_dsub>
 8004a4c:	4602      	mov	r2, r0
 8004a4e:	460b      	mov	r3, r1
 8004a50:	4640      	mov	r0, r8
 8004a52:	4649      	mov	r1, r9
 8004a54:	f7fb fbc4 	bl	80001e0 <__aeabi_dsub>
 8004a58:	a36f      	add	r3, pc, #444	; (adr r3, 8004c18 <__ieee754_pow+0x9c0>)
 8004a5a:	e9d3 2300 	ldrd	r2, r3, [r3]
 8004a5e:	f7fb fd77 	bl	8000550 <__aeabi_dmul>
 8004a62:	a36f      	add	r3, pc, #444	; (adr r3, 8004c20 <__ieee754_pow+0x9c8>)
 8004a64:	e9d3 2300 	ldrd	r2, r3, [r3]
 8004a68:	4680      	mov	r8, r0
 8004a6a:	4689      	mov	r9, r1
 8004a6c:	4620      	mov	r0, r4
 8004a6e:	4629      	mov	r1, r5
 8004a70:	f7fb fd6e 	bl	8000550 <__aeabi_dmul>
 8004a74:	4602      	mov	r2, r0
 8004a76:	460b      	mov	r3, r1
 8004a78:	4640      	mov	r0, r8
 8004a7a:	4649      	mov	r1, r9
 8004a7c:	f7fb fbb2 	bl	80001e4 <__adddf3>
 8004a80:	4604      	mov	r4, r0
 8004a82:	460d      	mov	r5, r1
 8004a84:	4602      	mov	r2, r0
 8004a86:	460b      	mov	r3, r1
 8004a88:	4630      	mov	r0, r6
 8004a8a:	4639      	mov	r1, r7
 8004a8c:	f7fb fbaa 	bl	80001e4 <__adddf3>
 8004a90:	4632      	mov	r2, r6
 8004a92:	463b      	mov	r3, r7
 8004a94:	4680      	mov	r8, r0
 8004a96:	4689      	mov	r9, r1
 8004a98:	f7fb fba2 	bl	80001e0 <__aeabi_dsub>
 8004a9c:	4602      	mov	r2, r0
 8004a9e:	460b      	mov	r3, r1
 8004aa0:	4620      	mov	r0, r4
 8004aa2:	4629      	mov	r1, r5
 8004aa4:	f7fb fb9c 	bl	80001e0 <__aeabi_dsub>
 8004aa8:	4642      	mov	r2, r8
 8004aaa:	4606      	mov	r6, r0
 8004aac:	460f      	mov	r7, r1
 8004aae:	464b      	mov	r3, r9
 8004ab0:	4640      	mov	r0, r8
 8004ab2:	4649      	mov	r1, r9
 8004ab4:	f7fb fd4c 	bl	8000550 <__aeabi_dmul>
 8004ab8:	a35b      	add	r3, pc, #364	; (adr r3, 8004c28 <__ieee754_pow+0x9d0>)
 8004aba:	e9d3 2300 	ldrd	r2, r3, [r3]
 8004abe:	4604      	mov	r4, r0
 8004ac0:	460d      	mov	r5, r1
 8004ac2:	f7fb fd45 	bl	8000550 <__aeabi_dmul>
 8004ac6:	a35a      	add	r3, pc, #360	; (adr r3, 8004c30 <__ieee754_pow+0x9d8>)
 8004ac8:	e9d3 2300 	ldrd	r2, r3, [r3]
 8004acc:	f7fb fb88 	bl	80001e0 <__aeabi_dsub>
 8004ad0:	4622      	mov	r2, r4
 8004ad2:	462b      	mov	r3, r5
 8004ad4:	f7fb fd3c 	bl	8000550 <__aeabi_dmul>
 8004ad8:	a357      	add	r3, pc, #348	; (adr r3, 8004c38 <__ieee754_pow+0x9e0>)
 8004ada:	e9d3 2300 	ldrd	r2, r3, [r3]
 8004ade:	f7fb fb81 	bl	80001e4 <__adddf3>
 8004ae2:	4622      	mov	r2, r4
 8004ae4:	462b      	mov	r3, r5
 8004ae6:	f7fb fd33 	bl	8000550 <__aeabi_dmul>
 8004aea:	a355      	add	r3, pc, #340	; (adr r3, 8004c40 <__ieee754_pow+0x9e8>)
 8004aec:	e9d3 2300 	ldrd	r2, r3, [r3]
 8004af0:	f7fb fb76 	bl	80001e0 <__aeabi_dsub>
 8004af4:	4622      	mov	r2, r4
 8004af6:	462b      	mov	r3, r5
 8004af8:	f7fb fd2a 	bl	8000550 <__aeabi_dmul>
 8004afc:	a352      	add	r3, pc, #328	; (adr r3, 8004c48 <__ieee754_pow+0x9f0>)
 8004afe:	e9d3 2300 	ldrd	r2, r3, [r3]
 8004b02:	f7fb fb6f 	bl	80001e4 <__adddf3>
 8004b06:	4622      	mov	r2, r4
 8004b08:	462b      	mov	r3, r5
 8004b0a:	f7fb fd21 	bl	8000550 <__aeabi_dmul>
 8004b0e:	4602      	mov	r2, r0
 8004b10:	460b      	mov	r3, r1
 8004b12:	4640      	mov	r0, r8
 8004b14:	4649      	mov	r1, r9
 8004b16:	f7fb fb63 	bl	80001e0 <__aeabi_dsub>
 8004b1a:	4604      	mov	r4, r0
 8004b1c:	460d      	mov	r5, r1
 8004b1e:	4602      	mov	r2, r0
 8004b20:	460b      	mov	r3, r1
 8004b22:	4640      	mov	r0, r8
 8004b24:	4649      	mov	r1, r9
 8004b26:	f7fb fd13 	bl	8000550 <__aeabi_dmul>
 8004b2a:	2200      	movs	r2, #0
 8004b2c:	e9cd 0100 	strd	r0, r1, [sp]
 8004b30:	f04f 4380 	mov.w	r3, #1073741824	; 0x40000000
 8004b34:	4620      	mov	r0, r4
 8004b36:	4629      	mov	r1, r5
 8004b38:	f7fb fb52 	bl	80001e0 <__aeabi_dsub>
 8004b3c:	4602      	mov	r2, r0
 8004b3e:	460b      	mov	r3, r1
 8004b40:	e9dd 0100 	ldrd	r0, r1, [sp]
 8004b44:	f7fb fe2e 	bl	80007a4 <__aeabi_ddiv>
 8004b48:	4632      	mov	r2, r6
 8004b4a:	4604      	mov	r4, r0
 8004b4c:	460d      	mov	r5, r1
 8004b4e:	463b      	mov	r3, r7
 8004b50:	4640      	mov	r0, r8
 8004b52:	4649      	mov	r1, r9
 8004b54:	f7fb fcfc 	bl	8000550 <__aeabi_dmul>
 8004b58:	4632      	mov	r2, r6
 8004b5a:	463b      	mov	r3, r7
 8004b5c:	f7fb fb42 	bl	80001e4 <__adddf3>
 8004b60:	4602      	mov	r2, r0
 8004b62:	460b      	mov	r3, r1
 8004b64:	4620      	mov	r0, r4
 8004b66:	4629      	mov	r1, r5
 8004b68:	f7fb fb3a 	bl	80001e0 <__aeabi_dsub>
 8004b6c:	4642      	mov	r2, r8
 8004b6e:	464b      	mov	r3, r9
 8004b70:	f7fb fb36 	bl	80001e0 <__aeabi_dsub>
 8004b74:	4602      	mov	r2, r0
 8004b76:	460b      	mov	r3, r1
 8004b78:	2000      	movs	r0, #0
 8004b7a:	4939      	ldr	r1, [pc, #228]	; (8004c60 <__ieee754_pow+0xa08>)
 8004b7c:	f7fb fb30 	bl	80001e0 <__aeabi_dsub>
 8004b80:	eb01 540a 	add.w	r4, r1, sl, lsl #20
 8004b84:	f5b4 1f80 	cmp.w	r4, #1048576	; 0x100000
 8004b88:	4602      	mov	r2, r0
 8004b8a:	460b      	mov	r3, r1
 8004b8c:	da2f      	bge.n	8004bee <__ieee754_pow+0x996>
 8004b8e:	4650      	mov	r0, sl
 8004b90:	ec43 2b10 	vmov	d0, r2, r3
 8004b94:	f001 faa0 	bl	80060d8 <scalbn>
 8004b98:	ec51 0b10 	vmov	r0, r1, d0
 8004b9c:	e9dd 2302 	ldrd	r2, r3, [sp, #8]
 8004ba0:	f7ff bbf1 	b.w	8004386 <__ieee754_pow+0x12e>
 8004ba4:	4b2f      	ldr	r3, [pc, #188]	; (8004c64 <__ieee754_pow+0xa0c>)
 8004ba6:	f021 4600 	bic.w	r6, r1, #2147483648	; 0x80000000
 8004baa:	429e      	cmp	r6, r3
 8004bac:	f77f af0c 	ble.w	80049c8 <__ieee754_pow+0x770>
 8004bb0:	4b2d      	ldr	r3, [pc, #180]	; (8004c68 <__ieee754_pow+0xa10>)
 8004bb2:	440b      	add	r3, r1
 8004bb4:	4303      	orrs	r3, r0
 8004bb6:	d00b      	beq.n	8004bd0 <__ieee754_pow+0x978>
 8004bb8:	a325      	add	r3, pc, #148	; (adr r3, 8004c50 <__ieee754_pow+0x9f8>)
 8004bba:	e9d3 2300 	ldrd	r2, r3, [r3]
 8004bbe:	e9dd 0102 	ldrd	r0, r1, [sp, #8]
 8004bc2:	f7fb fcc5 	bl	8000550 <__aeabi_dmul>
 8004bc6:	a322      	add	r3, pc, #136	; (adr r3, 8004c50 <__ieee754_pow+0x9f8>)
 8004bc8:	e9d3 2300 	ldrd	r2, r3, [r3]
 8004bcc:	f7ff bbdb 	b.w	8004386 <__ieee754_pow+0x12e>
 8004bd0:	4622      	mov	r2, r4
 8004bd2:	462b      	mov	r3, r5
 8004bd4:	f7fb fb04 	bl	80001e0 <__aeabi_dsub>
 8004bd8:	4642      	mov	r2, r8
 8004bda:	464b      	mov	r3, r9
 8004bdc:	f7fb ff3e 	bl	8000a5c <__aeabi_dcmpge>
 8004be0:	2800      	cmp	r0, #0
 8004be2:	f43f aef1 	beq.w	80049c8 <__ieee754_pow+0x770>
 8004be6:	e7e7      	b.n	8004bb8 <__ieee754_pow+0x960>
 8004be8:	f04f 0a00 	mov.w	sl, #0
 8004bec:	e718      	b.n	8004a20 <__ieee754_pow+0x7c8>
 8004bee:	4621      	mov	r1, r4
 8004bf0:	e7d4      	b.n	8004b9c <__ieee754_pow+0x944>
 8004bf2:	2000      	movs	r0, #0
 8004bf4:	491a      	ldr	r1, [pc, #104]	; (8004c60 <__ieee754_pow+0xa08>)
 8004bf6:	f7ff bb8f 	b.w	8004318 <__ieee754_pow+0xc0>
 8004bfa:	e9dd 0100 	ldrd	r0, r1, [sp]
 8004bfe:	f7ff bb8b 	b.w	8004318 <__ieee754_pow+0xc0>
 8004c02:	4630      	mov	r0, r6
 8004c04:	4639      	mov	r1, r7
 8004c06:	f7ff bb87 	b.w	8004318 <__ieee754_pow+0xc0>
 8004c0a:	4693      	mov	fp, r2
 8004c0c:	f7ff bb98 	b.w	8004340 <__ieee754_pow+0xe8>
 8004c10:	00000000 	.word	0x00000000
 8004c14:	3fe62e43 	.word	0x3fe62e43
 8004c18:	fefa39ef 	.word	0xfefa39ef
 8004c1c:	3fe62e42 	.word	0x3fe62e42
 8004c20:	0ca86c39 	.word	0x0ca86c39
 8004c24:	be205c61 	.word	0xbe205c61
 8004c28:	72bea4d0 	.word	0x72bea4d0
 8004c2c:	3e663769 	.word	0x3e663769
 8004c30:	c5d26bf1 	.word	0xc5d26bf1
 8004c34:	3ebbbd41 	.word	0x3ebbbd41
 8004c38:	af25de2c 	.word	0xaf25de2c
 8004c3c:	3f11566a 	.word	0x3f11566a
 8004c40:	16bebd93 	.word	0x16bebd93
 8004c44:	3f66c16c 	.word	0x3f66c16c
 8004c48:	5555553e 	.word	0x5555553e
 8004c4c:	3fc55555 	.word	0x3fc55555
 8004c50:	c2f8f359 	.word	0xc2f8f359
 8004c54:	01a56e1f 	.word	0x01a56e1f
 8004c58:	3fe00000 	.word	0x3fe00000
 8004c5c:	000fffff 	.word	0x000fffff
 8004c60:	3ff00000 	.word	0x3ff00000
 8004c64:	4090cbff 	.word	0x4090cbff
 8004c68:	3f6f3400 	.word	0x3f6f3400
 8004c6c:	652b82fe 	.word	0x652b82fe
 8004c70:	3c971547 	.word	0x3c971547
 8004c74:	00000000 	.word	0x00000000

08004c78 <__ieee754_rem_pio2>:
 8004c78:	e92d 4ff0 	stmdb	sp!, {r4, r5, r6, r7, r8, r9, sl, fp, lr}
 8004c7c:	ec57 6b10 	vmov	r6, r7, d0
 8004c80:	4bc3      	ldr	r3, [pc, #780]	; (8004f90 <__ieee754_rem_pio2+0x318>)
 8004c82:	b08d      	sub	sp, #52	; 0x34
 8004c84:	f027 4800 	bic.w	r8, r7, #2147483648	; 0x80000000
 8004c88:	4598      	cmp	r8, r3
 8004c8a:	4604      	mov	r4, r0
 8004c8c:	9704      	str	r7, [sp, #16]
 8004c8e:	dc07      	bgt.n	8004ca0 <__ieee754_rem_pio2+0x28>
 8004c90:	2200      	movs	r2, #0
 8004c92:	2300      	movs	r3, #0
 8004c94:	ed84 0b00 	vstr	d0, [r4]
 8004c98:	e9c0 2302 	strd	r2, r3, [r0, #8]
 8004c9c:	2500      	movs	r5, #0
 8004c9e:	e027      	b.n	8004cf0 <__ieee754_rem_pio2+0x78>
 8004ca0:	4bbc      	ldr	r3, [pc, #752]	; (8004f94 <__ieee754_rem_pio2+0x31c>)
 8004ca2:	4598      	cmp	r8, r3
 8004ca4:	dc75      	bgt.n	8004d92 <__ieee754_rem_pio2+0x11a>
 8004ca6:	9b04      	ldr	r3, [sp, #16]
 8004ca8:	4dbb      	ldr	r5, [pc, #748]	; (8004f98 <__ieee754_rem_pio2+0x320>)
 8004caa:	2b00      	cmp	r3, #0
 8004cac:	ee10 0a10 	vmov	r0, s0
 8004cb0:	a3a9      	add	r3, pc, #676	; (adr r3, 8004f58 <__ieee754_rem_pio2+0x2e0>)
 8004cb2:	e9d3 2300 	ldrd	r2, r3, [r3]
 8004cb6:	4639      	mov	r1, r7
 8004cb8:	dd36      	ble.n	8004d28 <__ieee754_rem_pio2+0xb0>
 8004cba:	f7fb fa91 	bl	80001e0 <__aeabi_dsub>
 8004cbe:	45a8      	cmp	r8, r5
 8004cc0:	4606      	mov	r6, r0
 8004cc2:	460f      	mov	r7, r1
 8004cc4:	d018      	beq.n	8004cf8 <__ieee754_rem_pio2+0x80>
 8004cc6:	a3a6      	add	r3, pc, #664	; (adr r3, 8004f60 <__ieee754_rem_pio2+0x2e8>)
 8004cc8:	e9d3 2300 	ldrd	r2, r3, [r3]
 8004ccc:	f7fb fa88 	bl	80001e0 <__aeabi_dsub>
 8004cd0:	4602      	mov	r2, r0
 8004cd2:	460b      	mov	r3, r1
 8004cd4:	e9c4 2300 	strd	r2, r3, [r4]
 8004cd8:	4630      	mov	r0, r6
 8004cda:	4639      	mov	r1, r7
 8004cdc:	f7fb fa80 	bl	80001e0 <__aeabi_dsub>
 8004ce0:	a39f      	add	r3, pc, #636	; (adr r3, 8004f60 <__ieee754_rem_pio2+0x2e8>)
 8004ce2:	e9d3 2300 	ldrd	r2, r3, [r3]
 8004ce6:	f7fb fa7b 	bl	80001e0 <__aeabi_dsub>
 8004cea:	e9c4 0102 	strd	r0, r1, [r4, #8]
 8004cee:	2501      	movs	r5, #1
 8004cf0:	4628      	mov	r0, r5
 8004cf2:	b00d      	add	sp, #52	; 0x34
 8004cf4:	e8bd 8ff0 	ldmia.w	sp!, {r4, r5, r6, r7, r8, r9, sl, fp, pc}
 8004cf8:	a39b      	add	r3, pc, #620	; (adr r3, 8004f68 <__ieee754_rem_pio2+0x2f0>)
 8004cfa:	e9d3 2300 	ldrd	r2, r3, [r3]
 8004cfe:	f7fb fa6f 	bl	80001e0 <__aeabi_dsub>
 8004d02:	a39b      	add	r3, pc, #620	; (adr r3, 8004f70 <__ieee754_rem_pio2+0x2f8>)
 8004d04:	e9d3 2300 	ldrd	r2, r3, [r3]
 8004d08:	4606      	mov	r6, r0
 8004d0a:	460f      	mov	r7, r1
 8004d0c:	f7fb fa68 	bl	80001e0 <__aeabi_dsub>
 8004d10:	4602      	mov	r2, r0
 8004d12:	460b      	mov	r3, r1
 8004d14:	e9c4 2300 	strd	r2, r3, [r4]
 8004d18:	4630      	mov	r0, r6
 8004d1a:	4639      	mov	r1, r7
 8004d1c:	f7fb fa60 	bl	80001e0 <__aeabi_dsub>
 8004d20:	a393      	add	r3, pc, #588	; (adr r3, 8004f70 <__ieee754_rem_pio2+0x2f8>)
 8004d22:	e9d3 2300 	ldrd	r2, r3, [r3]
 8004d26:	e7de      	b.n	8004ce6 <__ieee754_rem_pio2+0x6e>
 8004d28:	f7fb fa5c 	bl	80001e4 <__adddf3>
 8004d2c:	45a8      	cmp	r8, r5
 8004d2e:	4606      	mov	r6, r0
 8004d30:	460f      	mov	r7, r1
 8004d32:	d016      	beq.n	8004d62 <__ieee754_rem_pio2+0xea>
 8004d34:	a38a      	add	r3, pc, #552	; (adr r3, 8004f60 <__ieee754_rem_pio2+0x2e8>)
 8004d36:	e9d3 2300 	ldrd	r2, r3, [r3]
 8004d3a:	f7fb fa53 	bl	80001e4 <__adddf3>
 8004d3e:	4602      	mov	r2, r0
 8004d40:	460b      	mov	r3, r1
 8004d42:	e9c4 2300 	strd	r2, r3, [r4]
 8004d46:	4630      	mov	r0, r6
 8004d48:	4639      	mov	r1, r7
 8004d4a:	f7fb fa49 	bl	80001e0 <__aeabi_dsub>
 8004d4e:	a384      	add	r3, pc, #528	; (adr r3, 8004f60 <__ieee754_rem_pio2+0x2e8>)
 8004d50:	e9d3 2300 	ldrd	r2, r3, [r3]
 8004d54:	f7fb fa46 	bl	80001e4 <__adddf3>
 8004d58:	f04f 35ff 	mov.w	r5, #4294967295
 8004d5c:	e9c4 0102 	strd	r0, r1, [r4, #8]
 8004d60:	e7c6      	b.n	8004cf0 <__ieee754_rem_pio2+0x78>
 8004d62:	a381      	add	r3, pc, #516	; (adr r3, 8004f68 <__ieee754_rem_pio2+0x2f0>)
 8004d64:	e9d3 2300 	ldrd	r2, r3, [r3]
 8004d68:	f7fb fa3c 	bl	80001e4 <__adddf3>
 8004d6c:	a380      	add	r3, pc, #512	; (adr r3, 8004f70 <__ieee754_rem_pio2+0x2f8>)
 8004d6e:	e9d3 2300 	ldrd	r2, r3, [r3]
 8004d72:	4606      	mov	r6, r0
 8004d74:	460f      	mov	r7, r1
 8004d76:	f7fb fa35 	bl	80001e4 <__adddf3>
 8004d7a:	4602      	mov	r2, r0
 8004d7c:	460b      	mov	r3, r1
 8004d7e:	e9c4 2300 	strd	r2, r3, [r4]
 8004d82:	4630      	mov	r0, r6
 8004d84:	4639      	mov	r1, r7
 8004d86:	f7fb fa2b 	bl	80001e0 <__aeabi_dsub>
 8004d8a:	a379      	add	r3, pc, #484	; (adr r3, 8004f70 <__ieee754_rem_pio2+0x2f8>)
 8004d8c:	e9d3 2300 	ldrd	r2, r3, [r3]
 8004d90:	e7e0      	b.n	8004d54 <__ieee754_rem_pio2+0xdc>
 8004d92:	4b82      	ldr	r3, [pc, #520]	; (8004f9c <__ieee754_rem_pio2+0x324>)
 8004d94:	4598      	cmp	r8, r3
 8004d96:	f300 80d0 	bgt.w	8004f3a <__ieee754_rem_pio2+0x2c2>
 8004d9a:	f001 f875 	bl	8005e88 <fabs>
 8004d9e:	ec57 6b10 	vmov	r6, r7, d0
 8004da2:	ee10 0a10 	vmov	r0, s0
 8004da6:	a374      	add	r3, pc, #464	; (adr r3, 8004f78 <__ieee754_rem_pio2+0x300>)
 8004da8:	e9d3 2300 	ldrd	r2, r3, [r3]
 8004dac:	4639      	mov	r1, r7
 8004dae:	f7fb fbcf 	bl	8000550 <__aeabi_dmul>
 8004db2:	2200      	movs	r2, #0
 8004db4:	4b7a      	ldr	r3, [pc, #488]	; (8004fa0 <__ieee754_rem_pio2+0x328>)
 8004db6:	f7fb fa15 	bl	80001e4 <__adddf3>
 8004dba:	f7fb fe79 	bl	8000ab0 <__aeabi_d2iz>
 8004dbe:	4605      	mov	r5, r0
 8004dc0:	f7fb fb5c 	bl	800047c <__aeabi_i2d>
 8004dc4:	a364      	add	r3, pc, #400	; (adr r3, 8004f58 <__ieee754_rem_pio2+0x2e0>)
 8004dc6:	e9d3 2300 	ldrd	r2, r3, [r3]
 8004dca:	e9cd 0102 	strd	r0, r1, [sp, #8]
 8004dce:	f7fb fbbf 	bl	8000550 <__aeabi_dmul>
 8004dd2:	4602      	mov	r2, r0
 8004dd4:	460b      	mov	r3, r1
 8004dd6:	4630      	mov	r0, r6
 8004dd8:	4639      	mov	r1, r7
 8004dda:	f7fb fa01 	bl	80001e0 <__aeabi_dsub>
 8004dde:	a360      	add	r3, pc, #384	; (adr r3, 8004f60 <__ieee754_rem_pio2+0x2e8>)
 8004de0:	e9d3 2300 	ldrd	r2, r3, [r3]
 8004de4:	4682      	mov	sl, r0
 8004de6:	468b      	mov	fp, r1
 8004de8:	e9dd 0102 	ldrd	r0, r1, [sp, #8]
 8004dec:	f7fb fbb0 	bl	8000550 <__aeabi_dmul>
 8004df0:	2d1f      	cmp	r5, #31
 8004df2:	4606      	mov	r6, r0
 8004df4:	460f      	mov	r7, r1
 8004df6:	dc0c      	bgt.n	8004e12 <__ieee754_rem_pio2+0x19a>
 8004df8:	1e6a      	subs	r2, r5, #1
 8004dfa:	4b6a      	ldr	r3, [pc, #424]	; (8004fa4 <__ieee754_rem_pio2+0x32c>)
 8004dfc:	f853 3022 	ldr.w	r3, [r3, r2, lsl #2]
 8004e00:	4543      	cmp	r3, r8
 8004e02:	d006      	beq.n	8004e12 <__ieee754_rem_pio2+0x19a>
 8004e04:	4632      	mov	r2, r6
 8004e06:	463b      	mov	r3, r7
 8004e08:	4650      	mov	r0, sl
 8004e0a:	4659      	mov	r1, fp
 8004e0c:	f7fb f9e8 	bl	80001e0 <__aeabi_dsub>
 8004e10:	e00e      	b.n	8004e30 <__ieee754_rem_pio2+0x1b8>
 8004e12:	4632      	mov	r2, r6
 8004e14:	463b      	mov	r3, r7
 8004e16:	4650      	mov	r0, sl
 8004e18:	4659      	mov	r1, fp
 8004e1a:	f7fb f9e1 	bl	80001e0 <__aeabi_dsub>
 8004e1e:	ea4f 5328 	mov.w	r3, r8, asr #20
 8004e22:	9305      	str	r3, [sp, #20]
 8004e24:	9a05      	ldr	r2, [sp, #20]
 8004e26:	f3c1 530a 	ubfx	r3, r1, #20, #11
 8004e2a:	1ad3      	subs	r3, r2, r3
 8004e2c:	2b10      	cmp	r3, #16
 8004e2e:	dc02      	bgt.n	8004e36 <__ieee754_rem_pio2+0x1be>
 8004e30:	e9c4 0100 	strd	r0, r1, [r4]
 8004e34:	e039      	b.n	8004eaa <__ieee754_rem_pio2+0x232>
 8004e36:	a34c      	add	r3, pc, #304	; (adr r3, 8004f68 <__ieee754_rem_pio2+0x2f0>)
 8004e38:	e9d3 2300 	ldrd	r2, r3, [r3]
 8004e3c:	e9dd 0102 	ldrd	r0, r1, [sp, #8]
 8004e40:	f7fb fb86 	bl	8000550 <__aeabi_dmul>
 8004e44:	4606      	mov	r6, r0
 8004e46:	460f      	mov	r7, r1
 8004e48:	4602      	mov	r2, r0
 8004e4a:	460b      	mov	r3, r1
 8004e4c:	4650      	mov	r0, sl
 8004e4e:	4659      	mov	r1, fp
 8004e50:	f7fb f9c6 	bl	80001e0 <__aeabi_dsub>
 8004e54:	4602      	mov	r2, r0
 8004e56:	460b      	mov	r3, r1
 8004e58:	4680      	mov	r8, r0
 8004e5a:	4689      	mov	r9, r1
 8004e5c:	4650      	mov	r0, sl
 8004e5e:	4659      	mov	r1, fp
 8004e60:	f7fb f9be 	bl	80001e0 <__aeabi_dsub>
 8004e64:	4632      	mov	r2, r6
 8004e66:	463b      	mov	r3, r7
 8004e68:	f7fb f9ba 	bl	80001e0 <__aeabi_dsub>
 8004e6c:	a340      	add	r3, pc, #256	; (adr r3, 8004f70 <__ieee754_rem_pio2+0x2f8>)
 8004e6e:	e9d3 2300 	ldrd	r2, r3, [r3]
 8004e72:	4606      	mov	r6, r0
 8004e74:	460f      	mov	r7, r1
 8004e76:	e9dd 0102 	ldrd	r0, r1, [sp, #8]
 8004e7a:	f7fb fb69 	bl	8000550 <__aeabi_dmul>
 8004e7e:	4632      	mov	r2, r6
 8004e80:	463b      	mov	r3, r7
 8004e82:	f7fb f9ad 	bl	80001e0 <__aeabi_dsub>
 8004e86:	4602      	mov	r2, r0
 8004e88:	460b      	mov	r3, r1
 8004e8a:	4606      	mov	r6, r0
 8004e8c:	460f      	mov	r7, r1
 8004e8e:	4640      	mov	r0, r8
 8004e90:	4649      	mov	r1, r9
 8004e92:	f7fb f9a5 	bl	80001e0 <__aeabi_dsub>
 8004e96:	9a05      	ldr	r2, [sp, #20]
 8004e98:	f3c1 530a 	ubfx	r3, r1, #20, #11
 8004e9c:	1ad3      	subs	r3, r2, r3
 8004e9e:	2b31      	cmp	r3, #49	; 0x31
 8004ea0:	dc20      	bgt.n	8004ee4 <__ieee754_rem_pio2+0x26c>
 8004ea2:	e9c4 0100 	strd	r0, r1, [r4]
 8004ea6:	46c2      	mov	sl, r8
 8004ea8:	46cb      	mov	fp, r9
 8004eaa:	e9d4 8900 	ldrd	r8, r9, [r4]
 8004eae:	4650      	mov	r0, sl
 8004eb0:	4642      	mov	r2, r8
 8004eb2:	464b      	mov	r3, r9
 8004eb4:	4659      	mov	r1, fp
 8004eb6:	f7fb f993 	bl	80001e0 <__aeabi_dsub>
 8004eba:	463b      	mov	r3, r7
 8004ebc:	4632      	mov	r2, r6
 8004ebe:	f7fb f98f 	bl	80001e0 <__aeabi_dsub>
 8004ec2:	9b04      	ldr	r3, [sp, #16]
 8004ec4:	2b00      	cmp	r3, #0
 8004ec6:	e9c4 0102 	strd	r0, r1, [r4, #8]
 8004eca:	f6bf af11 	bge.w	8004cf0 <__ieee754_rem_pio2+0x78>
 8004ece:	f109 4300 	add.w	r3, r9, #2147483648	; 0x80000000
 8004ed2:	6063      	str	r3, [r4, #4]
 8004ed4:	f8c4 8000 	str.w	r8, [r4]
 8004ed8:	60a0      	str	r0, [r4, #8]
 8004eda:	f101 4300 	add.w	r3, r1, #2147483648	; 0x80000000
 8004ede:	60e3      	str	r3, [r4, #12]
 8004ee0:	426d      	negs	r5, r5
 8004ee2:	e705      	b.n	8004cf0 <__ieee754_rem_pio2+0x78>
 8004ee4:	a326      	add	r3, pc, #152	; (adr r3, 8004f80 <__ieee754_rem_pio2+0x308>)
 8004ee6:	e9d3 2300 	ldrd	r2, r3, [r3]
 8004eea:	e9dd 0102 	ldrd	r0, r1, [sp, #8]
 8004eee:	f7fb fb2f 	bl	8000550 <__aeabi_dmul>
 8004ef2:	4606      	mov	r6, r0
 8004ef4:	460f      	mov	r7, r1
 8004ef6:	4602      	mov	r2, r0
 8004ef8:	460b      	mov	r3, r1
 8004efa:	4640      	mov	r0, r8
 8004efc:	4649      	mov	r1, r9
 8004efe:	f7fb f96f 	bl	80001e0 <__aeabi_dsub>
 8004f02:	4602      	mov	r2, r0
 8004f04:	460b      	mov	r3, r1
 8004f06:	4682      	mov	sl, r0
 8004f08:	468b      	mov	fp, r1
 8004f0a:	4640      	mov	r0, r8
 8004f0c:	4649      	mov	r1, r9
 8004f0e:	f7fb f967 	bl	80001e0 <__aeabi_dsub>
 8004f12:	4632      	mov	r2, r6
 8004f14:	463b      	mov	r3, r7
 8004f16:	f7fb f963 	bl	80001e0 <__aeabi_dsub>
 8004f1a:	a31b      	add	r3, pc, #108	; (adr r3, 8004f88 <__ieee754_rem_pio2+0x310>)
 8004f1c:	e9d3 2300 	ldrd	r2, r3, [r3]
 8004f20:	4606      	mov	r6, r0
 8004f22:	460f      	mov	r7, r1
 8004f24:	e9dd 0102 	ldrd	r0, r1, [sp, #8]
 8004f28:	f7fb fb12 	bl	8000550 <__aeabi_dmul>
 8004f2c:	4632      	mov	r2, r6
 8004f2e:	463b      	mov	r3, r7
 8004f30:	f7fb f956 	bl	80001e0 <__aeabi_dsub>
 8004f34:	4606      	mov	r6, r0
 8004f36:	460f      	mov	r7, r1
 8004f38:	e764      	b.n	8004e04 <__ieee754_rem_pio2+0x18c>
 8004f3a:	4b1b      	ldr	r3, [pc, #108]	; (8004fa8 <__ieee754_rem_pio2+0x330>)
 8004f3c:	4598      	cmp	r8, r3
 8004f3e:	dd35      	ble.n	8004fac <__ieee754_rem_pio2+0x334>
 8004f40:	ee10 2a10 	vmov	r2, s0
 8004f44:	463b      	mov	r3, r7
 8004f46:	4630      	mov	r0, r6
 8004f48:	4639      	mov	r1, r7
 8004f4a:	f7fb f949 	bl	80001e0 <__aeabi_dsub>
 8004f4e:	e9c4 0102 	strd	r0, r1, [r4, #8]
 8004f52:	e9c4 0100 	strd	r0, r1, [r4]
 8004f56:	e6a1      	b.n	8004c9c <__ieee754_rem_pio2+0x24>
 8004f58:	54400000 	.word	0x54400000
 8004f5c:	3ff921fb 	.word	0x3ff921fb
 8004f60:	1a626331 	.word	0x1a626331
 8004f64:	3dd0b461 	.word	0x3dd0b461
 8004f68:	1a600000 	.word	0x1a600000
 8004f6c:	3dd0b461 	.word	0x3dd0b461
 8004f70:	2e037073 	.word	0x2e037073
 8004f74:	3ba3198a 	.word	0x3ba3198a
 8004f78:	6dc9c883 	.word	0x6dc9c883
 8004f7c:	3fe45f30 	.word	0x3fe45f30
 8004f80:	2e000000 	.word	0x2e000000
 8004f84:	3ba3198a 	.word	0x3ba3198a
 8004f88:	252049c1 	.word	0x252049c1
 8004f8c:	397b839a 	.word	0x397b839a
 8004f90:	3fe921fb 	.word	0x3fe921fb
 8004f94:	4002d97b 	.word	0x4002d97b
 8004f98:	3ff921fb 	.word	0x3ff921fb
 8004f9c:	413921fb 	.word	0x413921fb
 8004fa0:	3fe00000 	.word	0x3fe00000
 8004fa4:	08006250 	.word	0x08006250
 8004fa8:	7fefffff 	.word	0x7fefffff
 8004fac:	ea4f 5528 	mov.w	r5, r8, asr #20
 8004fb0:	f2a5 4516 	subw	r5, r5, #1046	; 0x416
 8004fb4:	eba8 5105 	sub.w	r1, r8, r5, lsl #20
 8004fb8:	4630      	mov	r0, r6
 8004fba:	460f      	mov	r7, r1
 8004fbc:	f7fb fd78 	bl	8000ab0 <__aeabi_d2iz>
 8004fc0:	f7fb fa5c 	bl	800047c <__aeabi_i2d>
 8004fc4:	4602      	mov	r2, r0
 8004fc6:	460b      	mov	r3, r1
 8004fc8:	4630      	mov	r0, r6
 8004fca:	4639      	mov	r1, r7
 8004fcc:	e9cd 2306 	strd	r2, r3, [sp, #24]
 8004fd0:	f7fb f906 	bl	80001e0 <__aeabi_dsub>
 8004fd4:	2200      	movs	r2, #0
 8004fd6:	4b1f      	ldr	r3, [pc, #124]	; (8005054 <__ieee754_rem_pio2+0x3dc>)
 8004fd8:	f7fb faba 	bl	8000550 <__aeabi_dmul>
 8004fdc:	460f      	mov	r7, r1
 8004fde:	4606      	mov	r6, r0
 8004fe0:	f7fb fd66 	bl	8000ab0 <__aeabi_d2iz>
 8004fe4:	f7fb fa4a 	bl	800047c <__aeabi_i2d>
 8004fe8:	4602      	mov	r2, r0
 8004fea:	460b      	mov	r3, r1
 8004fec:	4630      	mov	r0, r6
 8004fee:	4639      	mov	r1, r7
 8004ff0:	e9cd 2308 	strd	r2, r3, [sp, #32]
 8004ff4:	f7fb f8f4 	bl	80001e0 <__aeabi_dsub>
 8004ff8:	2200      	movs	r2, #0
 8004ffa:	4b16      	ldr	r3, [pc, #88]	; (8005054 <__ieee754_rem_pio2+0x3dc>)
 8004ffc:	f7fb faa8 	bl	8000550 <__aeabi_dmul>
 8005000:	e9cd 010a 	strd	r0, r1, [sp, #40]	; 0x28
 8005004:	f10d 0930 	add.w	r9, sp, #48	; 0x30
 8005008:	f04f 0803 	mov.w	r8, #3
 800500c:	2600      	movs	r6, #0
 800500e:	2700      	movs	r7, #0
 8005010:	4632      	mov	r2, r6
 8005012:	463b      	mov	r3, r7
 8005014:	e979 0102 	ldrd	r0, r1, [r9, #-8]!
 8005018:	f108 3aff 	add.w	sl, r8, #4294967295
 800501c:	f7fb fd00 	bl	8000a20 <__aeabi_dcmpeq>
 8005020:	b9b0      	cbnz	r0, 8005050 <__ieee754_rem_pio2+0x3d8>
 8005022:	4b0d      	ldr	r3, [pc, #52]	; (8005058 <__ieee754_rem_pio2+0x3e0>)
 8005024:	9301      	str	r3, [sp, #4]
 8005026:	2302      	movs	r3, #2
 8005028:	9300      	str	r3, [sp, #0]
 800502a:	462a      	mov	r2, r5
 800502c:	4643      	mov	r3, r8
 800502e:	4621      	mov	r1, r4
 8005030:	a806      	add	r0, sp, #24
 8005032:	f000 f98d 	bl	8005350 <__kernel_rem_pio2>
 8005036:	9b04      	ldr	r3, [sp, #16]
 8005038:	2b00      	cmp	r3, #0
 800503a:	4605      	mov	r5, r0
 800503c:	f6bf ae58 	bge.w	8004cf0 <__ieee754_rem_pio2+0x78>
 8005040:	6863      	ldr	r3, [r4, #4]
 8005042:	f103 4300 	add.w	r3, r3, #2147483648	; 0x80000000
 8005046:	6063      	str	r3, [r4, #4]
 8005048:	68e3      	ldr	r3, [r4, #12]
 800504a:	f103 4300 	add.w	r3, r3, #2147483648	; 0x80000000
 800504e:	e746      	b.n	8004ede <__ieee754_rem_pio2+0x266>
 8005050:	46d0      	mov	r8, sl
 8005052:	e7dd      	b.n	8005010 <__ieee754_rem_pio2+0x398>
 8005054:	41700000 	.word	0x41700000
 8005058:	080062d0 	.word	0x080062d0

0800505c <__ieee754_sqrt>:
 800505c:	e92d 41f0 	stmdb	sp!, {r4, r5, r6, r7, r8, lr}
 8005060:	4955      	ldr	r1, [pc, #340]	; (80051b8 <__ieee754_sqrt+0x15c>)
 8005062:	ec55 4b10 	vmov	r4, r5, d0
 8005066:	43a9      	bics	r1, r5
 8005068:	462b      	mov	r3, r5
 800506a:	462a      	mov	r2, r5
 800506c:	d112      	bne.n	8005094 <__ieee754_sqrt+0x38>
 800506e:	ee10 2a10 	vmov	r2, s0
 8005072:	ee10 0a10 	vmov	r0, s0
 8005076:	4629      	mov	r1, r5
 8005078:	f7fb fa6a 	bl	8000550 <__aeabi_dmul>
 800507c:	4602      	mov	r2, r0
 800507e:	460b      	mov	r3, r1
 8005080:	4620      	mov	r0, r4
 8005082:	4629      	mov	r1, r5
 8005084:	f7fb f8ae 	bl	80001e4 <__adddf3>
 8005088:	4604      	mov	r4, r0
 800508a:	460d      	mov	r5, r1
 800508c:	ec45 4b10 	vmov	d0, r4, r5
 8005090:	e8bd 81f0 	ldmia.w	sp!, {r4, r5, r6, r7, r8, pc}
 8005094:	2d00      	cmp	r5, #0
 8005096:	ee10 0a10 	vmov	r0, s0
 800509a:	4621      	mov	r1, r4
 800509c:	dc0f      	bgt.n	80050be <__ieee754_sqrt+0x62>
 800509e:	f025 4600 	bic.w	r6, r5, #2147483648	; 0x80000000
 80050a2:	4330      	orrs	r0, r6
 80050a4:	d0f2      	beq.n	800508c <__ieee754_sqrt+0x30>
 80050a6:	b155      	cbz	r5, 80050be <__ieee754_sqrt+0x62>
 80050a8:	ee10 2a10 	vmov	r2, s0
 80050ac:	4620      	mov	r0, r4
 80050ae:	4629      	mov	r1, r5
 80050b0:	f7fb f896 	bl	80001e0 <__aeabi_dsub>
 80050b4:	4602      	mov	r2, r0
 80050b6:	460b      	mov	r3, r1
 80050b8:	f7fb fb74 	bl	80007a4 <__aeabi_ddiv>
 80050bc:	e7e4      	b.n	8005088 <__ieee754_sqrt+0x2c>
 80050be:	151b      	asrs	r3, r3, #20
 80050c0:	d073      	beq.n	80051aa <__ieee754_sqrt+0x14e>
 80050c2:	f2a3 33ff 	subw	r3, r3, #1023	; 0x3ff
 80050c6:	07dd      	lsls	r5, r3, #31
 80050c8:	f3c2 0213 	ubfx	r2, r2, #0, #20
 80050cc:	bf48      	it	mi
 80050ce:	0fc8      	lsrmi	r0, r1, #31
 80050d0:	f442 1280 	orr.w	r2, r2, #1048576	; 0x100000
 80050d4:	bf44      	itt	mi
 80050d6:	0049      	lslmi	r1, r1, #1
 80050d8:	eb00 0242 	addmi.w	r2, r0, r2, lsl #1
 80050dc:	2500      	movs	r5, #0
 80050de:	1058      	asrs	r0, r3, #1
 80050e0:	0fcb      	lsrs	r3, r1, #31
 80050e2:	eb03 0242 	add.w	r2, r3, r2, lsl #1
 80050e6:	0049      	lsls	r1, r1, #1
 80050e8:	2316      	movs	r3, #22
 80050ea:	462c      	mov	r4, r5
 80050ec:	f44f 1600 	mov.w	r6, #2097152	; 0x200000
 80050f0:	19a7      	adds	r7, r4, r6
 80050f2:	4297      	cmp	r7, r2
 80050f4:	bfde      	ittt	le
 80050f6:	19bc      	addle	r4, r7, r6
 80050f8:	1bd2      	suble	r2, r2, r7
 80050fa:	19ad      	addle	r5, r5, r6
 80050fc:	0fcf      	lsrs	r7, r1, #31
 80050fe:	3b01      	subs	r3, #1
 8005100:	eb07 0242 	add.w	r2, r7, r2, lsl #1
 8005104:	ea4f 0141 	mov.w	r1, r1, lsl #1
 8005108:	ea4f 0656 	mov.w	r6, r6, lsr #1
 800510c:	d1f0      	bne.n	80050f0 <__ieee754_sqrt+0x94>
 800510e:	f04f 0c20 	mov.w	ip, #32
 8005112:	469e      	mov	lr, r3
 8005114:	f04f 4600 	mov.w	r6, #2147483648	; 0x80000000
 8005118:	42a2      	cmp	r2, r4
 800511a:	eb06 070e 	add.w	r7, r6, lr
 800511e:	dc02      	bgt.n	8005126 <__ieee754_sqrt+0xca>
 8005120:	d112      	bne.n	8005148 <__ieee754_sqrt+0xec>
 8005122:	428f      	cmp	r7, r1
 8005124:	d810      	bhi.n	8005148 <__ieee754_sqrt+0xec>
 8005126:	2f00      	cmp	r7, #0
 8005128:	eb07 0e06 	add.w	lr, r7, r6
 800512c:	da42      	bge.n	80051b4 <__ieee754_sqrt+0x158>
 800512e:	f1be 0f00 	cmp.w	lr, #0
 8005132:	db3f      	blt.n	80051b4 <__ieee754_sqrt+0x158>
 8005134:	f104 0801 	add.w	r8, r4, #1
 8005138:	1b12      	subs	r2, r2, r4
 800513a:	428f      	cmp	r7, r1
 800513c:	bf88      	it	hi
 800513e:	f102 32ff 	addhi.w	r2, r2, #4294967295
 8005142:	1bc9      	subs	r1, r1, r7
 8005144:	4433      	add	r3, r6
 8005146:	4644      	mov	r4, r8
 8005148:	0052      	lsls	r2, r2, #1
 800514a:	f1bc 0c01 	subs.w	ip, ip, #1
 800514e:	eb02 72d1 	add.w	r2, r2, r1, lsr #31
 8005152:	ea4f 0656 	mov.w	r6, r6, lsr #1
 8005156:	ea4f 0141 	mov.w	r1, r1, lsl #1
 800515a:	d1dd      	bne.n	8005118 <__ieee754_sqrt+0xbc>
 800515c:	430a      	orrs	r2, r1
 800515e:	d006      	beq.n	800516e <__ieee754_sqrt+0x112>
 8005160:	1c5c      	adds	r4, r3, #1
 8005162:	bf13      	iteet	ne
 8005164:	3301      	addne	r3, #1
 8005166:	3501      	addeq	r5, #1
 8005168:	4663      	moveq	r3, ip
 800516a:	f023 0301 	bicne.w	r3, r3, #1
 800516e:	106a      	asrs	r2, r5, #1
 8005170:	085b      	lsrs	r3, r3, #1
 8005172:	07e9      	lsls	r1, r5, #31
 8005174:	f102 527f 	add.w	r2, r2, #1069547520	; 0x3fc00000
 8005178:	f502 1200 	add.w	r2, r2, #2097152	; 0x200000
 800517c:	bf48      	it	mi
 800517e:	f043 4300 	orrmi.w	r3, r3, #2147483648	; 0x80000000
 8005182:	eb02 5500 	add.w	r5, r2, r0, lsl #20
 8005186:	461c      	mov	r4, r3
 8005188:	e780      	b.n	800508c <__ieee754_sqrt+0x30>
 800518a:	0aca      	lsrs	r2, r1, #11
 800518c:	3815      	subs	r0, #21
 800518e:	0549      	lsls	r1, r1, #21
 8005190:	2a00      	cmp	r2, #0
 8005192:	d0fa      	beq.n	800518a <__ieee754_sqrt+0x12e>
 8005194:	02d6      	lsls	r6, r2, #11
 8005196:	d50a      	bpl.n	80051ae <__ieee754_sqrt+0x152>
 8005198:	f1c3 0420 	rsb	r4, r3, #32
 800519c:	fa21 f404 	lsr.w	r4, r1, r4
 80051a0:	1e5d      	subs	r5, r3, #1
 80051a2:	4099      	lsls	r1, r3
 80051a4:	4322      	orrs	r2, r4
 80051a6:	1b43      	subs	r3, r0, r5
 80051a8:	e78b      	b.n	80050c2 <__ieee754_sqrt+0x66>
 80051aa:	4618      	mov	r0, r3
 80051ac:	e7f0      	b.n	8005190 <__ieee754_sqrt+0x134>
 80051ae:	0052      	lsls	r2, r2, #1
 80051b0:	3301      	adds	r3, #1
 80051b2:	e7ef      	b.n	8005194 <__ieee754_sqrt+0x138>
 80051b4:	46a0      	mov	r8, r4
 80051b6:	e7bf      	b.n	8005138 <__ieee754_sqrt+0xdc>
 80051b8:	7ff00000 	.word	0x7ff00000
 80051bc:	00000000 	.word	0x00000000

080051c0 <__kernel_cos>:
 80051c0:	e92d 4ff8 	stmdb	sp!, {r3, r4, r5, r6, r7, r8, r9, sl, fp, lr}
 80051c4:	ec59 8b10 	vmov	r8, r9, d0
 80051c8:	f029 4600 	bic.w	r6, r9, #2147483648	; 0x80000000
 80051cc:	f1b6 5f79 	cmp.w	r6, #1044381696	; 0x3e400000
 80051d0:	ed2d 8b02 	vpush	{d8}
 80051d4:	eeb0 8a41 	vmov.f32	s16, s2
 80051d8:	eef0 8a61 	vmov.f32	s17, s3
 80051dc:	da07      	bge.n	80051ee <__kernel_cos+0x2e>
 80051de:	ee10 0a10 	vmov	r0, s0
 80051e2:	4649      	mov	r1, r9
 80051e4:	f7fb fc64 	bl	8000ab0 <__aeabi_d2iz>
 80051e8:	2800      	cmp	r0, #0
 80051ea:	f000 8089 	beq.w	8005300 <__kernel_cos+0x140>
 80051ee:	4642      	mov	r2, r8
 80051f0:	464b      	mov	r3, r9
 80051f2:	4640      	mov	r0, r8
 80051f4:	4649      	mov	r1, r9
 80051f6:	f7fb f9ab 	bl	8000550 <__aeabi_dmul>
 80051fa:	2200      	movs	r2, #0
 80051fc:	4b4e      	ldr	r3, [pc, #312]	; (8005338 <__kernel_cos+0x178>)
 80051fe:	4604      	mov	r4, r0
 8005200:	460d      	mov	r5, r1
 8005202:	f7fb f9a5 	bl	8000550 <__aeabi_dmul>
 8005206:	a340      	add	r3, pc, #256	; (adr r3, 8005308 <__kernel_cos+0x148>)
 8005208:	e9d3 2300 	ldrd	r2, r3, [r3]
 800520c:	4682      	mov	sl, r0
 800520e:	468b      	mov	fp, r1
 8005210:	4620      	mov	r0, r4
 8005212:	4629      	mov	r1, r5
 8005214:	f7fb f99c 	bl	8000550 <__aeabi_dmul>
 8005218:	a33d      	add	r3, pc, #244	; (adr r3, 8005310 <__kernel_cos+0x150>)
 800521a:	e9d3 2300 	ldrd	r2, r3, [r3]
 800521e:	f7fa ffe1 	bl	80001e4 <__adddf3>
 8005222:	4622      	mov	r2, r4
 8005224:	462b      	mov	r3, r5
 8005226:	f7fb f993 	bl	8000550 <__aeabi_dmul>
 800522a:	a33b      	add	r3, pc, #236	; (adr r3, 8005318 <__kernel_cos+0x158>)
 800522c:	e9d3 2300 	ldrd	r2, r3, [r3]
 8005230:	f7fa ffd6 	bl	80001e0 <__aeabi_dsub>
 8005234:	4622      	mov	r2, r4
 8005236:	462b      	mov	r3, r5
 8005238:	f7fb f98a 	bl	8000550 <__aeabi_dmul>
 800523c:	a338      	add	r3, pc, #224	; (adr r3, 8005320 <__kernel_cos+0x160>)
 800523e:	e9d3 2300 	ldrd	r2, r3, [r3]
 8005242:	f7fa ffcf 	bl	80001e4 <__adddf3>
 8005246:	4622      	mov	r2, r4
 8005248:	462b      	mov	r3, r5
 800524a:	f7fb f981 	bl	8000550 <__aeabi_dmul>
 800524e:	a336      	add	r3, pc, #216	; (adr r3, 8005328 <__kernel_cos+0x168>)
 8005250:	e9d3 2300 	ldrd	r2, r3, [r3]
 8005254:	f7fa ffc4 	bl	80001e0 <__aeabi_dsub>
 8005258:	4622      	mov	r2, r4
 800525a:	462b      	mov	r3, r5
 800525c:	f7fb f978 	bl	8000550 <__aeabi_dmul>
 8005260:	a333      	add	r3, pc, #204	; (adr r3, 8005330 <__kernel_cos+0x170>)
 8005262:	e9d3 2300 	ldrd	r2, r3, [r3]
 8005266:	f7fa ffbd 	bl	80001e4 <__adddf3>
 800526a:	4622      	mov	r2, r4
 800526c:	462b      	mov	r3, r5
 800526e:	f7fb f96f 	bl	8000550 <__aeabi_dmul>
 8005272:	4622      	mov	r2, r4
 8005274:	462b      	mov	r3, r5
 8005276:	f7fb f96b 	bl	8000550 <__aeabi_dmul>
 800527a:	ec53 2b18 	vmov	r2, r3, d8
 800527e:	4604      	mov	r4, r0
 8005280:	460d      	mov	r5, r1
 8005282:	4640      	mov	r0, r8
 8005284:	4649      	mov	r1, r9
 8005286:	f7fb f963 	bl	8000550 <__aeabi_dmul>
 800528a:	460b      	mov	r3, r1
 800528c:	4602      	mov	r2, r0
 800528e:	4629      	mov	r1, r5
 8005290:	4620      	mov	r0, r4
 8005292:	f7fa ffa5 	bl	80001e0 <__aeabi_dsub>
 8005296:	4b29      	ldr	r3, [pc, #164]	; (800533c <__kernel_cos+0x17c>)
 8005298:	429e      	cmp	r6, r3
 800529a:	4680      	mov	r8, r0
 800529c:	4689      	mov	r9, r1
 800529e:	dc11      	bgt.n	80052c4 <__kernel_cos+0x104>
 80052a0:	4602      	mov	r2, r0
 80052a2:	460b      	mov	r3, r1
 80052a4:	4650      	mov	r0, sl
 80052a6:	4659      	mov	r1, fp
 80052a8:	f7fa ff9a 	bl	80001e0 <__aeabi_dsub>
 80052ac:	460b      	mov	r3, r1
 80052ae:	4924      	ldr	r1, [pc, #144]	; (8005340 <__kernel_cos+0x180>)
 80052b0:	4602      	mov	r2, r0
 80052b2:	2000      	movs	r0, #0
 80052b4:	f7fa ff94 	bl	80001e0 <__aeabi_dsub>
 80052b8:	ecbd 8b02 	vpop	{d8}
 80052bc:	ec41 0b10 	vmov	d0, r0, r1
 80052c0:	e8bd 8ff8 	ldmia.w	sp!, {r3, r4, r5, r6, r7, r8, r9, sl, fp, pc}
 80052c4:	4b1f      	ldr	r3, [pc, #124]	; (8005344 <__kernel_cos+0x184>)
 80052c6:	491e      	ldr	r1, [pc, #120]	; (8005340 <__kernel_cos+0x180>)
 80052c8:	429e      	cmp	r6, r3
 80052ca:	bfcc      	ite	gt
 80052cc:	4d1e      	ldrgt	r5, [pc, #120]	; (8005348 <__kernel_cos+0x188>)
 80052ce:	f5a6 1500 	suble.w	r5, r6, #2097152	; 0x200000
 80052d2:	2400      	movs	r4, #0
 80052d4:	4622      	mov	r2, r4
 80052d6:	462b      	mov	r3, r5
 80052d8:	2000      	movs	r0, #0
 80052da:	f7fa ff81 	bl	80001e0 <__aeabi_dsub>
 80052de:	4622      	mov	r2, r4
 80052e0:	4606      	mov	r6, r0
 80052e2:	460f      	mov	r7, r1
 80052e4:	462b      	mov	r3, r5
 80052e6:	4650      	mov	r0, sl
 80052e8:	4659      	mov	r1, fp
 80052ea:	f7fa ff79 	bl	80001e0 <__aeabi_dsub>
 80052ee:	4642      	mov	r2, r8
 80052f0:	464b      	mov	r3, r9
 80052f2:	f7fa ff75 	bl	80001e0 <__aeabi_dsub>
 80052f6:	4602      	mov	r2, r0
 80052f8:	460b      	mov	r3, r1
 80052fa:	4630      	mov	r0, r6
 80052fc:	4639      	mov	r1, r7
 80052fe:	e7d9      	b.n	80052b4 <__kernel_cos+0xf4>
 8005300:	2000      	movs	r0, #0
 8005302:	490f      	ldr	r1, [pc, #60]	; (8005340 <__kernel_cos+0x180>)
 8005304:	e7d8      	b.n	80052b8 <__kernel_cos+0xf8>
 8005306:	bf00      	nop
 8005308:	be8838d4 	.word	0xbe8838d4
 800530c:	bda8fae9 	.word	0xbda8fae9
 8005310:	bdb4b1c4 	.word	0xbdb4b1c4
 8005314:	3e21ee9e 	.word	0x3e21ee9e
 8005318:	809c52ad 	.word	0x809c52ad
 800531c:	3e927e4f 	.word	0x3e927e4f
 8005320:	19cb1590 	.word	0x19cb1590
 8005324:	3efa01a0 	.word	0x3efa01a0
 8005328:	16c15177 	.word	0x16c15177
 800532c:	3f56c16c 	.word	0x3f56c16c
 8005330:	5555554c 	.word	0x5555554c
 8005334:	3fa55555 	.word	0x3fa55555
 8005338:	3fe00000 	.word	0x3fe00000
 800533c:	3fd33332 	.word	0x3fd33332
 8005340:	3ff00000 	.word	0x3ff00000
 8005344:	3fe90000 	.word	0x3fe90000
 8005348:	3fd20000 	.word	0x3fd20000
 800534c:	00000000 	.word	0x00000000

08005350 <__kernel_rem_pio2>:
 8005350:	e92d 4ff0 	stmdb	sp!, {r4, r5, r6, r7, r8, r9, sl, fp, lr}
 8005354:	ed2d 8b02 	vpush	{d8}
 8005358:	f5ad 7d1b 	sub.w	sp, sp, #620	; 0x26c
 800535c:	1ed4      	subs	r4, r2, #3
 800535e:	9308      	str	r3, [sp, #32]
 8005360:	9101      	str	r1, [sp, #4]
 8005362:	4bc5      	ldr	r3, [pc, #788]	; (8005678 <__kernel_rem_pio2+0x328>)
 8005364:	99a6      	ldr	r1, [sp, #664]	; 0x298
 8005366:	9009      	str	r0, [sp, #36]	; 0x24
 8005368:	f853 3021 	ldr.w	r3, [r3, r1, lsl #2]
 800536c:	9304      	str	r3, [sp, #16]
 800536e:	9b08      	ldr	r3, [sp, #32]
 8005370:	3b01      	subs	r3, #1
 8005372:	9307      	str	r3, [sp, #28]
 8005374:	2318      	movs	r3, #24
 8005376:	fb94 f4f3 	sdiv	r4, r4, r3
 800537a:	f06f 0317 	mvn.w	r3, #23
 800537e:	ea24 74e4 	bic.w	r4, r4, r4, asr #31
 8005382:	fb04 3303 	mla	r3, r4, r3, r3
 8005386:	eb03 0a02 	add.w	sl, r3, r2
 800538a:	9b04      	ldr	r3, [sp, #16]
 800538c:	9a07      	ldr	r2, [sp, #28]
 800538e:	ed9f 8bb6 	vldr	d8, [pc, #728]	; 8005668 <__kernel_rem_pio2+0x318>
 8005392:	eb03 0802 	add.w	r8, r3, r2
 8005396:	9ba7      	ldr	r3, [sp, #668]	; 0x29c
 8005398:	1aa7      	subs	r7, r4, r2
 800539a:	eb03 0987 	add.w	r9, r3, r7, lsl #2
 800539e:	ae22      	add	r6, sp, #136	; 0x88
 80053a0:	2500      	movs	r5, #0
 80053a2:	4545      	cmp	r5, r8
 80053a4:	dd13      	ble.n	80053ce <__kernel_rem_pio2+0x7e>
 80053a6:	ed9f 8bb0 	vldr	d8, [pc, #704]	; 8005668 <__kernel_rem_pio2+0x318>
 80053aa:	f50d 7be4 	add.w	fp, sp, #456	; 0x1c8
 80053ae:	2600      	movs	r6, #0
 80053b0:	9b04      	ldr	r3, [sp, #16]
 80053b2:	429e      	cmp	r6, r3
 80053b4:	dc32      	bgt.n	800541c <__kernel_rem_pio2+0xcc>
 80053b6:	9b09      	ldr	r3, [sp, #36]	; 0x24
 80053b8:	9302      	str	r3, [sp, #8]
 80053ba:	9b08      	ldr	r3, [sp, #32]
 80053bc:	199d      	adds	r5, r3, r6
 80053be:	ab22      	add	r3, sp, #136	; 0x88
 80053c0:	eb03 03c5 	add.w	r3, r3, r5, lsl #3
 80053c4:	9306      	str	r3, [sp, #24]
 80053c6:	ec59 8b18 	vmov	r8, r9, d8
 80053ca:	2700      	movs	r7, #0
 80053cc:	e01f      	b.n	800540e <__kernel_rem_pio2+0xbe>
 80053ce:	42ef      	cmn	r7, r5
 80053d0:	d407      	bmi.n	80053e2 <__kernel_rem_pio2+0x92>
 80053d2:	f859 0025 	ldr.w	r0, [r9, r5, lsl #2]
 80053d6:	f7fb f851 	bl	800047c <__aeabi_i2d>
 80053da:	e8e6 0102 	strd	r0, r1, [r6], #8
 80053de:	3501      	adds	r5, #1
 80053e0:	e7df      	b.n	80053a2 <__kernel_rem_pio2+0x52>
 80053e2:	ec51 0b18 	vmov	r0, r1, d8
 80053e6:	e7f8      	b.n	80053da <__kernel_rem_pio2+0x8a>
 80053e8:	9906      	ldr	r1, [sp, #24]
 80053ea:	9d02      	ldr	r5, [sp, #8]
 80053ec:	e971 2302 	ldrd	r2, r3, [r1, #-8]!
 80053f0:	9106      	str	r1, [sp, #24]
 80053f2:	e8f5 0102 	ldrd	r0, r1, [r5], #8
 80053f6:	9502      	str	r5, [sp, #8]
 80053f8:	f7fb f8aa 	bl	8000550 <__aeabi_dmul>
 80053fc:	4602      	mov	r2, r0
 80053fe:	460b      	mov	r3, r1
 8005400:	4640      	mov	r0, r8
 8005402:	4649      	mov	r1, r9
 8005404:	f7fa feee 	bl	80001e4 <__adddf3>
 8005408:	3701      	adds	r7, #1
 800540a:	4680      	mov	r8, r0
 800540c:	4689      	mov	r9, r1
 800540e:	9b07      	ldr	r3, [sp, #28]
 8005410:	429f      	cmp	r7, r3
 8005412:	dde9      	ble.n	80053e8 <__kernel_rem_pio2+0x98>
 8005414:	e8eb 8902 	strd	r8, r9, [fp], #8
 8005418:	3601      	adds	r6, #1
 800541a:	e7c9      	b.n	80053b0 <__kernel_rem_pio2+0x60>
 800541c:	9b04      	ldr	r3, [sp, #16]
 800541e:	aa0e      	add	r2, sp, #56	; 0x38
 8005420:	eb02 0383 	add.w	r3, r2, r3, lsl #2
 8005424:	930c      	str	r3, [sp, #48]	; 0x30
 8005426:	9ba7      	ldr	r3, [sp, #668]	; 0x29c
 8005428:	eb03 0384 	add.w	r3, r3, r4, lsl #2
 800542c:	9c04      	ldr	r4, [sp, #16]
 800542e:	930b      	str	r3, [sp, #44]	; 0x2c
 8005430:	ab9a      	add	r3, sp, #616	; 0x268
 8005432:	f104 5b00 	add.w	fp, r4, #536870912	; 0x20000000
 8005436:	eb03 03c4 	add.w	r3, r3, r4, lsl #3
 800543a:	f10b 3bff 	add.w	fp, fp, #4294967295
 800543e:	e953 8928 	ldrd	r8, r9, [r3, #-160]	; 0xa0
 8005442:	ea4f 0bcb 	mov.w	fp, fp, lsl #3
 8005446:	ab9a      	add	r3, sp, #616	; 0x268
 8005448:	445b      	add	r3, fp
 800544a:	f1a3 0698 	sub.w	r6, r3, #152	; 0x98
 800544e:	2500      	movs	r5, #0
 8005450:	1b63      	subs	r3, r4, r5
 8005452:	2b00      	cmp	r3, #0
 8005454:	dc78      	bgt.n	8005548 <__kernel_rem_pio2+0x1f8>
 8005456:	4650      	mov	r0, sl
 8005458:	ec49 8b10 	vmov	d0, r8, r9
 800545c:	f000 fe3c 	bl	80060d8 <scalbn>
 8005460:	ec57 6b10 	vmov	r6, r7, d0
 8005464:	2200      	movs	r2, #0
 8005466:	f04f 537f 	mov.w	r3, #1069547520	; 0x3fc00000
 800546a:	ee10 0a10 	vmov	r0, s0
 800546e:	4639      	mov	r1, r7
 8005470:	f7fb f86e 	bl	8000550 <__aeabi_dmul>
 8005474:	ec41 0b10 	vmov	d0, r0, r1
 8005478:	f000 fd1a 	bl	8005eb0 <floor>
 800547c:	2200      	movs	r2, #0
 800547e:	ec51 0b10 	vmov	r0, r1, d0
 8005482:	4b7e      	ldr	r3, [pc, #504]	; (800567c <__kernel_rem_pio2+0x32c>)
 8005484:	f7fb f864 	bl	8000550 <__aeabi_dmul>
 8005488:	4602      	mov	r2, r0
 800548a:	460b      	mov	r3, r1
 800548c:	4630      	mov	r0, r6
 800548e:	4639      	mov	r1, r7
 8005490:	f7fa fea6 	bl	80001e0 <__aeabi_dsub>
 8005494:	460f      	mov	r7, r1
 8005496:	4606      	mov	r6, r0
 8005498:	f7fb fb0a 	bl	8000ab0 <__aeabi_d2iz>
 800549c:	9006      	str	r0, [sp, #24]
 800549e:	f7fa ffed 	bl	800047c <__aeabi_i2d>
 80054a2:	4602      	mov	r2, r0
 80054a4:	460b      	mov	r3, r1
 80054a6:	4630      	mov	r0, r6
 80054a8:	4639      	mov	r1, r7
 80054aa:	f7fa fe99 	bl	80001e0 <__aeabi_dsub>
 80054ae:	f1ba 0f00 	cmp.w	sl, #0
 80054b2:	4606      	mov	r6, r0
 80054b4:	460f      	mov	r7, r1
 80054b6:	dd6c      	ble.n	8005592 <__kernel_rem_pio2+0x242>
 80054b8:	1e62      	subs	r2, r4, #1
 80054ba:	ab0e      	add	r3, sp, #56	; 0x38
 80054bc:	f1ca 0118 	rsb	r1, sl, #24
 80054c0:	f853 0022 	ldr.w	r0, [r3, r2, lsl #2]
 80054c4:	9d06      	ldr	r5, [sp, #24]
 80054c6:	fa40 f301 	asr.w	r3, r0, r1
 80054ca:	441d      	add	r5, r3
 80054cc:	408b      	lsls	r3, r1
 80054ce:	1ac0      	subs	r0, r0, r3
 80054d0:	ab0e      	add	r3, sp, #56	; 0x38
 80054d2:	9506      	str	r5, [sp, #24]
 80054d4:	f843 0022 	str.w	r0, [r3, r2, lsl #2]
 80054d8:	f1ca 0317 	rsb	r3, sl, #23
 80054dc:	fa40 f303 	asr.w	r3, r0, r3
 80054e0:	9302      	str	r3, [sp, #8]
 80054e2:	9b02      	ldr	r3, [sp, #8]
 80054e4:	2b00      	cmp	r3, #0
 80054e6:	dd62      	ble.n	80055ae <__kernel_rem_pio2+0x25e>
 80054e8:	9b06      	ldr	r3, [sp, #24]
 80054ea:	2200      	movs	r2, #0
 80054ec:	3301      	adds	r3, #1
 80054ee:	9306      	str	r3, [sp, #24]
 80054f0:	4615      	mov	r5, r2
 80054f2:	f06f 417f 	mvn.w	r1, #4278190080	; 0xff000000
 80054f6:	4294      	cmp	r4, r2
 80054f8:	f300 8095 	bgt.w	8005626 <__kernel_rem_pio2+0x2d6>
 80054fc:	f1ba 0f00 	cmp.w	sl, #0
 8005500:	dd07      	ble.n	8005512 <__kernel_rem_pio2+0x1c2>
 8005502:	f1ba 0f01 	cmp.w	sl, #1
 8005506:	f000 80a2 	beq.w	800564e <__kernel_rem_pio2+0x2fe>
 800550a:	f1ba 0f02 	cmp.w	sl, #2
 800550e:	f000 80c1 	beq.w	8005694 <__kernel_rem_pio2+0x344>
 8005512:	9b02      	ldr	r3, [sp, #8]
 8005514:	2b02      	cmp	r3, #2
 8005516:	d14a      	bne.n	80055ae <__kernel_rem_pio2+0x25e>
 8005518:	4632      	mov	r2, r6
 800551a:	463b      	mov	r3, r7
 800551c:	2000      	movs	r0, #0
 800551e:	4958      	ldr	r1, [pc, #352]	; (8005680 <__kernel_rem_pio2+0x330>)
 8005520:	f7fa fe5e 	bl	80001e0 <__aeabi_dsub>
 8005524:	4606      	mov	r6, r0
 8005526:	460f      	mov	r7, r1
 8005528:	2d00      	cmp	r5, #0
 800552a:	d040      	beq.n	80055ae <__kernel_rem_pio2+0x25e>
 800552c:	4650      	mov	r0, sl
 800552e:	ed9f 0b50 	vldr	d0, [pc, #320]	; 8005670 <__kernel_rem_pio2+0x320>
 8005532:	f000 fdd1 	bl	80060d8 <scalbn>
 8005536:	4630      	mov	r0, r6
 8005538:	4639      	mov	r1, r7
 800553a:	ec53 2b10 	vmov	r2, r3, d0
 800553e:	f7fa fe4f 	bl	80001e0 <__aeabi_dsub>
 8005542:	4606      	mov	r6, r0
 8005544:	460f      	mov	r7, r1
 8005546:	e032      	b.n	80055ae <__kernel_rem_pio2+0x25e>
 8005548:	2200      	movs	r2, #0
 800554a:	4b4e      	ldr	r3, [pc, #312]	; (8005684 <__kernel_rem_pio2+0x334>)
 800554c:	4640      	mov	r0, r8
 800554e:	4649      	mov	r1, r9
 8005550:	f7fa fffe 	bl	8000550 <__aeabi_dmul>
 8005554:	f7fb faac 	bl	8000ab0 <__aeabi_d2iz>
 8005558:	f7fa ff90 	bl	800047c <__aeabi_i2d>
 800555c:	2200      	movs	r2, #0
 800555e:	4b4a      	ldr	r3, [pc, #296]	; (8005688 <__kernel_rem_pio2+0x338>)
 8005560:	e9cd 0102 	strd	r0, r1, [sp, #8]
 8005564:	f7fa fff4 	bl	8000550 <__aeabi_dmul>
 8005568:	4602      	mov	r2, r0
 800556a:	460b      	mov	r3, r1
 800556c:	4640      	mov	r0, r8
 800556e:	4649      	mov	r1, r9
 8005570:	f7fa fe36 	bl	80001e0 <__aeabi_dsub>
 8005574:	f7fb fa9c 	bl	8000ab0 <__aeabi_d2iz>
 8005578:	ab0e      	add	r3, sp, #56	; 0x38
 800557a:	f843 0025 	str.w	r0, [r3, r5, lsl #2]
 800557e:	e976 2302 	ldrd	r2, r3, [r6, #-8]!
 8005582:	e9dd 0102 	ldrd	r0, r1, [sp, #8]
 8005586:	f7fa fe2d 	bl	80001e4 <__adddf3>
 800558a:	3501      	adds	r5, #1
 800558c:	4680      	mov	r8, r0
 800558e:	4689      	mov	r9, r1
 8005590:	e75e      	b.n	8005450 <__kernel_rem_pio2+0x100>
 8005592:	d105      	bne.n	80055a0 <__kernel_rem_pio2+0x250>
 8005594:	1e63      	subs	r3, r4, #1
 8005596:	aa0e      	add	r2, sp, #56	; 0x38
 8005598:	f852 0023 	ldr.w	r0, [r2, r3, lsl #2]
 800559c:	15c3      	asrs	r3, r0, #23
 800559e:	e79f      	b.n	80054e0 <__kernel_rem_pio2+0x190>
 80055a0:	2200      	movs	r2, #0
 80055a2:	4b3a      	ldr	r3, [pc, #232]	; (800568c <__kernel_rem_pio2+0x33c>)
 80055a4:	f7fb fa5a 	bl	8000a5c <__aeabi_dcmpge>
 80055a8:	2800      	cmp	r0, #0
 80055aa:	d139      	bne.n	8005620 <__kernel_rem_pio2+0x2d0>
 80055ac:	9002      	str	r0, [sp, #8]
 80055ae:	2200      	movs	r2, #0
 80055b0:	2300      	movs	r3, #0
 80055b2:	4630      	mov	r0, r6
 80055b4:	4639      	mov	r1, r7
 80055b6:	f7fb fa33 	bl	8000a20 <__aeabi_dcmpeq>
 80055ba:	2800      	cmp	r0, #0
 80055bc:	f000 80c7 	beq.w	800574e <__kernel_rem_pio2+0x3fe>
 80055c0:	1e65      	subs	r5, r4, #1
 80055c2:	462b      	mov	r3, r5
 80055c4:	2200      	movs	r2, #0
 80055c6:	9904      	ldr	r1, [sp, #16]
 80055c8:	428b      	cmp	r3, r1
 80055ca:	da6a      	bge.n	80056a2 <__kernel_rem_pio2+0x352>
 80055cc:	2a00      	cmp	r2, #0
 80055ce:	f000 8088 	beq.w	80056e2 <__kernel_rem_pio2+0x392>
 80055d2:	ab0e      	add	r3, sp, #56	; 0x38
 80055d4:	f1aa 0a18 	sub.w	sl, sl, #24
 80055d8:	f853 3025 	ldr.w	r3, [r3, r5, lsl #2]
 80055dc:	2b00      	cmp	r3, #0
 80055de:	f000 80b4 	beq.w	800574a <__kernel_rem_pio2+0x3fa>
 80055e2:	4650      	mov	r0, sl
 80055e4:	ed9f 0b22 	vldr	d0, [pc, #136]	; 8005670 <__kernel_rem_pio2+0x320>
 80055e8:	f000 fd76 	bl	80060d8 <scalbn>
 80055ec:	00ec      	lsls	r4, r5, #3
 80055ee:	ab72      	add	r3, sp, #456	; 0x1c8
 80055f0:	191e      	adds	r6, r3, r4
 80055f2:	ec59 8b10 	vmov	r8, r9, d0
 80055f6:	f106 0a08 	add.w	sl, r6, #8
 80055fa:	462f      	mov	r7, r5
 80055fc:	2f00      	cmp	r7, #0
 80055fe:	f280 80df 	bge.w	80057c0 <__kernel_rem_pio2+0x470>
 8005602:	ed9f 8b19 	vldr	d8, [pc, #100]	; 8005668 <__kernel_rem_pio2+0x318>
 8005606:	f04f 0a00 	mov.w	sl, #0
 800560a:	eba5 030a 	sub.w	r3, r5, sl
 800560e:	2b00      	cmp	r3, #0
 8005610:	f2c0 810a 	blt.w	8005828 <__kernel_rem_pio2+0x4d8>
 8005614:	f8df b078 	ldr.w	fp, [pc, #120]	; 8005690 <__kernel_rem_pio2+0x340>
 8005618:	ec59 8b18 	vmov	r8, r9, d8
 800561c:	2700      	movs	r7, #0
 800561e:	e0f5      	b.n	800580c <__kernel_rem_pio2+0x4bc>
 8005620:	2302      	movs	r3, #2
 8005622:	9302      	str	r3, [sp, #8]
 8005624:	e760      	b.n	80054e8 <__kernel_rem_pio2+0x198>
 8005626:	ab0e      	add	r3, sp, #56	; 0x38
 8005628:	f853 3022 	ldr.w	r3, [r3, r2, lsl #2]
 800562c:	b94d      	cbnz	r5, 8005642 <__kernel_rem_pio2+0x2f2>
 800562e:	b12b      	cbz	r3, 800563c <__kernel_rem_pio2+0x2ec>
 8005630:	a80e      	add	r0, sp, #56	; 0x38
 8005632:	f1c3 7380 	rsb	r3, r3, #16777216	; 0x1000000
 8005636:	f840 3022 	str.w	r3, [r0, r2, lsl #2]
 800563a:	2301      	movs	r3, #1
 800563c:	3201      	adds	r2, #1
 800563e:	461d      	mov	r5, r3
 8005640:	e759      	b.n	80054f6 <__kernel_rem_pio2+0x1a6>
 8005642:	a80e      	add	r0, sp, #56	; 0x38
 8005644:	1acb      	subs	r3, r1, r3
 8005646:	f840 3022 	str.w	r3, [r0, r2, lsl #2]
 800564a:	462b      	mov	r3, r5
 800564c:	e7f6      	b.n	800563c <__kernel_rem_pio2+0x2ec>
 800564e:	1e62      	subs	r2, r4, #1
 8005650:	ab0e      	add	r3, sp, #56	; 0x38
 8005652:	f853 3022 	ldr.w	r3, [r3, r2, lsl #2]
 8005656:	f3c3 0316 	ubfx	r3, r3, #0, #23
 800565a:	a90e      	add	r1, sp, #56	; 0x38
 800565c:	f841 3022 	str.w	r3, [r1, r2, lsl #2]
 8005660:	e757      	b.n	8005512 <__kernel_rem_pio2+0x1c2>
 8005662:	bf00      	nop
 8005664:	f3af 8000 	nop.w
	...
 8005674:	3ff00000 	.word	0x3ff00000
 8005678:	08006418 	.word	0x08006418
 800567c:	40200000 	.word	0x40200000
 8005680:	3ff00000 	.word	0x3ff00000
 8005684:	3e700000 	.word	0x3e700000
 8005688:	41700000 	.word	0x41700000
 800568c:	3fe00000 	.word	0x3fe00000
 8005690:	080063d8 	.word	0x080063d8
 8005694:	1e62      	subs	r2, r4, #1
 8005696:	ab0e      	add	r3, sp, #56	; 0x38
 8005698:	f853 3022 	ldr.w	r3, [r3, r2, lsl #2]
 800569c:	f3c3 0315 	ubfx	r3, r3, #0, #22
 80056a0:	e7db      	b.n	800565a <__kernel_rem_pio2+0x30a>
 80056a2:	a90e      	add	r1, sp, #56	; 0x38
 80056a4:	f851 1023 	ldr.w	r1, [r1, r3, lsl #2]
 80056a8:	3b01      	subs	r3, #1
 80056aa:	430a      	orrs	r2, r1
 80056ac:	e78b      	b.n	80055c6 <__kernel_rem_pio2+0x276>
 80056ae:	3301      	adds	r3, #1
 80056b0:	f852 1d04 	ldr.w	r1, [r2, #-4]!
 80056b4:	2900      	cmp	r1, #0
 80056b6:	d0fa      	beq.n	80056ae <__kernel_rem_pio2+0x35e>
 80056b8:	9a08      	ldr	r2, [sp, #32]
 80056ba:	4422      	add	r2, r4
 80056bc:	00d2      	lsls	r2, r2, #3
 80056be:	a922      	add	r1, sp, #136	; 0x88
 80056c0:	18e3      	adds	r3, r4, r3
 80056c2:	9206      	str	r2, [sp, #24]
 80056c4:	440a      	add	r2, r1
 80056c6:	9302      	str	r3, [sp, #8]
 80056c8:	f10b 0108 	add.w	r1, fp, #8
 80056cc:	f102 0308 	add.w	r3, r2, #8
 80056d0:	1c66      	adds	r6, r4, #1
 80056d2:	910a      	str	r1, [sp, #40]	; 0x28
 80056d4:	2500      	movs	r5, #0
 80056d6:	930d      	str	r3, [sp, #52]	; 0x34
 80056d8:	9b02      	ldr	r3, [sp, #8]
 80056da:	42b3      	cmp	r3, r6
 80056dc:	da04      	bge.n	80056e8 <__kernel_rem_pio2+0x398>
 80056de:	461c      	mov	r4, r3
 80056e0:	e6a6      	b.n	8005430 <__kernel_rem_pio2+0xe0>
 80056e2:	9a0c      	ldr	r2, [sp, #48]	; 0x30
 80056e4:	2301      	movs	r3, #1
 80056e6:	e7e3      	b.n	80056b0 <__kernel_rem_pio2+0x360>
 80056e8:	9b06      	ldr	r3, [sp, #24]
 80056ea:	18ef      	adds	r7, r5, r3
 80056ec:	ab22      	add	r3, sp, #136	; 0x88
 80056ee:	441f      	add	r7, r3
 80056f0:	9b0b      	ldr	r3, [sp, #44]	; 0x2c
 80056f2:	f853 0026 	ldr.w	r0, [r3, r6, lsl #2]
 80056f6:	f7fa fec1 	bl	800047c <__aeabi_i2d>
 80056fa:	9b09      	ldr	r3, [sp, #36]	; 0x24
 80056fc:	461c      	mov	r4, r3
 80056fe:	9b0d      	ldr	r3, [sp, #52]	; 0x34
 8005700:	e9c7 0100 	strd	r0, r1, [r7]
 8005704:	eb03 0b05 	add.w	fp, r3, r5
 8005708:	2700      	movs	r7, #0
 800570a:	f04f 0800 	mov.w	r8, #0
 800570e:	f04f 0900 	mov.w	r9, #0
 8005712:	9b07      	ldr	r3, [sp, #28]
 8005714:	429f      	cmp	r7, r3
 8005716:	dd08      	ble.n	800572a <__kernel_rem_pio2+0x3da>
 8005718:	9b0a      	ldr	r3, [sp, #40]	; 0x28
 800571a:	aa72      	add	r2, sp, #456	; 0x1c8
 800571c:	18eb      	adds	r3, r5, r3
 800571e:	4413      	add	r3, r2
 8005720:	e9c3 8902 	strd	r8, r9, [r3, #8]
 8005724:	3601      	adds	r6, #1
 8005726:	3508      	adds	r5, #8
 8005728:	e7d6      	b.n	80056d8 <__kernel_rem_pio2+0x388>
 800572a:	e97b 2302 	ldrd	r2, r3, [fp, #-8]!
 800572e:	e8f4 0102 	ldrd	r0, r1, [r4], #8
 8005732:	f7fa ff0d 	bl	8000550 <__aeabi_dmul>
 8005736:	4602      	mov	r2, r0
 8005738:	460b      	mov	r3, r1
 800573a:	4640      	mov	r0, r8
 800573c:	4649      	mov	r1, r9
 800573e:	f7fa fd51 	bl	80001e4 <__adddf3>
 8005742:	3701      	adds	r7, #1
 8005744:	4680      	mov	r8, r0
 8005746:	4689      	mov	r9, r1
 8005748:	e7e3      	b.n	8005712 <__kernel_rem_pio2+0x3c2>
 800574a:	3d01      	subs	r5, #1
 800574c:	e741      	b.n	80055d2 <__kernel_rem_pio2+0x282>
 800574e:	f1ca 0000 	rsb	r0, sl, #0
 8005752:	ec47 6b10 	vmov	d0, r6, r7
 8005756:	f000 fcbf 	bl	80060d8 <scalbn>
 800575a:	ec57 6b10 	vmov	r6, r7, d0
 800575e:	2200      	movs	r2, #0
 8005760:	4b99      	ldr	r3, [pc, #612]	; (80059c8 <__kernel_rem_pio2+0x678>)
 8005762:	ee10 0a10 	vmov	r0, s0
 8005766:	4639      	mov	r1, r7
 8005768:	f7fb f978 	bl	8000a5c <__aeabi_dcmpge>
 800576c:	b1f8      	cbz	r0, 80057ae <__kernel_rem_pio2+0x45e>
 800576e:	2200      	movs	r2, #0
 8005770:	4b96      	ldr	r3, [pc, #600]	; (80059cc <__kernel_rem_pio2+0x67c>)
 8005772:	4630      	mov	r0, r6
 8005774:	4639      	mov	r1, r7
 8005776:	f7fa feeb 	bl	8000550 <__aeabi_dmul>
 800577a:	f7fb f999 	bl	8000ab0 <__aeabi_d2iz>
 800577e:	4680      	mov	r8, r0
 8005780:	f7fa fe7c 	bl	800047c <__aeabi_i2d>
 8005784:	2200      	movs	r2, #0
 8005786:	4b90      	ldr	r3, [pc, #576]	; (80059c8 <__kernel_rem_pio2+0x678>)
 8005788:	f7fa fee2 	bl	8000550 <__aeabi_dmul>
 800578c:	460b      	mov	r3, r1
 800578e:	4602      	mov	r2, r0
 8005790:	4639      	mov	r1, r7
 8005792:	4630      	mov	r0, r6
 8005794:	f7fa fd24 	bl	80001e0 <__aeabi_dsub>
 8005798:	f7fb f98a 	bl	8000ab0 <__aeabi_d2iz>
 800579c:	1c65      	adds	r5, r4, #1
 800579e:	ab0e      	add	r3, sp, #56	; 0x38
 80057a0:	f10a 0a18 	add.w	sl, sl, #24
 80057a4:	f843 0024 	str.w	r0, [r3, r4, lsl #2]
 80057a8:	f843 8025 	str.w	r8, [r3, r5, lsl #2]
 80057ac:	e719      	b.n	80055e2 <__kernel_rem_pio2+0x292>
 80057ae:	4630      	mov	r0, r6
 80057b0:	4639      	mov	r1, r7
 80057b2:	f7fb f97d 	bl	8000ab0 <__aeabi_d2iz>
 80057b6:	ab0e      	add	r3, sp, #56	; 0x38
 80057b8:	4625      	mov	r5, r4
 80057ba:	f843 0024 	str.w	r0, [r3, r4, lsl #2]
 80057be:	e710      	b.n	80055e2 <__kernel_rem_pio2+0x292>
 80057c0:	ab0e      	add	r3, sp, #56	; 0x38
 80057c2:	f853 0027 	ldr.w	r0, [r3, r7, lsl #2]
 80057c6:	f7fa fe59 	bl	800047c <__aeabi_i2d>
 80057ca:	4642      	mov	r2, r8
 80057cc:	464b      	mov	r3, r9
 80057ce:	f7fa febf 	bl	8000550 <__aeabi_dmul>
 80057d2:	2200      	movs	r2, #0
 80057d4:	e96a 0102 	strd	r0, r1, [sl, #-8]!
 80057d8:	4b7c      	ldr	r3, [pc, #496]	; (80059cc <__kernel_rem_pio2+0x67c>)
 80057da:	4640      	mov	r0, r8
 80057dc:	4649      	mov	r1, r9
 80057de:	f7fa feb7 	bl	8000550 <__aeabi_dmul>
 80057e2:	3f01      	subs	r7, #1
 80057e4:	4680      	mov	r8, r0
 80057e6:	4689      	mov	r9, r1
 80057e8:	e708      	b.n	80055fc <__kernel_rem_pio2+0x2ac>
 80057ea:	eb06 03c7 	add.w	r3, r6, r7, lsl #3
 80057ee:	e9d3 2300 	ldrd	r2, r3, [r3]
 80057f2:	e8fb 0102 	ldrd	r0, r1, [fp], #8
 80057f6:	f7fa feab 	bl	8000550 <__aeabi_dmul>
 80057fa:	4602      	mov	r2, r0
 80057fc:	460b      	mov	r3, r1
 80057fe:	4640      	mov	r0, r8
 8005800:	4649      	mov	r1, r9
 8005802:	f7fa fcef 	bl	80001e4 <__adddf3>
 8005806:	3701      	adds	r7, #1
 8005808:	4680      	mov	r8, r0
 800580a:	4689      	mov	r9, r1
 800580c:	9b04      	ldr	r3, [sp, #16]
 800580e:	429f      	cmp	r7, r3
 8005810:	dc01      	bgt.n	8005816 <__kernel_rem_pio2+0x4c6>
 8005812:	45ba      	cmp	sl, r7
 8005814:	dae9      	bge.n	80057ea <__kernel_rem_pio2+0x49a>
 8005816:	ab4a      	add	r3, sp, #296	; 0x128
 8005818:	eb03 03ca 	add.w	r3, r3, sl, lsl #3
 800581c:	e9c3 8900 	strd	r8, r9, [r3]
 8005820:	f10a 0a01 	add.w	sl, sl, #1
 8005824:	3e08      	subs	r6, #8
 8005826:	e6f0      	b.n	800560a <__kernel_rem_pio2+0x2ba>
 8005828:	9ba6      	ldr	r3, [sp, #664]	; 0x298
 800582a:	2b03      	cmp	r3, #3
 800582c:	d85b      	bhi.n	80058e6 <__kernel_rem_pio2+0x596>
 800582e:	e8df f003 	tbb	[pc, r3]
 8005832:	264a      	.short	0x264a
 8005834:	0226      	.short	0x0226
 8005836:	ab9a      	add	r3, sp, #616	; 0x268
 8005838:	441c      	add	r4, r3
 800583a:	f5a4 749c 	sub.w	r4, r4, #312	; 0x138
 800583e:	46a2      	mov	sl, r4
 8005840:	46ab      	mov	fp, r5
 8005842:	f1bb 0f00 	cmp.w	fp, #0
 8005846:	dc6c      	bgt.n	8005922 <__kernel_rem_pio2+0x5d2>
 8005848:	46a2      	mov	sl, r4
 800584a:	46ab      	mov	fp, r5
 800584c:	f1bb 0f01 	cmp.w	fp, #1
 8005850:	f300 8086 	bgt.w	8005960 <__kernel_rem_pio2+0x610>
 8005854:	2000      	movs	r0, #0
 8005856:	2100      	movs	r1, #0
 8005858:	2d01      	cmp	r5, #1
 800585a:	f300 80a0 	bgt.w	800599e <__kernel_rem_pio2+0x64e>
 800585e:	9b02      	ldr	r3, [sp, #8]
 8005860:	e9dd 784a 	ldrd	r7, r8, [sp, #296]	; 0x128
 8005864:	e9dd 564c 	ldrd	r5, r6, [sp, #304]	; 0x130
 8005868:	2b00      	cmp	r3, #0
 800586a:	f040 809e 	bne.w	80059aa <__kernel_rem_pio2+0x65a>
 800586e:	9b01      	ldr	r3, [sp, #4]
 8005870:	e9c3 7800 	strd	r7, r8, [r3]
 8005874:	e9c3 5602 	strd	r5, r6, [r3, #8]
 8005878:	e9c3 0104 	strd	r0, r1, [r3, #16]
 800587c:	e033      	b.n	80058e6 <__kernel_rem_pio2+0x596>
 800587e:	3408      	adds	r4, #8
 8005880:	ab4a      	add	r3, sp, #296	; 0x128
 8005882:	441c      	add	r4, r3
 8005884:	462e      	mov	r6, r5
 8005886:	2000      	movs	r0, #0
 8005888:	2100      	movs	r1, #0
 800588a:	2e00      	cmp	r6, #0
 800588c:	da3a      	bge.n	8005904 <__kernel_rem_pio2+0x5b4>
 800588e:	9b02      	ldr	r3, [sp, #8]
 8005890:	2b00      	cmp	r3, #0
 8005892:	d03d      	beq.n	8005910 <__kernel_rem_pio2+0x5c0>
 8005894:	4602      	mov	r2, r0
 8005896:	f101 4300 	add.w	r3, r1, #2147483648	; 0x80000000
 800589a:	9c01      	ldr	r4, [sp, #4]
 800589c:	e9c4 2300 	strd	r2, r3, [r4]
 80058a0:	4602      	mov	r2, r0
 80058a2:	460b      	mov	r3, r1
 80058a4:	e9dd 014a 	ldrd	r0, r1, [sp, #296]	; 0x128
 80058a8:	f7fa fc9a 	bl	80001e0 <__aeabi_dsub>
 80058ac:	ae4c      	add	r6, sp, #304	; 0x130
 80058ae:	2401      	movs	r4, #1
 80058b0:	42a5      	cmp	r5, r4
 80058b2:	da30      	bge.n	8005916 <__kernel_rem_pio2+0x5c6>
 80058b4:	9b02      	ldr	r3, [sp, #8]
 80058b6:	b113      	cbz	r3, 80058be <__kernel_rem_pio2+0x56e>
 80058b8:	f101 4300 	add.w	r3, r1, #2147483648	; 0x80000000
 80058bc:	4619      	mov	r1, r3
 80058be:	9b01      	ldr	r3, [sp, #4]
 80058c0:	e9c3 0102 	strd	r0, r1, [r3, #8]
 80058c4:	e00f      	b.n	80058e6 <__kernel_rem_pio2+0x596>
 80058c6:	ab9a      	add	r3, sp, #616	; 0x268
 80058c8:	441c      	add	r4, r3
 80058ca:	f5a4 749c 	sub.w	r4, r4, #312	; 0x138
 80058ce:	2000      	movs	r0, #0
 80058d0:	2100      	movs	r1, #0
 80058d2:	2d00      	cmp	r5, #0
 80058d4:	da10      	bge.n	80058f8 <__kernel_rem_pio2+0x5a8>
 80058d6:	9b02      	ldr	r3, [sp, #8]
 80058d8:	b113      	cbz	r3, 80058e0 <__kernel_rem_pio2+0x590>
 80058da:	f101 4300 	add.w	r3, r1, #2147483648	; 0x80000000
 80058de:	4619      	mov	r1, r3
 80058e0:	9b01      	ldr	r3, [sp, #4]
 80058e2:	e9c3 0100 	strd	r0, r1, [r3]
 80058e6:	9b06      	ldr	r3, [sp, #24]
 80058e8:	f003 0007 	and.w	r0, r3, #7
 80058ec:	f50d 7d1b 	add.w	sp, sp, #620	; 0x26c
 80058f0:	ecbd 8b02 	vpop	{d8}
 80058f4:	e8bd 8ff0 	ldmia.w	sp!, {r4, r5, r6, r7, r8, r9, sl, fp, pc}
 80058f8:	e974 2302 	ldrd	r2, r3, [r4, #-8]!
 80058fc:	f7fa fc72 	bl	80001e4 <__adddf3>
 8005900:	3d01      	subs	r5, #1
 8005902:	e7e6      	b.n	80058d2 <__kernel_rem_pio2+0x582>
 8005904:	e974 2302 	ldrd	r2, r3, [r4, #-8]!
 8005908:	f7fa fc6c 	bl	80001e4 <__adddf3>
 800590c:	3e01      	subs	r6, #1
 800590e:	e7bc      	b.n	800588a <__kernel_rem_pio2+0x53a>
 8005910:	4602      	mov	r2, r0
 8005912:	460b      	mov	r3, r1
 8005914:	e7c1      	b.n	800589a <__kernel_rem_pio2+0x54a>
 8005916:	e8f6 2302 	ldrd	r2, r3, [r6], #8
 800591a:	f7fa fc63 	bl	80001e4 <__adddf3>
 800591e:	3401      	adds	r4, #1
 8005920:	e7c6      	b.n	80058b0 <__kernel_rem_pio2+0x560>
 8005922:	e95a 8904 	ldrd	r8, r9, [sl, #-16]
 8005926:	ed3a 7b02 	vldmdb	sl!, {d7}
 800592a:	4640      	mov	r0, r8
 800592c:	ec53 2b17 	vmov	r2, r3, d7
 8005930:	4649      	mov	r1, r9
 8005932:	ed8d 7b04 	vstr	d7, [sp, #16]
 8005936:	f7fa fc55 	bl	80001e4 <__adddf3>
 800593a:	4602      	mov	r2, r0
 800593c:	460b      	mov	r3, r1
 800593e:	4606      	mov	r6, r0
 8005940:	460f      	mov	r7, r1
 8005942:	4640      	mov	r0, r8
 8005944:	4649      	mov	r1, r9
 8005946:	f7fa fc4b 	bl	80001e0 <__aeabi_dsub>
 800594a:	e9dd 2304 	ldrd	r2, r3, [sp, #16]
 800594e:	f7fa fc49 	bl	80001e4 <__adddf3>
 8005952:	f10b 3bff 	add.w	fp, fp, #4294967295
 8005956:	e9ca 0100 	strd	r0, r1, [sl]
 800595a:	e94a 6702 	strd	r6, r7, [sl, #-8]
 800595e:	e770      	b.n	8005842 <__kernel_rem_pio2+0x4f2>
 8005960:	e95a 6704 	ldrd	r6, r7, [sl, #-16]
 8005964:	ed3a 7b02 	vldmdb	sl!, {d7}
 8005968:	4630      	mov	r0, r6
 800596a:	ec53 2b17 	vmov	r2, r3, d7
 800596e:	4639      	mov	r1, r7
 8005970:	ed8d 7b04 	vstr	d7, [sp, #16]
 8005974:	f7fa fc36 	bl	80001e4 <__adddf3>
 8005978:	4602      	mov	r2, r0
 800597a:	460b      	mov	r3, r1
 800597c:	4680      	mov	r8, r0
 800597e:	4689      	mov	r9, r1
 8005980:	4630      	mov	r0, r6
 8005982:	4639      	mov	r1, r7
 8005984:	f7fa fc2c 	bl	80001e0 <__aeabi_dsub>
 8005988:	e9dd 2304 	ldrd	r2, r3, [sp, #16]
 800598c:	f7fa fc2a 	bl	80001e4 <__adddf3>
 8005990:	f10b 3bff 	add.w	fp, fp, #4294967295
 8005994:	e9ca 0100 	strd	r0, r1, [sl]
 8005998:	e94a 8902 	strd	r8, r9, [sl, #-8]
 800599c:	e756      	b.n	800584c <__kernel_rem_pio2+0x4fc>
 800599e:	e974 2302 	ldrd	r2, r3, [r4, #-8]!
 80059a2:	f7fa fc1f 	bl	80001e4 <__adddf3>
 80059a6:	3d01      	subs	r5, #1
 80059a8:	e756      	b.n	8005858 <__kernel_rem_pio2+0x508>
 80059aa:	9b01      	ldr	r3, [sp, #4]
 80059ac:	9a01      	ldr	r2, [sp, #4]
 80059ae:	601f      	str	r7, [r3, #0]
 80059b0:	f108 4400 	add.w	r4, r8, #2147483648	; 0x80000000
 80059b4:	605c      	str	r4, [r3, #4]
 80059b6:	609d      	str	r5, [r3, #8]
 80059b8:	f106 4300 	add.w	r3, r6, #2147483648	; 0x80000000
 80059bc:	60d3      	str	r3, [r2, #12]
 80059be:	f101 4300 	add.w	r3, r1, #2147483648	; 0x80000000
 80059c2:	6110      	str	r0, [r2, #16]
 80059c4:	6153      	str	r3, [r2, #20]
 80059c6:	e78e      	b.n	80058e6 <__kernel_rem_pio2+0x596>
 80059c8:	41700000 	.word	0x41700000
 80059cc:	3e700000 	.word	0x3e700000

080059d0 <__kernel_sin>:
 80059d0:	e92d 4ff0 	stmdb	sp!, {r4, r5, r6, r7, r8, r9, sl, fp, lr}
 80059d4:	ec55 4b10 	vmov	r4, r5, d0
 80059d8:	b085      	sub	sp, #20
 80059da:	f025 4300 	bic.w	r3, r5, #2147483648	; 0x80000000
 80059de:	f1b3 5f79 	cmp.w	r3, #1044381696	; 0x3e400000
 80059e2:	ed8d 1b00 	vstr	d1, [sp]
 80059e6:	9002      	str	r0, [sp, #8]
 80059e8:	da06      	bge.n	80059f8 <__kernel_sin+0x28>
 80059ea:	ee10 0a10 	vmov	r0, s0
 80059ee:	4629      	mov	r1, r5
 80059f0:	f7fb f85e 	bl	8000ab0 <__aeabi_d2iz>
 80059f4:	2800      	cmp	r0, #0
 80059f6:	d051      	beq.n	8005a9c <__kernel_sin+0xcc>
 80059f8:	4622      	mov	r2, r4
 80059fa:	462b      	mov	r3, r5
 80059fc:	4620      	mov	r0, r4
 80059fe:	4629      	mov	r1, r5
 8005a00:	f7fa fda6 	bl	8000550 <__aeabi_dmul>
 8005a04:	4682      	mov	sl, r0
 8005a06:	468b      	mov	fp, r1
 8005a08:	4602      	mov	r2, r0
 8005a0a:	460b      	mov	r3, r1
 8005a0c:	4620      	mov	r0, r4
 8005a0e:	4629      	mov	r1, r5
 8005a10:	f7fa fd9e 	bl	8000550 <__aeabi_dmul>
 8005a14:	a341      	add	r3, pc, #260	; (adr r3, 8005b1c <__kernel_sin+0x14c>)
 8005a16:	e9d3 2300 	ldrd	r2, r3, [r3]
 8005a1a:	4680      	mov	r8, r0
 8005a1c:	4689      	mov	r9, r1
 8005a1e:	4650      	mov	r0, sl
 8005a20:	4659      	mov	r1, fp
 8005a22:	f7fa fd95 	bl	8000550 <__aeabi_dmul>
 8005a26:	a33f      	add	r3, pc, #252	; (adr r3, 8005b24 <__kernel_sin+0x154>)
 8005a28:	e9d3 2300 	ldrd	r2, r3, [r3]
 8005a2c:	f7fa fbd8 	bl	80001e0 <__aeabi_dsub>
 8005a30:	4652      	mov	r2, sl
 8005a32:	465b      	mov	r3, fp
 8005a34:	f7fa fd8c 	bl	8000550 <__aeabi_dmul>
 8005a38:	a33c      	add	r3, pc, #240	; (adr r3, 8005b2c <__kernel_sin+0x15c>)
 8005a3a:	e9d3 2300 	ldrd	r2, r3, [r3]
 8005a3e:	f7fa fbd1 	bl	80001e4 <__adddf3>
 8005a42:	4652      	mov	r2, sl
 8005a44:	465b      	mov	r3, fp
 8005a46:	f7fa fd83 	bl	8000550 <__aeabi_dmul>
 8005a4a:	a33a      	add	r3, pc, #232	; (adr r3, 8005b34 <__kernel_sin+0x164>)
 8005a4c:	e9d3 2300 	ldrd	r2, r3, [r3]
 8005a50:	f7fa fbc6 	bl	80001e0 <__aeabi_dsub>
 8005a54:	4652      	mov	r2, sl
 8005a56:	465b      	mov	r3, fp
 8005a58:	f7fa fd7a 	bl	8000550 <__aeabi_dmul>
 8005a5c:	a337      	add	r3, pc, #220	; (adr r3, 8005b3c <__kernel_sin+0x16c>)
 8005a5e:	e9d3 2300 	ldrd	r2, r3, [r3]
 8005a62:	f7fa fbbf 	bl	80001e4 <__adddf3>
 8005a66:	9b02      	ldr	r3, [sp, #8]
 8005a68:	4606      	mov	r6, r0
 8005a6a:	460f      	mov	r7, r1
 8005a6c:	b9db      	cbnz	r3, 8005aa6 <__kernel_sin+0xd6>
 8005a6e:	4602      	mov	r2, r0
 8005a70:	460b      	mov	r3, r1
 8005a72:	4650      	mov	r0, sl
 8005a74:	4659      	mov	r1, fp
 8005a76:	f7fa fd6b 	bl	8000550 <__aeabi_dmul>
 8005a7a:	a325      	add	r3, pc, #148	; (adr r3, 8005b10 <__kernel_sin+0x140>)
 8005a7c:	e9d3 2300 	ldrd	r2, r3, [r3]
 8005a80:	f7fa fbae 	bl	80001e0 <__aeabi_dsub>
 8005a84:	4642      	mov	r2, r8
 8005a86:	464b      	mov	r3, r9
 8005a88:	f7fa fd62 	bl	8000550 <__aeabi_dmul>
 8005a8c:	4602      	mov	r2, r0
 8005a8e:	460b      	mov	r3, r1
 8005a90:	4620      	mov	r0, r4
 8005a92:	4629      	mov	r1, r5
 8005a94:	f7fa fba6 	bl	80001e4 <__adddf3>
 8005a98:	4604      	mov	r4, r0
 8005a9a:	460d      	mov	r5, r1
 8005a9c:	ec45 4b10 	vmov	d0, r4, r5
 8005aa0:	b005      	add	sp, #20
 8005aa2:	e8bd 8ff0 	ldmia.w	sp!, {r4, r5, r6, r7, r8, r9, sl, fp, pc}
 8005aa6:	2200      	movs	r2, #0
 8005aa8:	4b1b      	ldr	r3, [pc, #108]	; (8005b18 <__kernel_sin+0x148>)
 8005aaa:	e9dd 0100 	ldrd	r0, r1, [sp]
 8005aae:	f7fa fd4f 	bl	8000550 <__aeabi_dmul>
 8005ab2:	4632      	mov	r2, r6
 8005ab4:	e9cd 0102 	strd	r0, r1, [sp, #8]
 8005ab8:	463b      	mov	r3, r7
 8005aba:	4640      	mov	r0, r8
 8005abc:	4649      	mov	r1, r9
 8005abe:	f7fa fd47 	bl	8000550 <__aeabi_dmul>
 8005ac2:	4602      	mov	r2, r0
 8005ac4:	460b      	mov	r3, r1
 8005ac6:	e9dd 0102 	ldrd	r0, r1, [sp, #8]
 8005aca:	f7fa fb89 	bl	80001e0 <__aeabi_dsub>
 8005ace:	4652      	mov	r2, sl
 8005ad0:	465b      	mov	r3, fp
 8005ad2:	f7fa fd3d 	bl	8000550 <__aeabi_dmul>
 8005ad6:	e9dd 2300 	ldrd	r2, r3, [sp]
 8005ada:	f7fa fb81 	bl	80001e0 <__aeabi_dsub>
 8005ade:	a30c      	add	r3, pc, #48	; (adr r3, 8005b10 <__kernel_sin+0x140>)
 8005ae0:	e9d3 2300 	ldrd	r2, r3, [r3]
 8005ae4:	4606      	mov	r6, r0
 8005ae6:	460f      	mov	r7, r1
 8005ae8:	4640      	mov	r0, r8
 8005aea:	4649      	mov	r1, r9
 8005aec:	f7fa fd30 	bl	8000550 <__aeabi_dmul>
 8005af0:	4602      	mov	r2, r0
 8005af2:	460b      	mov	r3, r1
 8005af4:	4630      	mov	r0, r6
 8005af6:	4639      	mov	r1, r7
 8005af8:	f7fa fb74 	bl	80001e4 <__adddf3>
 8005afc:	4602      	mov	r2, r0
 8005afe:	460b      	mov	r3, r1
 8005b00:	4620      	mov	r0, r4
 8005b02:	4629      	mov	r1, r5
 8005b04:	f7fa fb6c 	bl	80001e0 <__aeabi_dsub>
 8005b08:	e7c6      	b.n	8005a98 <__kernel_sin+0xc8>
 8005b0a:	bf00      	nop
 8005b0c:	f3af 8000 	nop.w
 8005b10:	55555549 	.word	0x55555549
 8005b14:	3fc55555 	.word	0x3fc55555
 8005b18:	3fe00000 	.word	0x3fe00000
 8005b1c:	5acfd57c 	.word	0x5acfd57c
 8005b20:	3de5d93a 	.word	0x3de5d93a
 8005b24:	8a2b9ceb 	.word	0x8a2b9ceb
 8005b28:	3e5ae5e6 	.word	0x3e5ae5e6
 8005b2c:	57b1fe7d 	.word	0x57b1fe7d
 8005b30:	3ec71de3 	.word	0x3ec71de3
 8005b34:	19c161d5 	.word	0x19c161d5
 8005b38:	3f2a01a0 	.word	0x3f2a01a0
 8005b3c:	1110f8a6 	.word	0x1110f8a6
 8005b40:	3f811111 	.word	0x3f811111
 8005b44:	00000000 	.word	0x00000000

08005b48 <atan>:
 8005b48:	e92d 4ff8 	stmdb	sp!, {r3, r4, r5, r6, r7, r8, r9, sl, fp, lr}
 8005b4c:	ec55 4b10 	vmov	r4, r5, d0
 8005b50:	4bc3      	ldr	r3, [pc, #780]	; (8005e60 <atan+0x318>)
 8005b52:	f025 4600 	bic.w	r6, r5, #2147483648	; 0x80000000
 8005b56:	429e      	cmp	r6, r3
 8005b58:	46ab      	mov	fp, r5
 8005b5a:	dd18      	ble.n	8005b8e <atan+0x46>
 8005b5c:	4bc1      	ldr	r3, [pc, #772]	; (8005e64 <atan+0x31c>)
 8005b5e:	429e      	cmp	r6, r3
 8005b60:	dc01      	bgt.n	8005b66 <atan+0x1e>
 8005b62:	d109      	bne.n	8005b78 <atan+0x30>
 8005b64:	b144      	cbz	r4, 8005b78 <atan+0x30>
 8005b66:	4622      	mov	r2, r4
 8005b68:	462b      	mov	r3, r5
 8005b6a:	4620      	mov	r0, r4
 8005b6c:	4629      	mov	r1, r5
 8005b6e:	f7fa fb39 	bl	80001e4 <__adddf3>
 8005b72:	4604      	mov	r4, r0
 8005b74:	460d      	mov	r5, r1
 8005b76:	e006      	b.n	8005b86 <atan+0x3e>
 8005b78:	f1bb 0f00 	cmp.w	fp, #0
 8005b7c:	f340 8131 	ble.w	8005de2 <atan+0x29a>
 8005b80:	a59b      	add	r5, pc, #620	; (adr r5, 8005df0 <atan+0x2a8>)
 8005b82:	e9d5 4500 	ldrd	r4, r5, [r5]
 8005b86:	ec45 4b10 	vmov	d0, r4, r5
 8005b8a:	e8bd 8ff8 	ldmia.w	sp!, {r3, r4, r5, r6, r7, r8, r9, sl, fp, pc}
 8005b8e:	4bb6      	ldr	r3, [pc, #728]	; (8005e68 <atan+0x320>)
 8005b90:	429e      	cmp	r6, r3
 8005b92:	dc14      	bgt.n	8005bbe <atan+0x76>
 8005b94:	f1a3 73de 	sub.w	r3, r3, #29097984	; 0x1bc0000
 8005b98:	429e      	cmp	r6, r3
 8005b9a:	dc0d      	bgt.n	8005bb8 <atan+0x70>
 8005b9c:	a396      	add	r3, pc, #600	; (adr r3, 8005df8 <atan+0x2b0>)
 8005b9e:	e9d3 2300 	ldrd	r2, r3, [r3]
 8005ba2:	ee10 0a10 	vmov	r0, s0
 8005ba6:	4629      	mov	r1, r5
 8005ba8:	f7fa fb1c 	bl	80001e4 <__adddf3>
 8005bac:	2200      	movs	r2, #0
 8005bae:	4baf      	ldr	r3, [pc, #700]	; (8005e6c <atan+0x324>)
 8005bb0:	f7fa ff5e 	bl	8000a70 <__aeabi_dcmpgt>
 8005bb4:	2800      	cmp	r0, #0
 8005bb6:	d1e6      	bne.n	8005b86 <atan+0x3e>
 8005bb8:	f04f 3aff 	mov.w	sl, #4294967295
 8005bbc:	e02b      	b.n	8005c16 <atan+0xce>
 8005bbe:	f000 f963 	bl	8005e88 <fabs>
 8005bc2:	4bab      	ldr	r3, [pc, #684]	; (8005e70 <atan+0x328>)
 8005bc4:	429e      	cmp	r6, r3
 8005bc6:	ec55 4b10 	vmov	r4, r5, d0
 8005bca:	f300 80bf 	bgt.w	8005d4c <atan+0x204>
 8005bce:	f5a3 2350 	sub.w	r3, r3, #851968	; 0xd0000
 8005bd2:	429e      	cmp	r6, r3
 8005bd4:	f300 80a0 	bgt.w	8005d18 <atan+0x1d0>
 8005bd8:	ee10 2a10 	vmov	r2, s0
 8005bdc:	ee10 0a10 	vmov	r0, s0
 8005be0:	462b      	mov	r3, r5
 8005be2:	4629      	mov	r1, r5
 8005be4:	f7fa fafe 	bl	80001e4 <__adddf3>
 8005be8:	2200      	movs	r2, #0
 8005bea:	4ba0      	ldr	r3, [pc, #640]	; (8005e6c <atan+0x324>)
 8005bec:	f7fa faf8 	bl	80001e0 <__aeabi_dsub>
 8005bf0:	2200      	movs	r2, #0
 8005bf2:	4606      	mov	r6, r0
 8005bf4:	460f      	mov	r7, r1
 8005bf6:	f04f 4380 	mov.w	r3, #1073741824	; 0x40000000
 8005bfa:	4620      	mov	r0, r4
 8005bfc:	4629      	mov	r1, r5
 8005bfe:	f7fa faf1 	bl	80001e4 <__adddf3>
 8005c02:	4602      	mov	r2, r0
 8005c04:	460b      	mov	r3, r1
 8005c06:	4630      	mov	r0, r6
 8005c08:	4639      	mov	r1, r7
 8005c0a:	f7fa fdcb 	bl	80007a4 <__aeabi_ddiv>
 8005c0e:	f04f 0a00 	mov.w	sl, #0
 8005c12:	4604      	mov	r4, r0
 8005c14:	460d      	mov	r5, r1
 8005c16:	4622      	mov	r2, r4
 8005c18:	462b      	mov	r3, r5
 8005c1a:	4620      	mov	r0, r4
 8005c1c:	4629      	mov	r1, r5
 8005c1e:	f7fa fc97 	bl	8000550 <__aeabi_dmul>
 8005c22:	4602      	mov	r2, r0
 8005c24:	460b      	mov	r3, r1
 8005c26:	4680      	mov	r8, r0
 8005c28:	4689      	mov	r9, r1
 8005c2a:	f7fa fc91 	bl	8000550 <__aeabi_dmul>
 8005c2e:	a374      	add	r3, pc, #464	; (adr r3, 8005e00 <atan+0x2b8>)
 8005c30:	e9d3 2300 	ldrd	r2, r3, [r3]
 8005c34:	4606      	mov	r6, r0
 8005c36:	460f      	mov	r7, r1
 8005c38:	f7fa fc8a 	bl	8000550 <__aeabi_dmul>
 8005c3c:	a372      	add	r3, pc, #456	; (adr r3, 8005e08 <atan+0x2c0>)
 8005c3e:	e9d3 2300 	ldrd	r2, r3, [r3]
 8005c42:	f7fa facf 	bl	80001e4 <__adddf3>
 8005c46:	4632      	mov	r2, r6
 8005c48:	463b      	mov	r3, r7
 8005c4a:	f7fa fc81 	bl	8000550 <__aeabi_dmul>
 8005c4e:	a370      	add	r3, pc, #448	; (adr r3, 8005e10 <atan+0x2c8>)
 8005c50:	e9d3 2300 	ldrd	r2, r3, [r3]
 8005c54:	f7fa fac6 	bl	80001e4 <__adddf3>
 8005c58:	4632      	mov	r2, r6
 8005c5a:	463b      	mov	r3, r7
 8005c5c:	f7fa fc78 	bl	8000550 <__aeabi_dmul>
 8005c60:	a36d      	add	r3, pc, #436	; (adr r3, 8005e18 <atan+0x2d0>)
 8005c62:	e9d3 2300 	ldrd	r2, r3, [r3]
 8005c66:	f7fa fabd 	bl	80001e4 <__adddf3>
 8005c6a:	4632      	mov	r2, r6
 8005c6c:	463b      	mov	r3, r7
 8005c6e:	f7fa fc6f 	bl	8000550 <__aeabi_dmul>
 8005c72:	a36b      	add	r3, pc, #428	; (adr r3, 8005e20 <atan+0x2d8>)
 8005c74:	e9d3 2300 	ldrd	r2, r3, [r3]
 8005c78:	f7fa fab4 	bl	80001e4 <__adddf3>
 8005c7c:	4632      	mov	r2, r6
 8005c7e:	463b      	mov	r3, r7
 8005c80:	f7fa fc66 	bl	8000550 <__aeabi_dmul>
 8005c84:	a368      	add	r3, pc, #416	; (adr r3, 8005e28 <atan+0x2e0>)
 8005c86:	e9d3 2300 	ldrd	r2, r3, [r3]
 8005c8a:	f7fa faab 	bl	80001e4 <__adddf3>
 8005c8e:	4642      	mov	r2, r8
 8005c90:	464b      	mov	r3, r9
 8005c92:	f7fa fc5d 	bl	8000550 <__aeabi_dmul>
 8005c96:	a366      	add	r3, pc, #408	; (adr r3, 8005e30 <atan+0x2e8>)
 8005c98:	e9d3 2300 	ldrd	r2, r3, [r3]
 8005c9c:	4680      	mov	r8, r0
 8005c9e:	4689      	mov	r9, r1
 8005ca0:	4630      	mov	r0, r6
 8005ca2:	4639      	mov	r1, r7
 8005ca4:	f7fa fc54 	bl	8000550 <__aeabi_dmul>
 8005ca8:	a363      	add	r3, pc, #396	; (adr r3, 8005e38 <atan+0x2f0>)
 8005caa:	e9d3 2300 	ldrd	r2, r3, [r3]
 8005cae:	f7fa fa97 	bl	80001e0 <__aeabi_dsub>
 8005cb2:	4632      	mov	r2, r6
 8005cb4:	463b      	mov	r3, r7
 8005cb6:	f7fa fc4b 	bl	8000550 <__aeabi_dmul>
 8005cba:	a361      	add	r3, pc, #388	; (adr r3, 8005e40 <atan+0x2f8>)
 8005cbc:	e9d3 2300 	ldrd	r2, r3, [r3]
 8005cc0:	f7fa fa8e 	bl	80001e0 <__aeabi_dsub>
 8005cc4:	4632      	mov	r2, r6
 8005cc6:	463b      	mov	r3, r7
 8005cc8:	f7fa fc42 	bl	8000550 <__aeabi_dmul>
 8005ccc:	a35e      	add	r3, pc, #376	; (adr r3, 8005e48 <atan+0x300>)
 8005cce:	e9d3 2300 	ldrd	r2, r3, [r3]
 8005cd2:	f7fa fa85 	bl	80001e0 <__aeabi_dsub>
 8005cd6:	4632      	mov	r2, r6
 8005cd8:	463b      	mov	r3, r7
 8005cda:	f7fa fc39 	bl	8000550 <__aeabi_dmul>
 8005cde:	a35c      	add	r3, pc, #368	; (adr r3, 8005e50 <atan+0x308>)
 8005ce0:	e9d3 2300 	ldrd	r2, r3, [r3]
 8005ce4:	f7fa fa7c 	bl	80001e0 <__aeabi_dsub>
 8005ce8:	4632      	mov	r2, r6
 8005cea:	463b      	mov	r3, r7
 8005cec:	f7fa fc30 	bl	8000550 <__aeabi_dmul>
 8005cf0:	4602      	mov	r2, r0
 8005cf2:	460b      	mov	r3, r1
 8005cf4:	4640      	mov	r0, r8
 8005cf6:	4649      	mov	r1, r9
 8005cf8:	f7fa fa74 	bl	80001e4 <__adddf3>
 8005cfc:	4622      	mov	r2, r4
 8005cfe:	462b      	mov	r3, r5
 8005d00:	f7fa fc26 	bl	8000550 <__aeabi_dmul>
 8005d04:	f1ba 3fff 	cmp.w	sl, #4294967295
 8005d08:	4602      	mov	r2, r0
 8005d0a:	460b      	mov	r3, r1
 8005d0c:	d14b      	bne.n	8005da6 <atan+0x25e>
 8005d0e:	4620      	mov	r0, r4
 8005d10:	4629      	mov	r1, r5
 8005d12:	f7fa fa65 	bl	80001e0 <__aeabi_dsub>
 8005d16:	e72c      	b.n	8005b72 <atan+0x2a>
 8005d18:	ee10 0a10 	vmov	r0, s0
 8005d1c:	2200      	movs	r2, #0
 8005d1e:	4b53      	ldr	r3, [pc, #332]	; (8005e6c <atan+0x324>)
 8005d20:	4629      	mov	r1, r5
 8005d22:	f7fa fa5d 	bl	80001e0 <__aeabi_dsub>
 8005d26:	2200      	movs	r2, #0
 8005d28:	4606      	mov	r6, r0
 8005d2a:	460f      	mov	r7, r1
 8005d2c:	4b4f      	ldr	r3, [pc, #316]	; (8005e6c <atan+0x324>)
 8005d2e:	4620      	mov	r0, r4
 8005d30:	4629      	mov	r1, r5
 8005d32:	f7fa fa57 	bl	80001e4 <__adddf3>
 8005d36:	4602      	mov	r2, r0
 8005d38:	460b      	mov	r3, r1
 8005d3a:	4630      	mov	r0, r6
 8005d3c:	4639      	mov	r1, r7
 8005d3e:	f7fa fd31 	bl	80007a4 <__aeabi_ddiv>
 8005d42:	f04f 0a01 	mov.w	sl, #1
 8005d46:	4604      	mov	r4, r0
 8005d48:	460d      	mov	r5, r1
 8005d4a:	e764      	b.n	8005c16 <atan+0xce>
 8005d4c:	4b49      	ldr	r3, [pc, #292]	; (8005e74 <atan+0x32c>)
 8005d4e:	429e      	cmp	r6, r3
 8005d50:	dc1d      	bgt.n	8005d8e <atan+0x246>
 8005d52:	ee10 0a10 	vmov	r0, s0
 8005d56:	2200      	movs	r2, #0
 8005d58:	4b47      	ldr	r3, [pc, #284]	; (8005e78 <atan+0x330>)
 8005d5a:	4629      	mov	r1, r5
 8005d5c:	f7fa fa40 	bl	80001e0 <__aeabi_dsub>
 8005d60:	2200      	movs	r2, #0
 8005d62:	4606      	mov	r6, r0
 8005d64:	460f      	mov	r7, r1
 8005d66:	4b44      	ldr	r3, [pc, #272]	; (8005e78 <atan+0x330>)
 8005d68:	4620      	mov	r0, r4
 8005d6a:	4629      	mov	r1, r5
 8005d6c:	f7fa fbf0 	bl	8000550 <__aeabi_dmul>
 8005d70:	2200      	movs	r2, #0
 8005d72:	4b3e      	ldr	r3, [pc, #248]	; (8005e6c <atan+0x324>)
 8005d74:	f7fa fa36 	bl	80001e4 <__adddf3>
 8005d78:	4602      	mov	r2, r0
 8005d7a:	460b      	mov	r3, r1
 8005d7c:	4630      	mov	r0, r6
 8005d7e:	4639      	mov	r1, r7
 8005d80:	f7fa fd10 	bl	80007a4 <__aeabi_ddiv>
 8005d84:	f04f 0a02 	mov.w	sl, #2
 8005d88:	4604      	mov	r4, r0
 8005d8a:	460d      	mov	r5, r1
 8005d8c:	e743      	b.n	8005c16 <atan+0xce>
 8005d8e:	462b      	mov	r3, r5
 8005d90:	ee10 2a10 	vmov	r2, s0
 8005d94:	2000      	movs	r0, #0
 8005d96:	4939      	ldr	r1, [pc, #228]	; (8005e7c <atan+0x334>)
 8005d98:	f7fa fd04 	bl	80007a4 <__aeabi_ddiv>
 8005d9c:	f04f 0a03 	mov.w	sl, #3
 8005da0:	4604      	mov	r4, r0
 8005da2:	460d      	mov	r5, r1
 8005da4:	e737      	b.n	8005c16 <atan+0xce>
 8005da6:	4b36      	ldr	r3, [pc, #216]	; (8005e80 <atan+0x338>)
 8005da8:	4e36      	ldr	r6, [pc, #216]	; (8005e84 <atan+0x33c>)
 8005daa:	ea4f 0aca 	mov.w	sl, sl, lsl #3
 8005dae:	4456      	add	r6, sl
 8005db0:	449a      	add	sl, r3
 8005db2:	e9da 2300 	ldrd	r2, r3, [sl]
 8005db6:	f7fa fa13 	bl	80001e0 <__aeabi_dsub>
 8005dba:	4622      	mov	r2, r4
 8005dbc:	462b      	mov	r3, r5
 8005dbe:	f7fa fa0f 	bl	80001e0 <__aeabi_dsub>
 8005dc2:	4602      	mov	r2, r0
 8005dc4:	460b      	mov	r3, r1
 8005dc6:	e9d6 0100 	ldrd	r0, r1, [r6]
 8005dca:	f7fa fa09 	bl	80001e0 <__aeabi_dsub>
 8005dce:	f1bb 0f00 	cmp.w	fp, #0
 8005dd2:	4604      	mov	r4, r0
 8005dd4:	460d      	mov	r5, r1
 8005dd6:	f6bf aed6 	bge.w	8005b86 <atan+0x3e>
 8005dda:	f101 4300 	add.w	r3, r1, #2147483648	; 0x80000000
 8005dde:	461d      	mov	r5, r3
 8005de0:	e6d1      	b.n	8005b86 <atan+0x3e>
 8005de2:	a51d      	add	r5, pc, #116	; (adr r5, 8005e58 <atan+0x310>)
 8005de4:	e9d5 4500 	ldrd	r4, r5, [r5]
 8005de8:	e6cd      	b.n	8005b86 <atan+0x3e>
 8005dea:	bf00      	nop
 8005dec:	f3af 8000 	nop.w
 8005df0:	54442d18 	.word	0x54442d18
 8005df4:	3ff921fb 	.word	0x3ff921fb
 8005df8:	8800759c 	.word	0x8800759c
 8005dfc:	7e37e43c 	.word	0x7e37e43c
 8005e00:	e322da11 	.word	0xe322da11
 8005e04:	3f90ad3a 	.word	0x3f90ad3a
 8005e08:	24760deb 	.word	0x24760deb
 8005e0c:	3fa97b4b 	.word	0x3fa97b4b
 8005e10:	a0d03d51 	.word	0xa0d03d51
 8005e14:	3fb10d66 	.word	0x3fb10d66
 8005e18:	c54c206e 	.word	0xc54c206e
 8005e1c:	3fb745cd 	.word	0x3fb745cd
 8005e20:	920083ff 	.word	0x920083ff
 8005e24:	3fc24924 	.word	0x3fc24924
 8005e28:	5555550d 	.word	0x5555550d
 8005e2c:	3fd55555 	.word	0x3fd55555
 8005e30:	2c6a6c2f 	.word	0x2c6a6c2f
 8005e34:	bfa2b444 	.word	0xbfa2b444
 8005e38:	52defd9a 	.word	0x52defd9a
 8005e3c:	3fadde2d 	.word	0x3fadde2d
 8005e40:	af749a6d 	.word	0xaf749a6d
 8005e44:	3fb3b0f2 	.word	0x3fb3b0f2
 8005e48:	fe231671 	.word	0xfe231671
 8005e4c:	3fbc71c6 	.word	0x3fbc71c6
 8005e50:	9998ebc4 	.word	0x9998ebc4
 8005e54:	3fc99999 	.word	0x3fc99999
 8005e58:	54442d18 	.word	0x54442d18
 8005e5c:	bff921fb 	.word	0xbff921fb
 8005e60:	440fffff 	.word	0x440fffff
 8005e64:	7ff00000 	.word	0x7ff00000
 8005e68:	3fdbffff 	.word	0x3fdbffff
 8005e6c:	3ff00000 	.word	0x3ff00000
 8005e70:	3ff2ffff 	.word	0x3ff2ffff
 8005e74:	40037fff 	.word	0x40037fff
 8005e78:	3ff80000 	.word	0x3ff80000
 8005e7c:	bff00000 	.word	0xbff00000
 8005e80:	08006448 	.word	0x08006448
 8005e84:	08006428 	.word	0x08006428

08005e88 <fabs>:
 8005e88:	ec51 0b10 	vmov	r0, r1, d0
 8005e8c:	ee10 2a10 	vmov	r2, s0
 8005e90:	f021 4300 	bic.w	r3, r1, #2147483648	; 0x80000000
 8005e94:	ec43 2b10 	vmov	d0, r2, r3
 8005e98:	4770      	bx	lr

08005e9a <finite>:
 8005e9a:	ee10 3a90 	vmov	r3, s1
 8005e9e:	f043 4000 	orr.w	r0, r3, #2147483648	; 0x80000000
 8005ea2:	f500 1080 	add.w	r0, r0, #1048576	; 0x100000
 8005ea6:	0fc0      	lsrs	r0, r0, #31
 8005ea8:	4770      	bx	lr
 8005eaa:	0000      	movs	r0, r0
 8005eac:	0000      	movs	r0, r0
	...

08005eb0 <floor>:
 8005eb0:	ec51 0b10 	vmov	r0, r1, d0
 8005eb4:	e92d 41f0 	stmdb	sp!, {r4, r5, r6, r7, r8, lr}
 8005eb8:	f3c1 570a 	ubfx	r7, r1, #20, #11
 8005ebc:	f2a7 36ff 	subw	r6, r7, #1023	; 0x3ff
 8005ec0:	2e13      	cmp	r6, #19
 8005ec2:	460c      	mov	r4, r1
 8005ec4:	ee10 5a10 	vmov	r5, s0
 8005ec8:	4680      	mov	r8, r0
 8005eca:	dc34      	bgt.n	8005f36 <floor+0x86>
 8005ecc:	2e00      	cmp	r6, #0
 8005ece:	da16      	bge.n	8005efe <floor+0x4e>
 8005ed0:	a335      	add	r3, pc, #212	; (adr r3, 8005fa8 <floor+0xf8>)
 8005ed2:	e9d3 2300 	ldrd	r2, r3, [r3]
 8005ed6:	f7fa f985 	bl	80001e4 <__adddf3>
 8005eda:	2200      	movs	r2, #0
 8005edc:	2300      	movs	r3, #0
 8005ede:	f7fa fdc7 	bl	8000a70 <__aeabi_dcmpgt>
 8005ee2:	b148      	cbz	r0, 8005ef8 <floor+0x48>
 8005ee4:	2c00      	cmp	r4, #0
 8005ee6:	da59      	bge.n	8005f9c <floor+0xec>
 8005ee8:	f024 4300 	bic.w	r3, r4, #2147483648	; 0x80000000
 8005eec:	4a30      	ldr	r2, [pc, #192]	; (8005fb0 <floor+0x100>)
 8005eee:	432b      	orrs	r3, r5
 8005ef0:	2500      	movs	r5, #0
 8005ef2:	42ab      	cmp	r3, r5
 8005ef4:	bf18      	it	ne
 8005ef6:	4614      	movne	r4, r2
 8005ef8:	4621      	mov	r1, r4
 8005efa:	4628      	mov	r0, r5
 8005efc:	e025      	b.n	8005f4a <floor+0x9a>
 8005efe:	4f2d      	ldr	r7, [pc, #180]	; (8005fb4 <floor+0x104>)
 8005f00:	4137      	asrs	r7, r6
 8005f02:	ea01 0307 	and.w	r3, r1, r7
 8005f06:	4303      	orrs	r3, r0
 8005f08:	d01f      	beq.n	8005f4a <floor+0x9a>
 8005f0a:	a327      	add	r3, pc, #156	; (adr r3, 8005fa8 <floor+0xf8>)
 8005f0c:	e9d3 2300 	ldrd	r2, r3, [r3]
 8005f10:	f7fa f968 	bl	80001e4 <__adddf3>
 8005f14:	2200      	movs	r2, #0
 8005f16:	2300      	movs	r3, #0
 8005f18:	f7fa fdaa 	bl	8000a70 <__aeabi_dcmpgt>
 8005f1c:	2800      	cmp	r0, #0
 8005f1e:	d0eb      	beq.n	8005ef8 <floor+0x48>
 8005f20:	2c00      	cmp	r4, #0
 8005f22:	bfbe      	ittt	lt
 8005f24:	f44f 1380 	movlt.w	r3, #1048576	; 0x100000
 8005f28:	fa43 f606 	asrlt.w	r6, r3, r6
 8005f2c:	19a4      	addlt	r4, r4, r6
 8005f2e:	ea24 0407 	bic.w	r4, r4, r7
 8005f32:	2500      	movs	r5, #0
 8005f34:	e7e0      	b.n	8005ef8 <floor+0x48>
 8005f36:	2e33      	cmp	r6, #51	; 0x33
 8005f38:	dd0b      	ble.n	8005f52 <floor+0xa2>
 8005f3a:	f5b6 6f80 	cmp.w	r6, #1024	; 0x400
 8005f3e:	d104      	bne.n	8005f4a <floor+0x9a>
 8005f40:	ee10 2a10 	vmov	r2, s0
 8005f44:	460b      	mov	r3, r1
 8005f46:	f7fa f94d 	bl	80001e4 <__adddf3>
 8005f4a:	ec41 0b10 	vmov	d0, r0, r1
 8005f4e:	e8bd 81f0 	ldmia.w	sp!, {r4, r5, r6, r7, r8, pc}
 8005f52:	f2a7 4713 	subw	r7, r7, #1043	; 0x413
 8005f56:	f04f 33ff 	mov.w	r3, #4294967295
 8005f5a:	fa23 f707 	lsr.w	r7, r3, r7
 8005f5e:	4207      	tst	r7, r0
 8005f60:	d0f3      	beq.n	8005f4a <floor+0x9a>
 8005f62:	a311      	add	r3, pc, #68	; (adr r3, 8005fa8 <floor+0xf8>)
 8005f64:	e9d3 2300 	ldrd	r2, r3, [r3]
 8005f68:	f7fa f93c 	bl	80001e4 <__adddf3>
 8005f6c:	2200      	movs	r2, #0
 8005f6e:	2300      	movs	r3, #0
 8005f70:	f7fa fd7e 	bl	8000a70 <__aeabi_dcmpgt>
 8005f74:	2800      	cmp	r0, #0
 8005f76:	d0bf      	beq.n	8005ef8 <floor+0x48>
 8005f78:	2c00      	cmp	r4, #0
 8005f7a:	da02      	bge.n	8005f82 <floor+0xd2>
 8005f7c:	2e14      	cmp	r6, #20
 8005f7e:	d103      	bne.n	8005f88 <floor+0xd8>
 8005f80:	3401      	adds	r4, #1
 8005f82:	ea25 0507 	bic.w	r5, r5, r7
 8005f86:	e7b7      	b.n	8005ef8 <floor+0x48>
 8005f88:	2301      	movs	r3, #1
 8005f8a:	f1c6 0634 	rsb	r6, r6, #52	; 0x34
 8005f8e:	fa03 f606 	lsl.w	r6, r3, r6
 8005f92:	4435      	add	r5, r6
 8005f94:	4545      	cmp	r5, r8
 8005f96:	bf38      	it	cc
 8005f98:	18e4      	addcc	r4, r4, r3
 8005f9a:	e7f2      	b.n	8005f82 <floor+0xd2>
 8005f9c:	2500      	movs	r5, #0
 8005f9e:	462c      	mov	r4, r5
 8005fa0:	e7aa      	b.n	8005ef8 <floor+0x48>
 8005fa2:	bf00      	nop
 8005fa4:	f3af 8000 	nop.w
 8005fa8:	8800759c 	.word	0x8800759c
 8005fac:	7e37e43c 	.word	0x7e37e43c
 8005fb0:	bff00000 	.word	0xbff00000
 8005fb4:	000fffff 	.word	0x000fffff

08005fb8 <matherr>:
 8005fb8:	2000      	movs	r0, #0
 8005fba:	4770      	bx	lr
 8005fbc:	0000      	movs	r0, r0
	...

08005fc0 <nan>:
 8005fc0:	ed9f 0b01 	vldr	d0, [pc, #4]	; 8005fc8 <nan+0x8>
 8005fc4:	4770      	bx	lr
 8005fc6:	bf00      	nop
 8005fc8:	00000000 	.word	0x00000000
 8005fcc:	7ff80000 	.word	0x7ff80000

08005fd0 <rint>:
 8005fd0:	b5f7      	push	{r0, r1, r2, r4, r5, r6, r7, lr}
 8005fd2:	ec51 0b10 	vmov	r0, r1, d0
 8005fd6:	f3c1 520a 	ubfx	r2, r1, #20, #11
 8005fda:	f2a2 36ff 	subw	r6, r2, #1023	; 0x3ff
 8005fde:	2e13      	cmp	r6, #19
 8005fe0:	460b      	mov	r3, r1
 8005fe2:	ee10 4a10 	vmov	r4, s0
 8005fe6:	ea4f 75d1 	mov.w	r5, r1, lsr #31
 8005fea:	dc56      	bgt.n	800609a <rint+0xca>
 8005fec:	2e00      	cmp	r6, #0
 8005fee:	da2b      	bge.n	8006048 <rint+0x78>
 8005ff0:	f021 4200 	bic.w	r2, r1, #2147483648	; 0x80000000
 8005ff4:	4302      	orrs	r2, r0
 8005ff6:	d023      	beq.n	8006040 <rint+0x70>
 8005ff8:	f3c1 0213 	ubfx	r2, r1, #0, #20
 8005ffc:	4302      	orrs	r2, r0
 8005ffe:	4254      	negs	r4, r2
 8006000:	4314      	orrs	r4, r2
 8006002:	0c4b      	lsrs	r3, r1, #17
 8006004:	0b24      	lsrs	r4, r4, #12
 8006006:	045b      	lsls	r3, r3, #17
 8006008:	f404 2400 	and.w	r4, r4, #524288	; 0x80000
 800600c:	ea44 0103 	orr.w	r1, r4, r3
 8006010:	460b      	mov	r3, r1
 8006012:	492f      	ldr	r1, [pc, #188]	; (80060d0 <rint+0x100>)
 8006014:	eb01 01c5 	add.w	r1, r1, r5, lsl #3
 8006018:	e9d1 6700 	ldrd	r6, r7, [r1]
 800601c:	4602      	mov	r2, r0
 800601e:	4639      	mov	r1, r7
 8006020:	4630      	mov	r0, r6
 8006022:	f7fa f8df 	bl	80001e4 <__adddf3>
 8006026:	e9cd 0100 	strd	r0, r1, [sp]
 800602a:	463b      	mov	r3, r7
 800602c:	4632      	mov	r2, r6
 800602e:	e9dd 0100 	ldrd	r0, r1, [sp]
 8006032:	f7fa f8d5 	bl	80001e0 <__aeabi_dsub>
 8006036:	f021 4300 	bic.w	r3, r1, #2147483648	; 0x80000000
 800603a:	ea43 77c5 	orr.w	r7, r3, r5, lsl #31
 800603e:	4639      	mov	r1, r7
 8006040:	ec41 0b10 	vmov	d0, r0, r1
 8006044:	b003      	add	sp, #12
 8006046:	bdf0      	pop	{r4, r5, r6, r7, pc}
 8006048:	4a22      	ldr	r2, [pc, #136]	; (80060d4 <rint+0x104>)
 800604a:	4132      	asrs	r2, r6
 800604c:	ea01 0702 	and.w	r7, r1, r2
 8006050:	4307      	orrs	r7, r0
 8006052:	d0f5      	beq.n	8006040 <rint+0x70>
 8006054:	0852      	lsrs	r2, r2, #1
 8006056:	4011      	ands	r1, r2
 8006058:	430c      	orrs	r4, r1
 800605a:	d00b      	beq.n	8006074 <rint+0xa4>
 800605c:	ea23 0202 	bic.w	r2, r3, r2
 8006060:	f44f 2380 	mov.w	r3, #262144	; 0x40000
 8006064:	2e13      	cmp	r6, #19
 8006066:	fa43 f306 	asr.w	r3, r3, r6
 800606a:	bf0c      	ite	eq
 800606c:	f04f 4400 	moveq.w	r4, #2147483648	; 0x80000000
 8006070:	2400      	movne	r4, #0
 8006072:	4313      	orrs	r3, r2
 8006074:	4916      	ldr	r1, [pc, #88]	; (80060d0 <rint+0x100>)
 8006076:	eb01 05c5 	add.w	r5, r1, r5, lsl #3
 800607a:	4622      	mov	r2, r4
 800607c:	e9d5 4500 	ldrd	r4, r5, [r5]
 8006080:	4620      	mov	r0, r4
 8006082:	4629      	mov	r1, r5
 8006084:	f7fa f8ae 	bl	80001e4 <__adddf3>
 8006088:	e9cd 0100 	strd	r0, r1, [sp]
 800608c:	4622      	mov	r2, r4
 800608e:	462b      	mov	r3, r5
 8006090:	e9dd 0100 	ldrd	r0, r1, [sp]
 8006094:	f7fa f8a4 	bl	80001e0 <__aeabi_dsub>
 8006098:	e7d2      	b.n	8006040 <rint+0x70>
 800609a:	2e33      	cmp	r6, #51	; 0x33
 800609c:	dd07      	ble.n	80060ae <rint+0xde>
 800609e:	f5b6 6f80 	cmp.w	r6, #1024	; 0x400
 80060a2:	d1cd      	bne.n	8006040 <rint+0x70>
 80060a4:	ee10 2a10 	vmov	r2, s0
 80060a8:	f7fa f89c 	bl	80001e4 <__adddf3>
 80060ac:	e7c8      	b.n	8006040 <rint+0x70>
 80060ae:	f2a2 4613 	subw	r6, r2, #1043	; 0x413
 80060b2:	f04f 32ff 	mov.w	r2, #4294967295
 80060b6:	40f2      	lsrs	r2, r6
 80060b8:	4210      	tst	r0, r2
 80060ba:	d0c1      	beq.n	8006040 <rint+0x70>
 80060bc:	0852      	lsrs	r2, r2, #1
 80060be:	4210      	tst	r0, r2
 80060c0:	bf1f      	itttt	ne
 80060c2:	f04f 4480 	movne.w	r4, #1073741824	; 0x40000000
 80060c6:	ea20 0202 	bicne.w	r2, r0, r2
 80060ca:	4134      	asrne	r4, r6
 80060cc:	4314      	orrne	r4, r2
 80060ce:	e7d1      	b.n	8006074 <rint+0xa4>
 80060d0:	08006468 	.word	0x08006468
 80060d4:	000fffff 	.word	0x000fffff

080060d8 <scalbn>:
 80060d8:	b570      	push	{r4, r5, r6, lr}
 80060da:	ec55 4b10 	vmov	r4, r5, d0
 80060de:	f3c5 520a 	ubfx	r2, r5, #20, #11
 80060e2:	4606      	mov	r6, r0
 80060e4:	462b      	mov	r3, r5
 80060e6:	b9aa      	cbnz	r2, 8006114 <scalbn+0x3c>
 80060e8:	f025 4300 	bic.w	r3, r5, #2147483648	; 0x80000000
 80060ec:	4323      	orrs	r3, r4
 80060ee:	d03b      	beq.n	8006168 <scalbn+0x90>
 80060f0:	4b31      	ldr	r3, [pc, #196]	; (80061b8 <scalbn+0xe0>)
 80060f2:	4629      	mov	r1, r5
 80060f4:	2200      	movs	r2, #0
 80060f6:	ee10 0a10 	vmov	r0, s0
 80060fa:	f7fa fa29 	bl	8000550 <__aeabi_dmul>
 80060fe:	4b2f      	ldr	r3, [pc, #188]	; (80061bc <scalbn+0xe4>)
 8006100:	429e      	cmp	r6, r3
 8006102:	4604      	mov	r4, r0
 8006104:	460d      	mov	r5, r1
 8006106:	da12      	bge.n	800612e <scalbn+0x56>
 8006108:	a327      	add	r3, pc, #156	; (adr r3, 80061a8 <scalbn+0xd0>)
 800610a:	e9d3 2300 	ldrd	r2, r3, [r3]
 800610e:	f7fa fa1f 	bl	8000550 <__aeabi_dmul>
 8006112:	e009      	b.n	8006128 <scalbn+0x50>
 8006114:	f240 71ff 	movw	r1, #2047	; 0x7ff
 8006118:	428a      	cmp	r2, r1
 800611a:	d10c      	bne.n	8006136 <scalbn+0x5e>
 800611c:	ee10 2a10 	vmov	r2, s0
 8006120:	4620      	mov	r0, r4
 8006122:	4629      	mov	r1, r5
 8006124:	f7fa f85e 	bl	80001e4 <__adddf3>
 8006128:	4604      	mov	r4, r0
 800612a:	460d      	mov	r5, r1
 800612c:	e01c      	b.n	8006168 <scalbn+0x90>
 800612e:	f3c1 520a 	ubfx	r2, r1, #20, #11
 8006132:	460b      	mov	r3, r1
 8006134:	3a36      	subs	r2, #54	; 0x36
 8006136:	4432      	add	r2, r6
 8006138:	f240 71fe 	movw	r1, #2046	; 0x7fe
 800613c:	428a      	cmp	r2, r1
 800613e:	dd0b      	ble.n	8006158 <scalbn+0x80>
 8006140:	ec45 4b11 	vmov	d1, r4, r5
 8006144:	ed9f 0b1a 	vldr	d0, [pc, #104]	; 80061b0 <scalbn+0xd8>
 8006148:	f000 f83c 	bl	80061c4 <copysign>
 800614c:	a318      	add	r3, pc, #96	; (adr r3, 80061b0 <scalbn+0xd8>)
 800614e:	e9d3 2300 	ldrd	r2, r3, [r3]
 8006152:	ec51 0b10 	vmov	r0, r1, d0
 8006156:	e7da      	b.n	800610e <scalbn+0x36>
 8006158:	2a00      	cmp	r2, #0
 800615a:	dd08      	ble.n	800616e <scalbn+0x96>
 800615c:	f023 43ff 	bic.w	r3, r3, #2139095040	; 0x7f800000
 8006160:	f423 03e0 	bic.w	r3, r3, #7340032	; 0x700000
 8006164:	ea43 5502 	orr.w	r5, r3, r2, lsl #20
 8006168:	ec45 4b10 	vmov	d0, r4, r5
 800616c:	bd70      	pop	{r4, r5, r6, pc}
 800616e:	f112 0f35 	cmn.w	r2, #53	; 0x35
 8006172:	da0d      	bge.n	8006190 <scalbn+0xb8>
 8006174:	f24c 3350 	movw	r3, #50000	; 0xc350
 8006178:	429e      	cmp	r6, r3
 800617a:	ec45 4b11 	vmov	d1, r4, r5
 800617e:	dce1      	bgt.n	8006144 <scalbn+0x6c>
 8006180:	ed9f 0b09 	vldr	d0, [pc, #36]	; 80061a8 <scalbn+0xd0>
 8006184:	f000 f81e 	bl	80061c4 <copysign>
 8006188:	a307      	add	r3, pc, #28	; (adr r3, 80061a8 <scalbn+0xd0>)
 800618a:	e9d3 2300 	ldrd	r2, r3, [r3]
 800618e:	e7e0      	b.n	8006152 <scalbn+0x7a>
 8006190:	f023 43ff 	bic.w	r3, r3, #2139095040	; 0x7f800000
 8006194:	3236      	adds	r2, #54	; 0x36
 8006196:	f423 03e0 	bic.w	r3, r3, #7340032	; 0x700000
 800619a:	ea43 5502 	orr.w	r5, r3, r2, lsl #20
 800619e:	4620      	mov	r0, r4
 80061a0:	4629      	mov	r1, r5
 80061a2:	2200      	movs	r2, #0
 80061a4:	4b06      	ldr	r3, [pc, #24]	; (80061c0 <scalbn+0xe8>)
 80061a6:	e7b2      	b.n	800610e <scalbn+0x36>
 80061a8:	c2f8f359 	.word	0xc2f8f359
 80061ac:	01a56e1f 	.word	0x01a56e1f
 80061b0:	8800759c 	.word	0x8800759c
 80061b4:	7e37e43c 	.word	0x7e37e43c
 80061b8:	43500000 	.word	0x43500000
 80061bc:	ffff3cb0 	.word	0xffff3cb0
 80061c0:	3c900000 	.word	0x3c900000

080061c4 <copysign>:
 80061c4:	ec51 0b10 	vmov	r0, r1, d0
 80061c8:	ee11 0a90 	vmov	r0, s3
 80061cc:	ee10 2a10 	vmov	r2, s0
 80061d0:	f021 4100 	bic.w	r1, r1, #2147483648	; 0x80000000
 80061d4:	f000 4000 	and.w	r0, r0, #2147483648	; 0x80000000
 80061d8:	ea41 0300 	orr.w	r3, r1, r0
 80061dc:	ec43 2b10 	vmov	d0, r2, r3
 80061e0:	4770      	bx	lr
	...

080061e4 <_init>:
 80061e4:	b5f8      	push	{r3, r4, r5, r6, r7, lr}
 80061e6:	bf00      	nop
 80061e8:	bcf8      	pop	{r3, r4, r5, r6, r7}
 80061ea:	bc08      	pop	{r3}
 80061ec:	469e      	mov	lr, r3
 80061ee:	4770      	bx	lr

080061f0 <_fini>:
 80061f0:	b5f8      	push	{r3, r4, r5, r6, r7, lr}
 80061f2:	bf00      	nop
 80061f4:	bcf8      	pop	{r3, r4, r5, r6, r7}
 80061f6:	bc08      	pop	{r3}
 80061f8:	469e      	mov	lr, r3
 80061fa:	4770      	bx	lr
